
zephyr.elf:     file format elf32-littlearm


Disassembly of section .boot2:

10000000 <.boot2>:
10000000:	4b32b500 	.word	0x4b32b500
10000004:	60582021 	.word	0x60582021
10000008:	21026898 	.word	0x21026898
1000000c:	60984388 	.word	0x60984388
10000010:	611860d8 	.word	0x611860d8
10000014:	4b2e6158 	.word	0x4b2e6158
10000018:	60992100 	.word	0x60992100
1000001c:	61592104 	.word	0x61592104
10000020:	22f02101 	.word	0x22f02101
10000024:	492b5099 	.word	0x492b5099
10000028:	21016019 	.word	0x21016019
1000002c:	20356099 	.word	0x20356099
10000030:	f844f000 	.word	0xf844f000
10000034:	42902202 	.word	0x42902202
10000038:	2106d014 	.word	0x2106d014
1000003c:	f0006619 	.word	0xf0006619
10000040:	6e19f834 	.word	0x6e19f834
10000044:	66192101 	.word	0x66192101
10000048:	66182000 	.word	0x66182000
1000004c:	f000661a 	.word	0xf000661a
10000050:	6e19f82c 	.word	0x6e19f82c
10000054:	6e196e19 	.word	0x6e196e19
10000058:	f0002005 	.word	0xf0002005
1000005c:	2101f82f 	.word	0x2101f82f
10000060:	d1f94208 	.word	0xd1f94208
10000064:	60992100 	.word	0x60992100
10000068:	6019491b 	.word	0x6019491b
1000006c:	60592100 	.word	0x60592100
10000070:	481b491a 	.word	0x481b491a
10000074:	21016001 	.word	0x21016001
10000078:	21eb6099 	.word	0x21eb6099
1000007c:	21a06619 	.word	0x21a06619
10000080:	f0006619 	.word	0xf0006619
10000084:	2100f812 	.word	0x2100f812
10000088:	49166099 	.word	0x49166099
1000008c:	60014814 	.word	0x60014814
10000090:	60992101 	.word	0x60992101
10000094:	2800bc01 	.word	0x2800bc01
10000098:	4700d000 	.word	0x4700d000
1000009c:	49134812 	.word	0x49134812
100000a0:	c8036008 	.word	0xc8036008
100000a4:	8808f380 	.word	0x8808f380
100000a8:	b5034708 	.word	0xb5034708
100000ac:	20046a99 	.word	0x20046a99
100000b0:	d0fb4201 	.word	0xd0fb4201
100000b4:	42012001 	.word	0x42012001
100000b8:	bd03d1f8 	.word	0xbd03d1f8
100000bc:	6618b502 	.word	0x6618b502
100000c0:	f7ff6618 	.word	0xf7ff6618
100000c4:	6e18fff2 	.word	0x6e18fff2
100000c8:	bd026e18 	.word	0xbd026e18
100000cc:	40020000 	.word	0x40020000
100000d0:	18000000 	.word	0x18000000
100000d4:	00070000 	.word	0x00070000
100000d8:	005f0300 	.word	0x005f0300
100000dc:	00002221 	.word	0x00002221
100000e0:	180000f4 	.word	0x180000f4
100000e4:	a0002022 	.word	0xa0002022
100000e8:	10000100 	.word	0x10000100
100000ec:	e000ed08 	.word	0xe000ed08
	...
100000fc:	d58f0b07 	.word	0xd58f0b07

Disassembly of section rom_start:

10000100 <_vector_table>:
10000100:	20000ec8 10000fe9 1000252b 10000fa5     ... ....+%......
	...
1000012c:	10000e71 00000000 00000000 10000e11     q...............
1000013c:	100012b5                                ....

10000140 <_irq_vector_table>:
10000140:	10000ee1 10000ee1 10000ee1 10000ee1     ................
10000150:	10000ee1 10000ee1 10000ee1 10000ee1     ................
10000160:	10000ee1 10000ee1 10000ee1 10000ee1     ................
10000170:	10000ee1 10000ee1 10000ee1 10000ee1     ................
10000180:	10000ee1 10000ee1 10000ee1 10000ee1     ................
10000190:	10000ee1 10000ee1 10000ee1 10000ee1     ................
100001a0:	10000ee1 10000ee1                       ........

Disassembly of section text:

100001a8 <__gnu_thumb1_case_uqi>:
100001a8:	b402      	push	{r1}
100001aa:	4671      	mov	r1, lr
100001ac:	0849      	lsrs	r1, r1, #1
100001ae:	0049      	lsls	r1, r1, #1
100001b0:	5c09      	ldrb	r1, [r1, r0]
100001b2:	0049      	lsls	r1, r1, #1
100001b4:	448e      	add	lr, r1
100001b6:	bc02      	pop	{r1}
100001b8:	4770      	bx	lr
100001ba:	46c0      	nop			; (mov r8, r8)

100001bc <__gnu_thumb1_case_shi>:
100001bc:	b403      	push	{r0, r1}
100001be:	4671      	mov	r1, lr
100001c0:	0849      	lsrs	r1, r1, #1
100001c2:	0040      	lsls	r0, r0, #1
100001c4:	0049      	lsls	r1, r1, #1
100001c6:	5e09      	ldrsh	r1, [r1, r0]
100001c8:	0049      	lsls	r1, r1, #1
100001ca:	448e      	add	lr, r1
100001cc:	bc03      	pop	{r0, r1}
100001ce:	4770      	bx	lr

100001d0 <__udivsi3>:
100001d0:	2900      	cmp	r1, #0
100001d2:	d034      	beq.n	1000023e <.udivsi3_skip_div0_test+0x6a>

100001d4 <.udivsi3_skip_div0_test>:
100001d4:	2301      	movs	r3, #1
100001d6:	2200      	movs	r2, #0
100001d8:	b410      	push	{r4}
100001da:	4288      	cmp	r0, r1
100001dc:	d32c      	bcc.n	10000238 <.udivsi3_skip_div0_test+0x64>
100001de:	2401      	movs	r4, #1
100001e0:	0724      	lsls	r4, r4, #28
100001e2:	42a1      	cmp	r1, r4
100001e4:	d204      	bcs.n	100001f0 <.udivsi3_skip_div0_test+0x1c>
100001e6:	4281      	cmp	r1, r0
100001e8:	d202      	bcs.n	100001f0 <.udivsi3_skip_div0_test+0x1c>
100001ea:	0109      	lsls	r1, r1, #4
100001ec:	011b      	lsls	r3, r3, #4
100001ee:	e7f8      	b.n	100001e2 <.udivsi3_skip_div0_test+0xe>
100001f0:	00e4      	lsls	r4, r4, #3
100001f2:	42a1      	cmp	r1, r4
100001f4:	d204      	bcs.n	10000200 <.udivsi3_skip_div0_test+0x2c>
100001f6:	4281      	cmp	r1, r0
100001f8:	d202      	bcs.n	10000200 <.udivsi3_skip_div0_test+0x2c>
100001fa:	0049      	lsls	r1, r1, #1
100001fc:	005b      	lsls	r3, r3, #1
100001fe:	e7f8      	b.n	100001f2 <.udivsi3_skip_div0_test+0x1e>
10000200:	4288      	cmp	r0, r1
10000202:	d301      	bcc.n	10000208 <.udivsi3_skip_div0_test+0x34>
10000204:	1a40      	subs	r0, r0, r1
10000206:	431a      	orrs	r2, r3
10000208:	084c      	lsrs	r4, r1, #1
1000020a:	42a0      	cmp	r0, r4
1000020c:	d302      	bcc.n	10000214 <.udivsi3_skip_div0_test+0x40>
1000020e:	1b00      	subs	r0, r0, r4
10000210:	085c      	lsrs	r4, r3, #1
10000212:	4322      	orrs	r2, r4
10000214:	088c      	lsrs	r4, r1, #2
10000216:	42a0      	cmp	r0, r4
10000218:	d302      	bcc.n	10000220 <.udivsi3_skip_div0_test+0x4c>
1000021a:	1b00      	subs	r0, r0, r4
1000021c:	089c      	lsrs	r4, r3, #2
1000021e:	4322      	orrs	r2, r4
10000220:	08cc      	lsrs	r4, r1, #3
10000222:	42a0      	cmp	r0, r4
10000224:	d302      	bcc.n	1000022c <.udivsi3_skip_div0_test+0x58>
10000226:	1b00      	subs	r0, r0, r4
10000228:	08dc      	lsrs	r4, r3, #3
1000022a:	4322      	orrs	r2, r4
1000022c:	2800      	cmp	r0, #0
1000022e:	d003      	beq.n	10000238 <.udivsi3_skip_div0_test+0x64>
10000230:	091b      	lsrs	r3, r3, #4
10000232:	d001      	beq.n	10000238 <.udivsi3_skip_div0_test+0x64>
10000234:	0909      	lsrs	r1, r1, #4
10000236:	e7e3      	b.n	10000200 <.udivsi3_skip_div0_test+0x2c>
10000238:	0010      	movs	r0, r2
1000023a:	bc10      	pop	{r4}
1000023c:	4770      	bx	lr
1000023e:	b501      	push	{r0, lr}
10000240:	2000      	movs	r0, #0
10000242:	f000 f80b 	bl	1000025c <__aeabi_idiv0>
10000246:	bd02      	pop	{r1, pc}

10000248 <__aeabi_uidivmod>:
10000248:	2900      	cmp	r1, #0
1000024a:	d0f8      	beq.n	1000023e <.udivsi3_skip_div0_test+0x6a>
1000024c:	b503      	push	{r0, r1, lr}
1000024e:	f7ff ffc1 	bl	100001d4 <.udivsi3_skip_div0_test>
10000252:	bc0e      	pop	{r1, r2, r3}
10000254:	4342      	muls	r2, r0
10000256:	1a89      	subs	r1, r1, r2
10000258:	4718      	bx	r3
1000025a:	46c0      	nop			; (mov r8, r8)

1000025c <__aeabi_idiv0>:
1000025c:	4770      	bx	lr
1000025e:	46c0      	nop			; (mov r8, r8)

10000260 <__clzsi2>:
10000260:	211c      	movs	r1, #28
10000262:	2301      	movs	r3, #1
10000264:	041b      	lsls	r3, r3, #16
10000266:	4298      	cmp	r0, r3
10000268:	d301      	bcc.n	1000026e <__clzsi2+0xe>
1000026a:	0c00      	lsrs	r0, r0, #16
1000026c:	3910      	subs	r1, #16
1000026e:	0a1b      	lsrs	r3, r3, #8
10000270:	4298      	cmp	r0, r3
10000272:	d301      	bcc.n	10000278 <__clzsi2+0x18>
10000274:	0a00      	lsrs	r0, r0, #8
10000276:	3908      	subs	r1, #8
10000278:	091b      	lsrs	r3, r3, #4
1000027a:	4298      	cmp	r0, r3
1000027c:	d301      	bcc.n	10000282 <__clzsi2+0x22>
1000027e:	0900      	lsrs	r0, r0, #4
10000280:	3904      	subs	r1, #4
10000282:	a202      	add	r2, pc, #8	; (adr r2, 1000028c <__clzsi2+0x2c>)
10000284:	5c10      	ldrb	r0, [r2, r0]
10000286:	1840      	adds	r0, r0, r1
10000288:	4770      	bx	lr
1000028a:	46c0      	nop			; (mov r8, r8)
1000028c:	02020304 	.word	0x02020304
10000290:	01010101 	.word	0x01010101
	...

1000029c <__aeabi_uldivmod>:
1000029c:	2b00      	cmp	r3, #0
1000029e:	d111      	bne.n	100002c4 <__aeabi_uldivmod+0x28>
100002a0:	2a00      	cmp	r2, #0
100002a2:	d10f      	bne.n	100002c4 <__aeabi_uldivmod+0x28>
100002a4:	2900      	cmp	r1, #0
100002a6:	d100      	bne.n	100002aa <__aeabi_uldivmod+0xe>
100002a8:	2800      	cmp	r0, #0
100002aa:	d002      	beq.n	100002b2 <__aeabi_uldivmod+0x16>
100002ac:	2100      	movs	r1, #0
100002ae:	43c9      	mvns	r1, r1
100002b0:	0008      	movs	r0, r1
100002b2:	b407      	push	{r0, r1, r2}
100002b4:	4802      	ldr	r0, [pc, #8]	; (100002c0 <__aeabi_uldivmod+0x24>)
100002b6:	a102      	add	r1, pc, #8	; (adr r1, 100002c0 <__aeabi_uldivmod+0x24>)
100002b8:	1840      	adds	r0, r0, r1
100002ba:	9002      	str	r0, [sp, #8]
100002bc:	bd03      	pop	{r0, r1, pc}
100002be:	46c0      	nop			; (mov r8, r8)
100002c0:	ffffff9d 	.word	0xffffff9d
100002c4:	b403      	push	{r0, r1}
100002c6:	4668      	mov	r0, sp
100002c8:	b501      	push	{r0, lr}
100002ca:	9802      	ldr	r0, [sp, #8]
100002cc:	f000 f84c 	bl	10000368 <__udivmoddi4>
100002d0:	9b01      	ldr	r3, [sp, #4]
100002d2:	469e      	mov	lr, r3
100002d4:	b002      	add	sp, #8
100002d6:	bc0c      	pop	{r2, r3}
100002d8:	4770      	bx	lr
100002da:	46c0      	nop			; (mov r8, r8)

100002dc <__aeabi_llsr>:
100002dc:	40d0      	lsrs	r0, r2
100002de:	000b      	movs	r3, r1
100002e0:	40d1      	lsrs	r1, r2
100002e2:	469c      	mov	ip, r3
100002e4:	3a20      	subs	r2, #32
100002e6:	40d3      	lsrs	r3, r2
100002e8:	4318      	orrs	r0, r3
100002ea:	4252      	negs	r2, r2
100002ec:	4663      	mov	r3, ip
100002ee:	4093      	lsls	r3, r2
100002f0:	4318      	orrs	r0, r3
100002f2:	4770      	bx	lr

100002f4 <__aeabi_llsl>:
100002f4:	4091      	lsls	r1, r2
100002f6:	0003      	movs	r3, r0
100002f8:	4090      	lsls	r0, r2
100002fa:	469c      	mov	ip, r3
100002fc:	3a20      	subs	r2, #32
100002fe:	4093      	lsls	r3, r2
10000300:	4319      	orrs	r1, r3
10000302:	4252      	negs	r2, r2
10000304:	4663      	mov	r3, ip
10000306:	40d3      	lsrs	r3, r2
10000308:	4319      	orrs	r1, r3
1000030a:	4770      	bx	lr

1000030c <__clzdi2>:
1000030c:	b510      	push	{r4, lr}
1000030e:	2900      	cmp	r1, #0
10000310:	d103      	bne.n	1000031a <__clzdi2+0xe>
10000312:	f7ff ffa5 	bl	10000260 <__clzsi2>
10000316:	3020      	adds	r0, #32
10000318:	e002      	b.n	10000320 <__clzdi2+0x14>
1000031a:	0008      	movs	r0, r1
1000031c:	f7ff ffa0 	bl	10000260 <__clzsi2>
10000320:	bd10      	pop	{r4, pc}
10000322:	46c0      	nop			; (mov r8, r8)

10000324 <__aeabi_lmul>:
10000324:	b5f7      	push	{r0, r1, r2, r4, r5, r6, r7, lr}
10000326:	0c04      	lsrs	r4, r0, #16
10000328:	000d      	movs	r5, r1
1000032a:	b291      	uxth	r1, r2
1000032c:	000f      	movs	r7, r1
1000032e:	4361      	muls	r1, r4
10000330:	468c      	mov	ip, r1
10000332:	0006      	movs	r6, r0
10000334:	9301      	str	r3, [sp, #4]
10000336:	b283      	uxth	r3, r0
10000338:	0c10      	lsrs	r0, r2, #16
1000033a:	435f      	muls	r7, r3
1000033c:	4344      	muls	r4, r0
1000033e:	4358      	muls	r0, r3
10000340:	0c3b      	lsrs	r3, r7, #16
10000342:	4460      	add	r0, ip
10000344:	181b      	adds	r3, r3, r0
10000346:	4299      	cmp	r1, r3
10000348:	d902      	bls.n	10000350 <__aeabi_lmul+0x2c>
1000034a:	2180      	movs	r1, #128	; 0x80
1000034c:	0249      	lsls	r1, r1, #9
1000034e:	1864      	adds	r4, r4, r1
10000350:	9901      	ldr	r1, [sp, #4]
10000352:	4355      	muls	r5, r2
10000354:	4371      	muls	r1, r6
10000356:	0c18      	lsrs	r0, r3, #16
10000358:	1904      	adds	r4, r0, r4
1000035a:	041b      	lsls	r3, r3, #16
1000035c:	b2bf      	uxth	r7, r7
1000035e:	1949      	adds	r1, r1, r5
10000360:	19d8      	adds	r0, r3, r7
10000362:	1909      	adds	r1, r1, r4
10000364:	b003      	add	sp, #12
10000366:	bdf0      	pop	{r4, r5, r6, r7, pc}

10000368 <__udivmoddi4>:
10000368:	b5f0      	push	{r4, r5, r6, r7, lr}
1000036a:	0006      	movs	r6, r0
1000036c:	000f      	movs	r7, r1
1000036e:	0015      	movs	r5, r2
10000370:	001c      	movs	r4, r3
10000372:	b085      	sub	sp, #20
10000374:	428b      	cmp	r3, r1
10000376:	d863      	bhi.n	10000440 <__udivmoddi4+0xd8>
10000378:	d101      	bne.n	1000037e <__udivmoddi4+0x16>
1000037a:	4282      	cmp	r2, r0
1000037c:	d860      	bhi.n	10000440 <__udivmoddi4+0xd8>
1000037e:	0021      	movs	r1, r4
10000380:	0028      	movs	r0, r5
10000382:	f7ff ffc3 	bl	1000030c <__clzdi2>
10000386:	0039      	movs	r1, r7
10000388:	9000      	str	r0, [sp, #0]
1000038a:	0030      	movs	r0, r6
1000038c:	f7ff ffbe 	bl	1000030c <__clzdi2>
10000390:	9b00      	ldr	r3, [sp, #0]
10000392:	0021      	movs	r1, r4
10000394:	1a1b      	subs	r3, r3, r0
10000396:	001a      	movs	r2, r3
10000398:	0028      	movs	r0, r5
1000039a:	9303      	str	r3, [sp, #12]
1000039c:	f7ff ffaa 	bl	100002f4 <__aeabi_llsl>
100003a0:	9000      	str	r0, [sp, #0]
100003a2:	9101      	str	r1, [sp, #4]
100003a4:	42b9      	cmp	r1, r7
100003a6:	d845      	bhi.n	10000434 <__udivmoddi4+0xcc>
100003a8:	d101      	bne.n	100003ae <__udivmoddi4+0x46>
100003aa:	42b0      	cmp	r0, r6
100003ac:	d842      	bhi.n	10000434 <__udivmoddi4+0xcc>
100003ae:	9b00      	ldr	r3, [sp, #0]
100003b0:	9c01      	ldr	r4, [sp, #4]
100003b2:	2001      	movs	r0, #1
100003b4:	2100      	movs	r1, #0
100003b6:	9a03      	ldr	r2, [sp, #12]
100003b8:	1af6      	subs	r6, r6, r3
100003ba:	41a7      	sbcs	r7, r4
100003bc:	f7ff ff9a 	bl	100002f4 <__aeabi_llsl>
100003c0:	0004      	movs	r4, r0
100003c2:	000d      	movs	r5, r1
100003c4:	9b03      	ldr	r3, [sp, #12]
100003c6:	2b00      	cmp	r3, #0
100003c8:	d02b      	beq.n	10000422 <__udivmoddi4+0xba>
100003ca:	9b01      	ldr	r3, [sp, #4]
100003cc:	9a00      	ldr	r2, [sp, #0]
100003ce:	07db      	lsls	r3, r3, #31
100003d0:	0850      	lsrs	r0, r2, #1
100003d2:	4318      	orrs	r0, r3
100003d4:	9b01      	ldr	r3, [sp, #4]
100003d6:	0859      	lsrs	r1, r3, #1
100003d8:	9b03      	ldr	r3, [sp, #12]
100003da:	469c      	mov	ip, r3
100003dc:	42b9      	cmp	r1, r7
100003de:	d82c      	bhi.n	1000043a <__udivmoddi4+0xd2>
100003e0:	d101      	bne.n	100003e6 <__udivmoddi4+0x7e>
100003e2:	42b0      	cmp	r0, r6
100003e4:	d829      	bhi.n	1000043a <__udivmoddi4+0xd2>
100003e6:	0032      	movs	r2, r6
100003e8:	003b      	movs	r3, r7
100003ea:	1a12      	subs	r2, r2, r0
100003ec:	418b      	sbcs	r3, r1
100003ee:	2601      	movs	r6, #1
100003f0:	1892      	adds	r2, r2, r2
100003f2:	415b      	adcs	r3, r3
100003f4:	2700      	movs	r7, #0
100003f6:	18b6      	adds	r6, r6, r2
100003f8:	415f      	adcs	r7, r3
100003fa:	2301      	movs	r3, #1
100003fc:	425b      	negs	r3, r3
100003fe:	449c      	add	ip, r3
10000400:	4663      	mov	r3, ip
10000402:	2b00      	cmp	r3, #0
10000404:	d1ea      	bne.n	100003dc <__udivmoddi4+0x74>
10000406:	0030      	movs	r0, r6
10000408:	0039      	movs	r1, r7
1000040a:	9a03      	ldr	r2, [sp, #12]
1000040c:	f7ff ff66 	bl	100002dc <__aeabi_llsr>
10000410:	9a03      	ldr	r2, [sp, #12]
10000412:	19a4      	adds	r4, r4, r6
10000414:	417d      	adcs	r5, r7
10000416:	0006      	movs	r6, r0
10000418:	000f      	movs	r7, r1
1000041a:	f7ff ff6b 	bl	100002f4 <__aeabi_llsl>
1000041e:	1a24      	subs	r4, r4, r0
10000420:	418d      	sbcs	r5, r1
10000422:	9b0a      	ldr	r3, [sp, #40]	; 0x28
10000424:	2b00      	cmp	r3, #0
10000426:	d001      	beq.n	1000042c <__udivmoddi4+0xc4>
10000428:	601e      	str	r6, [r3, #0]
1000042a:	605f      	str	r7, [r3, #4]
1000042c:	0020      	movs	r0, r4
1000042e:	0029      	movs	r1, r5
10000430:	b005      	add	sp, #20
10000432:	bdf0      	pop	{r4, r5, r6, r7, pc}
10000434:	2400      	movs	r4, #0
10000436:	2500      	movs	r5, #0
10000438:	e7c4      	b.n	100003c4 <__udivmoddi4+0x5c>
1000043a:	19b6      	adds	r6, r6, r6
1000043c:	417f      	adcs	r7, r7
1000043e:	e7dc      	b.n	100003fa <__udivmoddi4+0x92>
10000440:	2400      	movs	r4, #0
10000442:	2500      	movs	r5, #0
10000444:	e7ed      	b.n	10000422 <__udivmoddi4+0xba>
	...

10000448 <button_pressed>:
static struct gpio_dt_spec led = GPIO_DT_SPEC_GET_OR(DT_ALIAS(led2), gpios,
						     {0});

void button_pressed(const struct device *dev, struct gpio_callback *cb,
		    uint32_t pins)
{
10000448:	b510      	push	{r4, lr}
#ifndef _ASMLANGUAGE
extern uint32_t sys_clock_cycle_get_32(void);

static inline uint32_t arch_k_cycle_get_32(void)
{
	return sys_clock_cycle_get_32();
1000044a:	f000 ffe9 	bl	10001420 <sys_clock_cycle_get_32>
	printk("Button pressed at %" PRIu32 "\n", k_cycle_get_32());
1000044e:	4b03      	ldr	r3, [pc, #12]	; (1000045c <button_pressed+0x14>)
10000450:	0001      	movs	r1, r0
10000452:	0018      	movs	r0, r3
10000454:	f001 ffe0 	bl	10002418 <printk>
}
10000458:	bd10      	pop	{r4, pc}
1000045a:	46c0      	nop			; (mov r8, r8)
1000045c:	10002eb8 	.word	0x10002eb8

10000460 <main>:

void main(void)
{
10000460:	b5f7      	push	{r0, r1, r2, r4, r5, r6, r7, lr}
 */
__syscall bool device_is_ready(const struct device *dev);

static inline bool z_impl_device_is_ready(const struct device *dev)
{
	return z_device_is_ready(dev);
10000462:	4c4d      	ldr	r4, [pc, #308]	; (10000598 <main+0x138>)
10000464:	0020      	movs	r0, r4
10000466:	f002 fb4a 	bl	10002afe <z_device_is_ready>
	int ret;

	if (!gpio_is_ready_dt(&button)) {
1000046a:	2800      	cmp	r0, #0
1000046c:	d104      	bne.n	10000478 <main+0x18>
		printk("Error: button device %s is not ready\n",
1000046e:	484b      	ldr	r0, [pc, #300]	; (1000059c <main+0x13c>)
10000470:	6821      	ldr	r1, [r4, #0]
10000472:	f001 ffd1 	bl	10002418 <printk>
				gpio_pin_set_dt(&led, val);
			}
			k_msleep(SLEEP_TIME_MS);
		}
	}
}
10000476:	bdf7      	pop	{r0, r1, r2, r4, r5, r6, r7, pc}
	ret = gpio_pin_configure_dt(&button, GPIO_INPUT);
10000478:	2180      	movs	r1, #128	; 0x80
1000047a:	4849      	ldr	r0, [pc, #292]	; (100005a0 <main+0x140>)
1000047c:	0249      	lsls	r1, r1, #9
1000047e:	f001 ffb0 	bl	100023e2 <gpio_pin_configure_dt>
10000482:	1e01      	subs	r1, r0, #0
	if (ret != 0) {
10000484:	d005      	beq.n	10000492 <main+0x32>
		printk("Error %d: failed to configure %s pin %d\n",
10000486:	2306      	movs	r3, #6
10000488:	4846      	ldr	r0, [pc, #280]	; (100005a4 <main+0x144>)
1000048a:	6822      	ldr	r2, [r4, #0]
		printk("Error %d: failed to configure interrupt on %s pin %d\n",
1000048c:	f001 ffc4 	bl	10002418 <printk>
		return;
10000490:	e7f1      	b.n	10000476 <main+0x16>

	__ASSERT((cfg->port_pin_mask & (gpio_port_pins_t)BIT(pin)) != 0U,
		 "Unsupported pin");

	if (((flags & GPIO_INT_LEVELS_LOGICAL) != 0) &&
	    ((data->invert & (gpio_port_pins_t)BIT(pin)) != 0)) {
10000492:	2640      	movs	r6, #64	; 0x40
10000494:	6923      	ldr	r3, [r4, #16]
	const struct gpio_driver_api *api =
10000496:	68a5      	ldr	r5, [r4, #8]
	    ((data->invert & (gpio_port_pins_t)BIT(pin)) != 0)) {
10000498:	681b      	ldr	r3, [r3, #0]
					     GPIO_INT_ENABLE_DISABLE_ONLY));
#else
	mode = (enum gpio_int_mode)(flags & (GPIO_INT_EDGE | GPIO_INT_DISABLE | GPIO_INT_ENABLE));
#endif /* CONFIG_GPIO_ENABLE_DISABLE_INTERRUPT */

	return api->pin_interrupt_configure(port, pin, mode, trig);
1000049a:	2106      	movs	r1, #6
	    ((data->invert & (gpio_port_pins_t)BIT(pin)) != 0)) {
1000049c:	4033      	ands	r3, r6
	if (((flags & GPIO_INT_LEVELS_LOGICAL) != 0) &&
1000049e:	1e5a      	subs	r2, r3, #1
100004a0:	4193      	sbcs	r3, r2
100004a2:	22b8      	movs	r2, #184	; 0xb8
100004a4:	425b      	negs	r3, r3
100004a6:	0e5b      	lsrs	r3, r3, #25
100004a8:	04d2      	lsls	r2, r2, #19
100004aa:	065b      	lsls	r3, r3, #25
100004ac:	189b      	adds	r3, r3, r2
	trig = (enum gpio_int_trig)(flags & (GPIO_INT_LOW_0 | GPIO_INT_HIGH_1));
100004ae:	22c0      	movs	r2, #192	; 0xc0
100004b0:	04d2      	lsls	r2, r2, #19
100004b2:	4013      	ands	r3, r2
	return api->pin_interrupt_configure(port, pin, mode, trig);
100004b4:	22a0      	movs	r2, #160	; 0xa0
100004b6:	69af      	ldr	r7, [r5, #24]
100004b8:	0020      	movs	r0, r4
100004ba:	0452      	lsls	r2, r2, #17
100004bc:	47b8      	blx	r7
			ret, button.port->name, button.pin);
100004be:	6827      	ldr	r7, [r4, #0]
100004c0:	1e01      	subs	r1, r0, #0
	if (ret != 0) {
100004c2:	d003      	beq.n	100004cc <main+0x6c>
		printk("Error %d: failed to configure interrupt on %s pin %d\n",
100004c4:	2306      	movs	r3, #6
100004c6:	003a      	movs	r2, r7
100004c8:	4837      	ldr	r0, [pc, #220]	; (100005a8 <main+0x148>)
100004ca:	e7df      	b.n	1000048c <main+0x2c>
				      gpio_port_pins_t pin_mask)
{
	__ASSERT(callback, "Callback pointer should not be NULL");
	__ASSERT(handler, "Callback handler pointer should not be NULL");

	callback->handler = handler;
100004cc:	4937      	ldr	r1, [pc, #220]	; (100005ac <main+0x14c>)
100004ce:	4b38      	ldr	r3, [pc, #224]	; (100005b0 <main+0x150>)
	callback->pin_mask = pin_mask;
100004d0:	608e      	str	r6, [r1, #8]
	callback->handler = handler;
100004d2:	604b      	str	r3, [r1, #4]
				    struct gpio_callback *callback)
{
	const struct gpio_driver_api *api =
		(const struct gpio_driver_api *)port->api;

	if (api->manage_callback == NULL) {
100004d4:	69eb      	ldr	r3, [r5, #28]
100004d6:	2b00      	cmp	r3, #0
100004d8:	d002      	beq.n	100004e0 <main+0x80>
		return -ENOTSUP;
	}

	return api->manage_callback(port, callback, true);
100004da:	2201      	movs	r2, #1
100004dc:	0020      	movs	r0, r4
100004de:	4798      	blx	r3
	printk("Set up button at %s pin %d\n", button.port->name, button.pin);
100004e0:	4834      	ldr	r0, [pc, #208]	; (100005b4 <main+0x154>)
100004e2:	2206      	movs	r2, #6
100004e4:	0039      	movs	r1, r7
100004e6:	f001 ff97 	bl	10002418 <printk>
	if (led.port && !device_is_ready(led.port)) {
100004ea:	4d33      	ldr	r5, [pc, #204]	; (100005b8 <main+0x158>)
100004ec:	6828      	ldr	r0, [r5, #0]
100004ee:	2800      	cmp	r0, #0
100004f0:	d00a      	beq.n	10000508 <main+0xa8>
100004f2:	f002 fb04 	bl	10002afe <z_device_is_ready>
		       ret, led.port->name);
100004f6:	682b      	ldr	r3, [r5, #0]
100004f8:	1e06      	subs	r6, r0, #0
	if (led.port && !device_is_ready(led.port)) {
100004fa:	d123      	bne.n	10000544 <main+0xe4>
		printk("Error %d: LED device %s is not ready; ignoring it\n",
100004fc:	0031      	movs	r1, r6
100004fe:	482f      	ldr	r0, [pc, #188]	; (100005bc <main+0x15c>)
10000500:	681a      	ldr	r2, [r3, #0]
10000502:	f001 ff89 	bl	10002418 <printk>
		led.port = NULL;
10000506:	602e      	str	r6, [r5, #0]
	printk("Press the button\n");
10000508:	482d      	ldr	r0, [pc, #180]	; (100005c0 <main+0x160>)
1000050a:	f001 ff85 	bl	10002418 <printk>
	if (led.port) {
1000050e:	682b      	ldr	r3, [r5, #0]
10000510:	2b00      	cmp	r3, #0
10000512:	d0b0      	beq.n	10000476 <main+0x16>
	if (data->invert & (gpio_port_pins_t)BIT(pin)) {
10000514:	2601      	movs	r6, #1
	const struct gpio_driver_data *const data =
10000516:	6927      	ldr	r7, [r4, #16]
	return api->port_get_raw(port, value);
10000518:	68a3      	ldr	r3, [r4, #8]
1000051a:	0020      	movs	r0, r4
1000051c:	685b      	ldr	r3, [r3, #4]
1000051e:	a901      	add	r1, sp, #4
10000520:	4798      	blx	r3
10000522:	1e03      	subs	r3, r0, #0
	if (ret == 0) {
10000524:	d027      	beq.n	10000576 <main+0x116>
			if (val >= 0) {
10000526:	2800      	cmp	r0, #0
10000528:	db30      	blt.n	1000058c <main+0x12c>
	if (data->invert & (gpio_port_pins_t)BIT(pin)) {
1000052a:	0031      	movs	r1, r6
1000052c:	792a      	ldrb	r2, [r5, #4]
	return gpio_pin_set(spec->port, spec->pin, value);
1000052e:	6828      	ldr	r0, [r5, #0]
	if (data->invert & (gpio_port_pins_t)BIT(pin)) {
10000530:	4091      	lsls	r1, r2
10000532:	6902      	ldr	r2, [r0, #16]
10000534:	6812      	ldr	r2, [r2, #0]
10000536:	420a      	tst	r2, r1
10000538:	d023      	beq.n	10000582 <main+0x122>
	if (value != 0)	{
1000053a:	2b00      	cmp	r3, #0
1000053c:	d023      	beq.n	10000586 <main+0x126>
	return api->port_clear_bits_raw(port, pins);
1000053e:	6883      	ldr	r3, [r0, #8]
10000540:	691b      	ldr	r3, [r3, #16]
10000542:	e022      	b.n	1000058a <main+0x12a>
	if (led.port) {
10000544:	2b00      	cmp	r3, #0
10000546:	d0df      	beq.n	10000508 <main+0xa8>
		ret = gpio_pin_configure_dt(&led, GPIO_OUTPUT);
10000548:	2180      	movs	r1, #128	; 0x80
1000054a:	0028      	movs	r0, r5
1000054c:	0289      	lsls	r1, r1, #10
1000054e:	f001 ff48 	bl	100023e2 <gpio_pin_configure_dt>
10000552:	792b      	ldrb	r3, [r5, #4]
10000554:	1e01      	subs	r1, r0, #0
		if (ret != 0) {
10000556:	d007      	beq.n	10000568 <main+0x108>
			       ret, led.port->name, led.pin);
10000558:	682a      	ldr	r2, [r5, #0]
			printk("Error %d: failed to configure LED device %s pin %d\n",
1000055a:	481a      	ldr	r0, [pc, #104]	; (100005c4 <main+0x164>)
1000055c:	6812      	ldr	r2, [r2, #0]
1000055e:	f001 ff5b 	bl	10002418 <printk>
			led.port = NULL;
10000562:	2300      	movs	r3, #0
10000564:	602b      	str	r3, [r5, #0]
10000566:	e7cf      	b.n	10000508 <main+0xa8>
			printk("Set up LED at %s pin %d\n", led.port->name, led.pin);
10000568:	6829      	ldr	r1, [r5, #0]
1000056a:	001a      	movs	r2, r3
1000056c:	4816      	ldr	r0, [pc, #88]	; (100005c8 <main+0x168>)
1000056e:	6809      	ldr	r1, [r1, #0]
10000570:	f001 ff52 	bl	10002418 <printk>
10000574:	e7c8      	b.n	10000508 <main+0xa8>
		*value ^= data->invert;
10000576:	9b01      	ldr	r3, [sp, #4]
10000578:	683a      	ldr	r2, [r7, #0]
1000057a:	4053      	eors	r3, r2
		ret = (value & (gpio_port_pins_t)BIT(pin)) != 0 ? 1 : 0;
1000057c:	099b      	lsrs	r3, r3, #6
1000057e:	4033      	ands	r3, r6
			if (val >= 0) {
10000580:	e7d3      	b.n	1000052a <main+0xca>
	if (value != 0)	{
10000582:	2b00      	cmp	r3, #0
10000584:	d0db      	beq.n	1000053e <main+0xde>
	return api->port_set_bits_raw(port, pins);
10000586:	6883      	ldr	r3, [r0, #8]
10000588:	68db      	ldr	r3, [r3, #12]
	return api->port_clear_bits_raw(port, pins);
1000058a:	4798      	blx	r3
		union { struct { uintptr_t lo, hi; } split; k_timeout_t val; } parm0 = { .val = timeout };
		return (int32_t) arch_syscall_invoke2(parm0.split.lo, parm0.split.hi, K_SYSCALL_K_SLEEP);
	}
#endif
	compiler_barrier();
	return z_impl_k_sleep(timeout);
1000058c:	2100      	movs	r1, #0
1000058e:	200a      	movs	r0, #10
10000590:	f001 fd4e 	bl	10002030 <z_impl_k_sleep>
 * @return Zero if the requested time has elapsed or the number of milliseconds
 * left to sleep, if thread was woken up by \ref k_wakeup call.
 */
static inline int32_t k_msleep(int32_t ms)
{
	return k_sleep(Z_TIMEOUT_MS(ms));
10000594:	e7bf      	b.n	10000516 <main+0xb6>
10000596:	46c0      	nop			; (mov r8, r8)
10000598:	10002cb8 	.word	0x10002cb8
1000059c:	10002ece 	.word	0x10002ece
100005a0:	10002dd0 	.word	0x10002dd0
100005a4:	10002ef4 	.word	0x10002ef4
100005a8:	10002f1d 	.word	0x10002f1d
100005ac:	20000130 	.word	0x20000130
100005b0:	10000449 	.word	0x10000449
100005b4:	10002f53 	.word	0x10002f53
100005b8:	20000000 	.word	0x20000000
100005bc:	10002f6f 	.word	0x10002f6f
100005c0:	10002fef 	.word	0x10002fef
100005c4:	10002fa2 	.word	0x10002fa2
100005c8:	10002fd6 	.word	0x10002fd6

100005cc <char_out>:

	return c;
}

static int char_out(int c, void *ctx_p)
{
100005cc:	b510      	push	{r4, lr}
	(void) ctx_p;
	return _char_out(c);
100005ce:	4b02      	ldr	r3, [pc, #8]	; (100005d8 <char_out+0xc>)
100005d0:	681b      	ldr	r3, [r3, #0]
100005d2:	4798      	blx	r3
}
100005d4:	bd10      	pop	{r4, pc}
100005d6:	46c0      	nop			; (mov r8, r8)
100005d8:	20000008 	.word	0x20000008

100005dc <__printk_hook_install>:
	_char_out = fn;
100005dc:	4b01      	ldr	r3, [pc, #4]	; (100005e4 <__printk_hook_install+0x8>)
100005de:	6018      	str	r0, [r3, #0]
}
100005e0:	4770      	bx	lr
100005e2:	46c0      	nop			; (mov r8, r8)
100005e4:	20000008 	.word	0x20000008

100005e8 <vprintk>:

void vprintk(const char *fmt, va_list ap)
{
100005e8:	b513      	push	{r0, r1, r4, lr}
100005ea:	000b      	movs	r3, r1
int cbvprintf(cbprintf_cb out, void *ctx, const char *format, va_list ap);
#else
static inline
int cbvprintf(cbprintf_cb out, void *ctx, const char *format, va_list ap)
{
	return z_cbvprintf_impl(out, ctx, format, ap, 0);
100005ec:	2100      	movs	r1, #0
100005ee:	4c03      	ldr	r4, [pc, #12]	; (100005fc <vprintk+0x14>)
100005f0:	0002      	movs	r2, r0
100005f2:	9100      	str	r1, [sp, #0]
100005f4:	0020      	movs	r0, r4
100005f6:	f000 f803 	bl	10000600 <z_cbvprintf_impl>

#ifdef CONFIG_PRINTK_SYNC
		k_spin_unlock(&lock, key);
#endif
	}
}
100005fa:	bd13      	pop	{r0, r1, r4, pc}
100005fc:	100005cd 	.word	0x100005cd

10000600 <z_cbvprintf_impl>:
	return (int)count;
}

int z_cbvprintf_impl(cbprintf_cb out, void *ctx, const char *fp,
		     va_list ap, uint32_t flags)
{
10000600:	b5f0      	push	{r4, r5, r6, r7, lr}
10000602:	001c      	movs	r4, r3
	char buf[CONVERTED_BUFLEN];
	size_t count = 0;
10000604:	2700      	movs	r7, #0
{
10000606:	b099      	sub	sp, #100	; 0x64
10000608:	9004      	str	r0, [sp, #16]
1000060a:	9105      	str	r1, [sp, #20]
1000060c:	9208      	str	r2, [sp, #32]
		return rc; \
	} \
	count += rc; \
} while (false)

	while (*fp != 0) {
1000060e:	9b08      	ldr	r3, [sp, #32]
10000610:	7818      	ldrb	r0, [r3, #0]
10000612:	2800      	cmp	r0, #0
10000614:	d101      	bne.n	1000061a <z_cbvprintf_impl+0x1a>
			OUTC(' ');
			--width;
		}
	}

	return count;
10000616:	0038      	movs	r0, r7
10000618:	e327      	b.n	10000c6a <z_cbvprintf_impl+0x66a>
			OUTC(*fp++);
1000061a:	9b08      	ldr	r3, [sp, #32]
1000061c:	3301      	adds	r3, #1
1000061e:	9307      	str	r3, [sp, #28]
		if (*fp != '%') {
10000620:	2825      	cmp	r0, #37	; 0x25
10000622:	d007      	beq.n	10000634 <z_cbvprintf_impl+0x34>
			OUTC('%');
10000624:	9905      	ldr	r1, [sp, #20]
10000626:	9b04      	ldr	r3, [sp, #16]
10000628:	4798      	blx	r3
1000062a:	2800      	cmp	r0, #0
1000062c:	da00      	bge.n	10000630 <z_cbvprintf_impl+0x30>
1000062e:	e31c      	b.n	10000c6a <z_cbvprintf_impl+0x66a>
10000630:	3701      	adds	r7, #1
		if (bps == NULL) {
10000632:	e1e3      	b.n	100009fc <z_cbvprintf_impl+0x3fc>
		} state = {
10000634:	ad12      	add	r5, sp, #72	; 0x48
10000636:	2218      	movs	r2, #24
10000638:	2100      	movs	r1, #0
1000063a:	0028      	movs	r0, r5
1000063c:	f001 ff97 	bl	1000256e <memset>
	if (*sp == '%') {
10000640:	9b08      	ldr	r3, [sp, #32]
10000642:	785b      	ldrb	r3, [r3, #1]
10000644:	2b25      	cmp	r3, #37	; 0x25
10000646:	d114      	bne.n	10000672 <z_cbvprintf_impl+0x72>
		conv->specifier = *sp++;
10000648:	9a08      	ldr	r2, [sp, #32]
1000064a:	72eb      	strb	r3, [r5, #11]
1000064c:	3202      	adds	r2, #2
1000064e:	9207      	str	r2, [sp, #28]
		if (conv->width_star) {
10000650:	ab12      	add	r3, sp, #72	; 0x48
10000652:	7a5a      	ldrb	r2, [r3, #9]
10000654:	07d1      	lsls	r1, r2, #31
10000656:	d400      	bmi.n	1000065a <z_cbvprintf_impl+0x5a>
10000658:	e17f      	b.n	1000095a <z_cbvprintf_impl+0x35a>
			width = va_arg(ap, int);
1000065a:	cc02      	ldmia	r4!, {r1}
1000065c:	9103      	str	r1, [sp, #12]
			if (width < 0) {
1000065e:	2900      	cmp	r1, #0
10000660:	db00      	blt.n	10000664 <z_cbvprintf_impl+0x64>
10000662:	e17f      	b.n	10000964 <z_cbvprintf_impl+0x364>
				conv->flag_dash = true;
10000664:	2104      	movs	r1, #4
10000666:	7a18      	ldrb	r0, [r3, #8]
10000668:	4301      	orrs	r1, r0
1000066a:	7219      	strb	r1, [r3, #8]
				width = -width;
1000066c:	9b03      	ldr	r3, [sp, #12]
		int width = -1;
1000066e:	425b      	negs	r3, r3
10000670:	e177      	b.n	10000962 <z_cbvprintf_impl+0x362>
10000672:	2200      	movs	r2, #0
		switch (*sp) {
10000674:	2601      	movs	r6, #1
10000676:	0015      	movs	r5, r2
10000678:	0010      	movs	r0, r2
1000067a:	4694      	mov	ip, r2
1000067c:	9203      	str	r2, [sp, #12]
1000067e:	9b07      	ldr	r3, [sp, #28]
10000680:	781b      	ldrb	r3, [r3, #0]
10000682:	2b2b      	cmp	r3, #43	; 0x2b
10000684:	d06f      	beq.n	10000766 <z_cbvprintf_impl+0x166>
10000686:	d868      	bhi.n	1000075a <z_cbvprintf_impl+0x15a>
10000688:	2b20      	cmp	r3, #32
1000068a:	d071      	beq.n	10000770 <z_cbvprintf_impl+0x170>
1000068c:	2b23      	cmp	r3, #35	; 0x23
1000068e:	d071      	beq.n	10000774 <z_cbvprintf_impl+0x174>
10000690:	2a00      	cmp	r2, #0
10000692:	d005      	beq.n	100006a0 <z_cbvprintf_impl+0xa0>
10000694:	ae12      	add	r6, sp, #72	; 0x48
10000696:	7a32      	ldrb	r2, [r6, #8]
10000698:	0011      	movs	r1, r2
1000069a:	2240      	movs	r2, #64	; 0x40
1000069c:	430a      	orrs	r2, r1
1000069e:	7232      	strb	r2, [r6, #8]
100006a0:	2d00      	cmp	r5, #0
100006a2:	d004      	beq.n	100006ae <z_cbvprintf_impl+0xae>
100006a4:	2220      	movs	r2, #32
100006a6:	ad12      	add	r5, sp, #72	; 0x48
100006a8:	7a2e      	ldrb	r6, [r5, #8]
100006aa:	4332      	orrs	r2, r6
100006ac:	722a      	strb	r2, [r5, #8]
100006ae:	2800      	cmp	r0, #0
100006b0:	d004      	beq.n	100006bc <z_cbvprintf_impl+0xbc>
100006b2:	2210      	movs	r2, #16
100006b4:	a812      	add	r0, sp, #72	; 0x48
100006b6:	7a05      	ldrb	r5, [r0, #8]
100006b8:	432a      	orrs	r2, r5
100006ba:	7202      	strb	r2, [r0, #8]
100006bc:	9a03      	ldr	r2, [sp, #12]
100006be:	2a00      	cmp	r2, #0
100006c0:	d004      	beq.n	100006cc <z_cbvprintf_impl+0xcc>
100006c2:	2208      	movs	r2, #8
100006c4:	a912      	add	r1, sp, #72	; 0x48
100006c6:	7a08      	ldrb	r0, [r1, #8]
100006c8:	4302      	orrs	r2, r0
100006ca:	720a      	strb	r2, [r1, #8]
100006cc:	4662      	mov	r2, ip
100006ce:	2a00      	cmp	r2, #0
100006d0:	d004      	beq.n	100006dc <z_cbvprintf_impl+0xdc>
100006d2:	2204      	movs	r2, #4
100006d4:	a912      	add	r1, sp, #72	; 0x48
100006d6:	7a08      	ldrb	r0, [r1, #8]
100006d8:	4302      	orrs	r2, r0
100006da:	720a      	strb	r2, [r1, #8]
	if (conv->flag_zero && conv->flag_dash) {
100006dc:	2144      	movs	r1, #68	; 0x44
100006de:	a812      	add	r0, sp, #72	; 0x48
100006e0:	7a02      	ldrb	r2, [r0, #8]
100006e2:	4011      	ands	r1, r2
100006e4:	2944      	cmp	r1, #68	; 0x44
100006e6:	d102      	bne.n	100006ee <z_cbvprintf_impl+0xee>
		conv->flag_zero = false;
100006e8:	2140      	movs	r1, #64	; 0x40
100006ea:	438a      	bics	r2, r1
100006ec:	7202      	strb	r2, [r0, #8]
	conv->width_present = true;
100006ee:	2280      	movs	r2, #128	; 0x80
100006f0:	7a01      	ldrb	r1, [r0, #8]
100006f2:	4252      	negs	r2, r2
100006f4:	430a      	orrs	r2, r1
100006f6:	7202      	strb	r2, [r0, #8]
	size_t val = 0;
100006f8:	2100      	movs	r1, #0
		val = 10U * val + *sp++ - '0';
100006fa:	250a      	movs	r5, #10
100006fc:	9a07      	ldr	r2, [sp, #28]
	if (*sp == '*') {
100006fe:	2b2a      	cmp	r3, #42	; 0x2a
10000700:	d140      	bne.n	10000784 <z_cbvprintf_impl+0x184>
		conv->width_star = true;
10000702:	7a41      	ldrb	r1, [r0, #9]
10000704:	3b29      	subs	r3, #41	; 0x29
10000706:	430b      	orrs	r3, r1
		return ++sp;
10000708:	3201      	adds	r2, #1
		conv->width_star = true;
1000070a:	7243      	strb	r3, [r0, #9]
	conv->prec_present = (*sp == '.');
1000070c:	7815      	ldrb	r5, [r2, #0]
1000070e:	2602      	movs	r6, #2
10000710:	0029      	movs	r1, r5
10000712:	392e      	subs	r1, #46	; 0x2e
10000714:	424b      	negs	r3, r1
10000716:	4159      	adcs	r1, r3
10000718:	a812      	add	r0, sp, #72	; 0x48
1000071a:	7a43      	ldrb	r3, [r0, #9]
1000071c:	0049      	lsls	r1, r1, #1
1000071e:	43b3      	bics	r3, r6
10000720:	430b      	orrs	r3, r1
10000722:	7243      	strb	r3, [r0, #9]
	if (!conv->prec_present) {
10000724:	2d2e      	cmp	r5, #46	; 0x2e
10000726:	d145      	bne.n	100007b4 <z_cbvprintf_impl+0x1b4>
	if (*sp == '*') {
10000728:	7853      	ldrb	r3, [r2, #1]
1000072a:	2b2a      	cmp	r3, #42	; 0x2a
1000072c:	d03d      	beq.n	100007aa <z_cbvprintf_impl+0x1aa>
	size_t val = 0;
1000072e:	2300      	movs	r3, #0
	++sp;
10000730:	3201      	adds	r2, #1
		val = 10U * val + *sp++ - '0';
10000732:	3608      	adds	r6, #8
			(((unsigned)c) <= (unsigned)'~'));
}

static inline int isdigit(int a)
{
	return (int)(((unsigned)(a)-(unsigned)'0') < 10U);
10000734:	7811      	ldrb	r1, [r2, #0]
10000736:	1c55      	adds	r5, r2, #1
10000738:	0008      	movs	r0, r1
1000073a:	3830      	subs	r0, #48	; 0x30
	while (isdigit((int)(unsigned char)*sp) != 0) {
1000073c:	2809      	cmp	r0, #9
1000073e:	d963      	bls.n	10000808 <z_cbvprintf_impl+0x208>
	conv->prec_value = prec;
10000740:	a912      	add	r1, sp, #72	; 0x48
10000742:	9316      	str	r3, [sp, #88]	; 0x58
	conv->unsupported |= ((conv->prec_value < 0)
10000744:	7a0d      	ldrb	r5, [r1, #8]
10000746:	07a8      	lsls	r0, r5, #30
10000748:	4318      	orrs	r0, r3
1000074a:	2302      	movs	r3, #2
1000074c:	439d      	bics	r5, r3
1000074e:	002b      	movs	r3, r5
10000750:	0fc0      	lsrs	r0, r0, #31
10000752:	0040      	lsls	r0, r0, #1
10000754:	4303      	orrs	r3, r0
10000756:	720b      	strb	r3, [r1, #8]
	return sp;
10000758:	e02c      	b.n	100007b4 <z_cbvprintf_impl+0x1b4>
		switch (*sp) {
1000075a:	2b2d      	cmp	r3, #45	; 0x2d
1000075c:	d00c      	beq.n	10000778 <z_cbvprintf_impl+0x178>
1000075e:	2b30      	cmp	r3, #48	; 0x30
10000760:	d196      	bne.n	10000690 <z_cbvprintf_impl+0x90>
10000762:	0032      	movs	r2, r6
10000764:	e000      	b.n	10000768 <z_cbvprintf_impl+0x168>
10000766:	9603      	str	r6, [sp, #12]
			++sp;
10000768:	9b07      	ldr	r3, [sp, #28]
1000076a:	3301      	adds	r3, #1
1000076c:	9307      	str	r3, [sp, #28]
	} while (loop);
1000076e:	e786      	b.n	1000067e <z_cbvprintf_impl+0x7e>
		switch (*sp) {
10000770:	0030      	movs	r0, r6
10000772:	e7f9      	b.n	10000768 <z_cbvprintf_impl+0x168>
10000774:	0035      	movs	r5, r6
10000776:	e7f7      	b.n	10000768 <z_cbvprintf_impl+0x168>
10000778:	46b4      	mov	ip, r6
1000077a:	e7f5      	b.n	10000768 <z_cbvprintf_impl+0x168>
		val = 10U * val + *sp++ - '0';
1000077c:	0032      	movs	r2, r6
1000077e:	4369      	muls	r1, r5
10000780:	3930      	subs	r1, #48	; 0x30
10000782:	1859      	adds	r1, r3, r1
10000784:	7813      	ldrb	r3, [r2, #0]
10000786:	1c56      	adds	r6, r2, #1
10000788:	0018      	movs	r0, r3
1000078a:	3830      	subs	r0, #48	; 0x30
	while (isdigit((int)(unsigned char)*sp) != 0) {
1000078c:	2809      	cmp	r0, #9
1000078e:	d9f5      	bls.n	1000077c <z_cbvprintf_impl+0x17c>
	if (sp != wp) {
10000790:	9b07      	ldr	r3, [sp, #28]
10000792:	4293      	cmp	r3, r2
10000794:	d0ba      	beq.n	1000070c <z_cbvprintf_impl+0x10c>
		conv->unsupported |= ((conv->width_value < 0)
10000796:	2502      	movs	r5, #2
		conv->width_value = width;
10000798:	ab12      	add	r3, sp, #72	; 0x48
		conv->unsupported |= ((conv->width_value < 0)
1000079a:	7a18      	ldrb	r0, [r3, #8]
		conv->width_value = width;
1000079c:	9115      	str	r1, [sp, #84]	; 0x54
		conv->unsupported |= ((conv->width_value < 0)
1000079e:	0fc9      	lsrs	r1, r1, #31
100007a0:	0049      	lsls	r1, r1, #1
100007a2:	43a8      	bics	r0, r5
100007a4:	4301      	orrs	r1, r0
100007a6:	7219      	strb	r1, [r3, #8]
100007a8:	e7b0      	b.n	1000070c <z_cbvprintf_impl+0x10c>
		conv->prec_star = true;
100007aa:	2304      	movs	r3, #4
100007ac:	7a41      	ldrb	r1, [r0, #9]
		return ++sp;
100007ae:	3202      	adds	r2, #2
		conv->prec_star = true;
100007b0:	430b      	orrs	r3, r1
100007b2:	7243      	strb	r3, [r0, #9]
	switch (*sp) {
100007b4:	7811      	ldrb	r1, [r2, #0]
100007b6:	ab12      	add	r3, sp, #72	; 0x48
100007b8:	296c      	cmp	r1, #108	; 0x6c
100007ba:	d045      	beq.n	10000848 <z_cbvprintf_impl+0x248>
100007bc:	d829      	bhi.n	10000812 <z_cbvprintf_impl+0x212>
100007be:	2968      	cmp	r1, #104	; 0x68
100007c0:	d030      	beq.n	10000824 <z_cbvprintf_impl+0x224>
100007c2:	296a      	cmp	r1, #106	; 0x6a
100007c4:	d04c      	beq.n	10000860 <z_cbvprintf_impl+0x260>
100007c6:	294c      	cmp	r1, #76	; 0x4c
100007c8:	d054      	beq.n	10000874 <z_cbvprintf_impl+0x274>
	conv->specifier = *sp++;
100007ca:	7811      	ldrb	r1, [r2, #0]
100007cc:	1c53      	adds	r3, r2, #1
100007ce:	aa12      	add	r2, sp, #72	; 0x48
100007d0:	9307      	str	r3, [sp, #28]
100007d2:	72d1      	strb	r1, [r2, #11]
		if (conv->length_mod == LENGTH_UPPER_L) {
100007d4:	7a53      	ldrb	r3, [r2, #9]
	switch (conv->specifier) {
100007d6:	2978      	cmp	r1, #120	; 0x78
100007d8:	d900      	bls.n	100007dc <z_cbvprintf_impl+0x1dc>
100007da:	e0b9      	b.n	10000950 <z_cbvprintf_impl+0x350>
100007dc:	296d      	cmp	r1, #109	; 0x6d
100007de:	d850      	bhi.n	10000882 <z_cbvprintf_impl+0x282>
100007e0:	2969      	cmp	r1, #105	; 0x69
100007e2:	d900      	bls.n	100007e6 <z_cbvprintf_impl+0x1e6>
100007e4:	e0b4      	b.n	10000950 <z_cbvprintf_impl+0x350>
100007e6:	2957      	cmp	r1, #87	; 0x57
100007e8:	d866      	bhi.n	100008b8 <z_cbvprintf_impl+0x2b8>
100007ea:	2941      	cmp	r1, #65	; 0x41
100007ec:	d003      	beq.n	100007f6 <z_cbvprintf_impl+0x1f6>
100007ee:	3945      	subs	r1, #69	; 0x45
100007f0:	2902      	cmp	r1, #2
100007f2:	d900      	bls.n	100007f6 <z_cbvprintf_impl+0x1f6>
100007f4:	e0ac      	b.n	10000950 <z_cbvprintf_impl+0x350>
		conv->specifier_cat = SPECIFIER_FP;
100007f6:	2307      	movs	r3, #7
100007f8:	a912      	add	r1, sp, #72	; 0x48
100007fa:	7a8a      	ldrb	r2, [r1, #10]
100007fc:	439a      	bics	r2, r3
100007fe:	3b03      	subs	r3, #3
10000800:	4313      	orrs	r3, r2
10000802:	728b      	strb	r3, [r1, #10]
			unsupported = true;
10000804:	2301      	movs	r3, #1
			break;
10000806:	e073      	b.n	100008f0 <z_cbvprintf_impl+0x2f0>
		val = 10U * val + *sp++ - '0';
10000808:	4373      	muls	r3, r6
1000080a:	3b30      	subs	r3, #48	; 0x30
1000080c:	002a      	movs	r2, r5
1000080e:	185b      	adds	r3, r3, r1
10000810:	e790      	b.n	10000734 <z_cbvprintf_impl+0x134>
	switch (*sp) {
10000812:	2974      	cmp	r1, #116	; 0x74
10000814:	d029      	beq.n	1000086a <z_cbvprintf_impl+0x26a>
10000816:	297a      	cmp	r1, #122	; 0x7a
10000818:	d1d7      	bne.n	100007ca <z_cbvprintf_impl+0x1ca>
		conv->length_mod = LENGTH_Z;
1000081a:	2178      	movs	r1, #120	; 0x78
1000081c:	7a58      	ldrb	r0, [r3, #9]
1000081e:	4388      	bics	r0, r1
10000820:	3948      	subs	r1, #72	; 0x48
10000822:	e00d      	b.n	10000840 <z_cbvprintf_impl+0x240>
		if (*++sp == 'h') {
10000824:	7850      	ldrb	r0, [r2, #1]
10000826:	2178      	movs	r1, #120	; 0x78
10000828:	2868      	cmp	r0, #104	; 0x68
1000082a:	d106      	bne.n	1000083a <z_cbvprintf_impl+0x23a>
			conv->length_mod = LENGTH_HH;
1000082c:	7a58      	ldrb	r0, [r3, #9]
1000082e:	4388      	bics	r0, r1
10000830:	3970      	subs	r1, #112	; 0x70
			conv->length_mod = LENGTH_LL;
10000832:	4301      	orrs	r1, r0
10000834:	7259      	strb	r1, [r3, #9]
			++sp;
10000836:	3202      	adds	r2, #2
10000838:	e7c7      	b.n	100007ca <z_cbvprintf_impl+0x1ca>
			conv->length_mod = LENGTH_H;
1000083a:	7a58      	ldrb	r0, [r3, #9]
1000083c:	4388      	bics	r0, r1
1000083e:	2110      	movs	r1, #16
10000840:	4301      	orrs	r1, r0
10000842:	7259      	strb	r1, [r3, #9]
		if (*++sp == 'h') {
10000844:	3201      	adds	r2, #1
10000846:	e7c0      	b.n	100007ca <z_cbvprintf_impl+0x1ca>
		if (*++sp == 'l') {
10000848:	7850      	ldrb	r0, [r2, #1]
1000084a:	2178      	movs	r1, #120	; 0x78
1000084c:	286c      	cmp	r0, #108	; 0x6c
1000084e:	d103      	bne.n	10000858 <z_cbvprintf_impl+0x258>
			conv->length_mod = LENGTH_LL;
10000850:	7a58      	ldrb	r0, [r3, #9]
10000852:	4388      	bics	r0, r1
10000854:	3958      	subs	r1, #88	; 0x58
10000856:	e7ec      	b.n	10000832 <z_cbvprintf_impl+0x232>
			conv->length_mod = LENGTH_L;
10000858:	7a58      	ldrb	r0, [r3, #9]
1000085a:	4388      	bics	r0, r1
1000085c:	2118      	movs	r1, #24
1000085e:	e7ef      	b.n	10000840 <z_cbvprintf_impl+0x240>
		conv->length_mod = LENGTH_J;
10000860:	2178      	movs	r1, #120	; 0x78
10000862:	7a58      	ldrb	r0, [r3, #9]
10000864:	4388      	bics	r0, r1
10000866:	3950      	subs	r1, #80	; 0x50
10000868:	e7ea      	b.n	10000840 <z_cbvprintf_impl+0x240>
		conv->length_mod = LENGTH_T;
1000086a:	2178      	movs	r1, #120	; 0x78
1000086c:	7a58      	ldrb	r0, [r3, #9]
1000086e:	4388      	bics	r0, r1
10000870:	3940      	subs	r1, #64	; 0x40
10000872:	e7e5      	b.n	10000840 <z_cbvprintf_impl+0x240>
		conv->unsupported = true;
10000874:	8918      	ldrh	r0, [r3, #8]
10000876:	49a5      	ldr	r1, [pc, #660]	; (10000b0c <z_cbvprintf_impl+0x50c>)
10000878:	4008      	ands	r0, r1
1000087a:	49a5      	ldr	r1, [pc, #660]	; (10000b10 <z_cbvprintf_impl+0x510>)
1000087c:	4301      	orrs	r1, r0
1000087e:	8119      	strh	r1, [r3, #8]
		break;
10000880:	e7e0      	b.n	10000844 <z_cbvprintf_impl+0x244>
10000882:	2001      	movs	r0, #1
10000884:	0005      	movs	r5, r0
	switch (conv->specifier) {
10000886:	396e      	subs	r1, #110	; 0x6e
10000888:	b2c9      	uxtb	r1, r1
1000088a:	408d      	lsls	r5, r1
1000088c:	0029      	movs	r1, r5
1000088e:	4da1      	ldr	r5, [pc, #644]	; (10000b14 <z_cbvprintf_impl+0x514>)
10000890:	4229      	tst	r1, r5
10000892:	d138      	bne.n	10000906 <z_cbvprintf_impl+0x306>
10000894:	2524      	movs	r5, #36	; 0x24
10000896:	4229      	tst	r1, r5
10000898:	d151      	bne.n	1000093e <z_cbvprintf_impl+0x33e>
1000089a:	4201      	tst	r1, r0
1000089c:	d058      	beq.n	10000950 <z_cbvprintf_impl+0x350>
		conv->specifier_cat = SPECIFIER_PTR;
1000089e:	2107      	movs	r1, #7
100008a0:	7a90      	ldrb	r0, [r2, #10]
100008a2:	4388      	bics	r0, r1
100008a4:	3904      	subs	r1, #4
100008a6:	4301      	orrs	r1, r0
100008a8:	7291      	strb	r1, [r2, #10]
		if (conv->length_mod == LENGTH_UPPER_L) {
100008aa:	2278      	movs	r2, #120	; 0x78
100008ac:	4013      	ands	r3, r2
100008ae:	3b40      	subs	r3, #64	; 0x40
100008b0:	425a      	negs	r2, r3
100008b2:	4153      	adcs	r3, r2
		if (conv->length_mod != LENGTH_NONE) {
100008b4:	b2db      	uxtb	r3, r3
100008b6:	e01b      	b.n	100008f0 <z_cbvprintf_impl+0x2f0>
100008b8:	2001      	movs	r0, #1
	switch (conv->specifier) {
100008ba:	000d      	movs	r5, r1
100008bc:	0006      	movs	r6, r0
100008be:	3d58      	subs	r5, #88	; 0x58
100008c0:	b2ed      	uxtb	r5, r5
100008c2:	40ae      	lsls	r6, r5
100008c4:	0035      	movs	r5, r6
100008c6:	26e2      	movs	r6, #226	; 0xe2
100008c8:	0236      	lsls	r6, r6, #8
100008ca:	4235      	tst	r5, r6
100008cc:	d193      	bne.n	100007f6 <z_cbvprintf_impl+0x1f6>
100008ce:	4e92      	ldr	r6, [pc, #584]	; (10000b18 <z_cbvprintf_impl+0x518>)
100008d0:	4235      	tst	r5, r6
100008d2:	d122      	bne.n	1000091a <z_cbvprintf_impl+0x31a>
100008d4:	2184      	movs	r1, #132	; 0x84
100008d6:	0289      	lsls	r1, r1, #10
100008d8:	420d      	tst	r5, r1
100008da:	d039      	beq.n	10000950 <z_cbvprintf_impl+0x350>
		conv->specifier_cat = SPECIFIER_SINT;
100008dc:	2507      	movs	r5, #7
100008de:	7a91      	ldrb	r1, [r2, #10]
100008e0:	43a9      	bics	r1, r5
100008e2:	4301      	orrs	r1, r0
100008e4:	7291      	strb	r1, [r2, #10]
		if (conv->length_mod == LENGTH_UPPER_L) {
100008e6:	2178      	movs	r1, #120	; 0x78
100008e8:	400b      	ands	r3, r1
100008ea:	2b40      	cmp	r3, #64	; 0x40
100008ec:	d011      	beq.n	10000912 <z_cbvprintf_impl+0x312>
	bool unsupported = false;
100008ee:	2300      	movs	r3, #0
	conv->unsupported |= unsupported;
100008f0:	aa12      	add	r2, sp, #72	; 0x48
100008f2:	7a11      	ldrb	r1, [r2, #8]
100008f4:	0788      	lsls	r0, r1, #30
100008f6:	0fc0      	lsrs	r0, r0, #31
100008f8:	4303      	orrs	r3, r0
100008fa:	2002      	movs	r0, #2
100008fc:	005b      	lsls	r3, r3, #1
100008fe:	4381      	bics	r1, r0
10000900:	4319      	orrs	r1, r3
10000902:	7211      	strb	r1, [r2, #8]
	return sp;
10000904:	e6a4      	b.n	10000650 <z_cbvprintf_impl+0x50>
		conv->specifier_cat = SPECIFIER_UINT;
10000906:	2107      	movs	r1, #7
10000908:	7a95      	ldrb	r5, [r2, #10]
1000090a:	438d      	bics	r5, r1
1000090c:	3905      	subs	r1, #5
1000090e:	4329      	orrs	r1, r5
10000910:	e7e8      	b.n	100008e4 <z_cbvprintf_impl+0x2e4>
			conv->invalid = true;
10000912:	7a13      	ldrb	r3, [r2, #8]
10000914:	4303      	orrs	r3, r0
		conv->invalid = true;
10000916:	7213      	strb	r3, [r2, #8]
		break;
10000918:	e7e9      	b.n	100008ee <z_cbvprintf_impl+0x2ee>
		conv->specifier_cat = SPECIFIER_UINT;
1000091a:	2507      	movs	r5, #7
1000091c:	7a96      	ldrb	r6, [r2, #10]
1000091e:	43ae      	bics	r6, r5
10000920:	3d05      	subs	r5, #5
10000922:	4335      	orrs	r5, r6
10000924:	7295      	strb	r5, [r2, #10]
		if (conv->length_mod == LENGTH_UPPER_L) {
10000926:	2578      	movs	r5, #120	; 0x78
10000928:	402b      	ands	r3, r5
1000092a:	2b40      	cmp	r3, #64	; 0x40
1000092c:	d102      	bne.n	10000934 <z_cbvprintf_impl+0x334>
			conv->invalid = true;
1000092e:	7a15      	ldrb	r5, [r2, #8]
10000930:	4328      	orrs	r0, r5
10000932:	7210      	strb	r0, [r2, #8]
		if (conv->specifier == 'c') {
10000934:	2963      	cmp	r1, #99	; 0x63
10000936:	d1da      	bne.n	100008ee <z_cbvprintf_impl+0x2ee>
		if (conv->length_mod != LENGTH_NONE) {
10000938:	1e5a      	subs	r2, r3, #1
1000093a:	4193      	sbcs	r3, r2
1000093c:	e7ba      	b.n	100008b4 <z_cbvprintf_impl+0x2b4>
		conv->specifier_cat = SPECIFIER_PTR;
1000093e:	2107      	movs	r1, #7
10000940:	7a90      	ldrb	r0, [r2, #10]
10000942:	4388      	bics	r0, r1
10000944:	3904      	subs	r1, #4
10000946:	4301      	orrs	r1, r0
10000948:	7291      	strb	r1, [r2, #10]
		if (conv->length_mod != LENGTH_NONE) {
1000094a:	2278      	movs	r2, #120	; 0x78
1000094c:	4013      	ands	r3, r2
1000094e:	e7f3      	b.n	10000938 <z_cbvprintf_impl+0x338>
		conv->invalid = true;
10000950:	2301      	movs	r3, #1
10000952:	aa12      	add	r2, sp, #72	; 0x48
10000954:	7a11      	ldrb	r1, [r2, #8]
10000956:	430b      	orrs	r3, r1
10000958:	e7dd      	b.n	10000916 <z_cbvprintf_impl+0x316>
		} else if (conv->width_present) {
1000095a:	7a19      	ldrb	r1, [r3, #8]
1000095c:	297f      	cmp	r1, #127	; 0x7f
1000095e:	d90f      	bls.n	10000980 <z_cbvprintf_impl+0x380>
			width = conv->width_value;
10000960:	68db      	ldr	r3, [r3, #12]
		int width = -1;
10000962:	9303      	str	r3, [sp, #12]
		if (conv->prec_star) {
10000964:	ab12      	add	r3, sp, #72	; 0x48
10000966:	0751      	lsls	r1, r2, #29
10000968:	d50c      	bpl.n	10000984 <z_cbvprintf_impl+0x384>
			int arg = va_arg(ap, int);
1000096a:	cc04      	ldmia	r4!, {r2}
1000096c:	9206      	str	r2, [sp, #24]
			if (arg < 0) {
1000096e:	2a00      	cmp	r2, #0
10000970:	da0c      	bge.n	1000098c <z_cbvprintf_impl+0x38c>
				conv->prec_present = false;
10000972:	2102      	movs	r1, #2
10000974:	7a5a      	ldrb	r2, [r3, #9]
10000976:	438a      	bics	r2, r1
10000978:	725a      	strb	r2, [r3, #9]
		int precision = -1;
1000097a:	2301      	movs	r3, #1
1000097c:	425b      	negs	r3, r3
1000097e:	e004      	b.n	1000098a <z_cbvprintf_impl+0x38a>
		int width = -1;
10000980:	2301      	movs	r3, #1
10000982:	e674      	b.n	1000066e <z_cbvprintf_impl+0x6e>
		} else if (conv->prec_present) {
10000984:	0792      	lsls	r2, r2, #30
10000986:	d5f8      	bpl.n	1000097a <z_cbvprintf_impl+0x37a>
			precision = conv->prec_value;
10000988:	691b      	ldr	r3, [r3, #16]
		int precision = -1;
1000098a:	9306      	str	r3, [sp, #24]
		conv->pad0_value = 0;
1000098c:	2500      	movs	r5, #0
1000098e:	a912      	add	r1, sp, #72	; 0x48
			= (enum specifier_cat_enum)conv->specifier_cat;
10000990:	7a8b      	ldrb	r3, [r1, #10]
			= (enum length_mod_enum)conv->length_mod;
10000992:	7a4a      	ldrb	r2, [r1, #9]
			= (enum specifier_cat_enum)conv->specifier_cat;
10000994:	075b      	lsls	r3, r3, #29
			= (enum length_mod_enum)conv->length_mod;
10000996:	0652      	lsls	r2, r2, #25
		enum specifier_cat_enum specifier_cat
10000998:	0f5b      	lsrs	r3, r3, #29
			= (enum length_mod_enum)conv->length_mod;
1000099a:	0f12      	lsrs	r2, r2, #28
		conv->pad0_value = 0;
1000099c:	60cd      	str	r5, [r1, #12]
		conv->pad0_pre_exp = 0;
1000099e:	610d      	str	r5, [r1, #16]
		if (specifier_cat == SPECIFIER_SINT) {
100009a0:	2b01      	cmp	r3, #1
100009a2:	d130      	bne.n	10000a06 <z_cbvprintf_impl+0x406>
			switch (length_mod) {
100009a4:	1ed0      	subs	r0, r2, #3
100009a6:	2804      	cmp	r0, #4
100009a8:	d804      	bhi.n	100009b4 <z_cbvprintf_impl+0x3b4>
100009aa:	f7ff fbfd 	bl	100001a8 <__gnu_thumb1_case_uqi>
100009ae:	450e      	.short	0x450e
100009b0:	0e45      	.short	0x0e45
100009b2:	0e          	.byte	0x0e
100009b3:	00          	.byte	0x00
				value->sint = va_arg(ap, int);
100009b4:	6823      	ldr	r3, [r4, #0]
100009b6:	17d8      	asrs	r0, r3, #31
100009b8:	9312      	str	r3, [sp, #72]	; 0x48
100009ba:	6048      	str	r0, [r1, #4]
			if (length_mod == LENGTH_HH) {
100009bc:	2a01      	cmp	r2, #1
100009be:	d109      	bne.n	100009d4 <z_cbvprintf_impl+0x3d4>
				value->sint = (signed char)value->sint;
100009c0:	b25b      	sxtb	r3, r3
				value->sint = (short)value->sint;
100009c2:	9312      	str	r3, [sp, #72]	; 0x48
100009c4:	17db      	asrs	r3, r3, #31
100009c6:	604b      	str	r3, [r1, #4]
100009c8:	e006      	b.n	100009d8 <z_cbvprintf_impl+0x3d8>
					(sint_value_type)va_arg(ap, ptrdiff_t);
100009ca:	cc08      	ldmia	r4!, {r3}
100009cc:	9312      	str	r3, [sp, #72]	; 0x48
100009ce:	17db      	asrs	r3, r3, #31
					(uint_value_type)va_arg(ap, size_t);
100009d0:	604b      	str	r3, [r1, #4]
			} else if (length_mod == LENGTH_H) {
100009d2:	e002      	b.n	100009da <z_cbvprintf_impl+0x3da>
			} else if (length_mod == LENGTH_H) {
100009d4:	2a02      	cmp	r2, #2
100009d6:	d014      	beq.n	10000a02 <z_cbvprintf_impl+0x402>
				value->sint = va_arg(ap, int);
100009d8:	3404      	adds	r4, #4
		if (conv->invalid || conv->unsupported) {
100009da:	a912      	add	r1, sp, #72	; 0x48
100009dc:	7a0b      	ldrb	r3, [r1, #8]
100009de:	2003      	movs	r0, #3
100009e0:	001d      	movs	r5, r3
100009e2:	4005      	ands	r5, r0
100009e4:	4203      	tst	r3, r0
100009e6:	d045      	beq.n	10000a74 <z_cbvprintf_impl+0x474>
			OUTS(sp, fp);
100009e8:	9b07      	ldr	r3, [sp, #28]
100009ea:	9a08      	ldr	r2, [sp, #32]
100009ec:	9905      	ldr	r1, [sp, #20]
100009ee:	9804      	ldr	r0, [sp, #16]
100009f0:	f001 fd74 	bl	100024dc <outs>
100009f4:	2800      	cmp	r0, #0
100009f6:	da00      	bge.n	100009fa <z_cbvprintf_impl+0x3fa>
100009f8:	e137      	b.n	10000c6a <z_cbvprintf_impl+0x66a>
100009fa:	183f      	adds	r7, r7, r0
			continue;
100009fc:	9b07      	ldr	r3, [sp, #28]
100009fe:	9308      	str	r3, [sp, #32]
10000a00:	e605      	b.n	1000060e <z_cbvprintf_impl+0xe>
				value->sint = (short)value->sint;
10000a02:	b21b      	sxth	r3, r3
10000a04:	e7dd      	b.n	100009c2 <z_cbvprintf_impl+0x3c2>
		} else if (specifier_cat == SPECIFIER_UINT) {
10000a06:	2b02      	cmp	r3, #2
10000a08:	d125      	bne.n	10000a56 <z_cbvprintf_impl+0x456>
			switch (length_mod) {
10000a0a:	1ed0      	subs	r0, r2, #3
10000a0c:	2804      	cmp	r0, #4
10000a0e:	d804      	bhi.n	10000a1a <z_cbvprintf_impl+0x41a>
10000a10:	f7ff fbca 	bl	100001a8 <__gnu_thumb1_case_uqi>
10000a14:	1912120d 	.word	0x1912120d
10000a18:	19          	.byte	0x19
10000a19:	00          	.byte	0x00
				value->uint = va_arg(ap, unsigned int);
10000a1a:	cc08      	ldmia	r4!, {r3}
			if (length_mod == LENGTH_HH) {
10000a1c:	2a01      	cmp	r2, #1
10000a1e:	d016      	beq.n	10000a4e <z_cbvprintf_impl+0x44e>
				value->uint = va_arg(ap, unsigned int);
10000a20:	9312      	str	r3, [sp, #72]	; 0x48
10000a22:	604d      	str	r5, [r1, #4]
				value->uint = (unsigned short)value->uint;
10000a24:	b29b      	uxth	r3, r3
			} else if (length_mod == LENGTH_H) {
10000a26:	2a02      	cmp	r2, #2
10000a28:	d1d7      	bne.n	100009da <z_cbvprintf_impl+0x3da>
			value->ptr = va_arg(ap, void *);
10000a2a:	9312      	str	r3, [sp, #72]	; 0x48
10000a2c:	e7d5      	b.n	100009da <z_cbvprintf_impl+0x3da>
					value->uint = (wchar_t)va_arg(ap,
10000a2e:	cc08      	ldmia	r4!, {r3}
10000a30:	9312      	str	r3, [sp, #72]	; 0x48
10000a32:	2300      	movs	r3, #0
10000a34:	9313      	str	r3, [sp, #76]	; 0x4c
10000a36:	e7d0      	b.n	100009da <z_cbvprintf_impl+0x3da>
					(uint_value_type)va_arg(ap,
10000a38:	2307      	movs	r3, #7
10000a3a:	3407      	adds	r4, #7
10000a3c:	439c      	bics	r4, r3
				value->uint =
10000a3e:	cc03      	ldmia	r4!, {r0, r1}
10000a40:	9012      	str	r0, [sp, #72]	; 0x48
10000a42:	9113      	str	r1, [sp, #76]	; 0x4c
			if (length_mod == LENGTH_HH) {
10000a44:	e7c9      	b.n	100009da <z_cbvprintf_impl+0x3da>
					(uint_value_type)va_arg(ap, size_t);
10000a46:	cc08      	ldmia	r4!, {r3}
10000a48:	9312      	str	r3, [sp, #72]	; 0x48
10000a4a:	2300      	movs	r3, #0
10000a4c:	e7c0      	b.n	100009d0 <z_cbvprintf_impl+0x3d0>
				value->uint = (unsigned char)value->uint;
10000a4e:	b2db      	uxtb	r3, r3
10000a50:	9312      	str	r3, [sp, #72]	; 0x48
10000a52:	604d      	str	r5, [r1, #4]
10000a54:	e7c1      	b.n	100009da <z_cbvprintf_impl+0x3da>
		} else if (specifier_cat == SPECIFIER_FP) {
10000a56:	2b04      	cmp	r3, #4
10000a58:	d108      	bne.n	10000a6c <z_cbvprintf_impl+0x46c>
					(sint_value_type)va_arg(ap, long long);
10000a5a:	3407      	adds	r4, #7
				value->ldbl = va_arg(ap, long double);
10000a5c:	3303      	adds	r3, #3
10000a5e:	439c      	bics	r4, r3
10000a60:	6820      	ldr	r0, [r4, #0]
10000a62:	6861      	ldr	r1, [r4, #4]
10000a64:	3408      	adds	r4, #8
10000a66:	9012      	str	r0, [sp, #72]	; 0x48
10000a68:	9113      	str	r1, [sp, #76]	; 0x4c
10000a6a:	e7b6      	b.n	100009da <z_cbvprintf_impl+0x3da>
		} else if (specifier_cat == SPECIFIER_PTR) {
10000a6c:	2b03      	cmp	r3, #3
10000a6e:	d1b4      	bne.n	100009da <z_cbvprintf_impl+0x3da>
			value->ptr = va_arg(ap, void *);
10000a70:	cc08      	ldmia	r4!, {r3}
10000a72:	e7da      	b.n	10000a2a <z_cbvprintf_impl+0x42a>
		switch (conv->specifier) {
10000a74:	7ac8      	ldrb	r0, [r1, #11]
10000a76:	2878      	cmp	r0, #120	; 0x78
10000a78:	d8c0      	bhi.n	100009fc <z_cbvprintf_impl+0x3fc>
10000a7a:	2862      	cmp	r0, #98	; 0x62
10000a7c:	d82b      	bhi.n	10000ad6 <z_cbvprintf_impl+0x4d6>
10000a7e:	2825      	cmp	r0, #37	; 0x25
10000a80:	d100      	bne.n	10000a84 <z_cbvprintf_impl+0x484>
10000a82:	e5cf      	b.n	10000624 <z_cbvprintf_impl+0x24>
10000a84:	2858      	cmp	r0, #88	; 0x58
10000a86:	d1b9      	bne.n	100009fc <z_cbvprintf_impl+0x3fc>
			bps = encode_uint(value->uint, conv, buf, bpe);
10000a88:	9812      	ldr	r0, [sp, #72]	; 0x48
10000a8a:	9913      	ldr	r1, [sp, #76]	; 0x4c
10000a8c:	231e      	movs	r3, #30
10000a8e:	aa0a      	add	r2, sp, #40	; 0x28
10000a90:	189b      	adds	r3, r3, r2
10000a92:	9300      	str	r3, [sp, #0]
10000a94:	aa14      	add	r2, sp, #80	; 0x50
10000a96:	ab0c      	add	r3, sp, #48	; 0x30
10000a98:	f001 fcd3 	bl	10002442 <encode_uint>
			if (precision >= 0) {
10000a9c:	9b06      	ldr	r3, [sp, #24]
			bps = encode_uint(value->uint, conv, buf, bpe);
10000a9e:	0006      	movs	r6, r0
			if (precision >= 0) {
10000aa0:	2b00      	cmp	r3, #0
10000aa2:	db0d      	blt.n	10000ac0 <z_cbvprintf_impl+0x4c0>
				size_t len = bpe - bps;
10000aa4:	231e      	movs	r3, #30
				conv->flag_zero = false;
10000aa6:	2040      	movs	r0, #64	; 0x40
				size_t len = bpe - bps;
10000aa8:	aa0a      	add	r2, sp, #40	; 0x28
10000aaa:	189b      	adds	r3, r3, r2
				conv->flag_zero = false;
10000aac:	aa12      	add	r2, sp, #72	; 0x48
10000aae:	7a11      	ldrb	r1, [r2, #8]
				size_t len = bpe - bps;
10000ab0:	1b9b      	subs	r3, r3, r6
				conv->flag_zero = false;
10000ab2:	4381      	bics	r1, r0
10000ab4:	7211      	strb	r1, [r2, #8]
				if (len < (size_t)precision) {
10000ab6:	9906      	ldr	r1, [sp, #24]
10000ab8:	4299      	cmp	r1, r3
10000aba:	d901      	bls.n	10000ac0 <z_cbvprintf_impl+0x4c0>
					conv->pad0_value = precision - (int)len;
10000abc:	1acb      	subs	r3, r1, r3
10000abe:	9315      	str	r3, [sp, #84]	; 0x54
		if (bps == NULL) {
10000ac0:	2e00      	cmp	r6, #0
10000ac2:	d09b      	beq.n	100009fc <z_cbvprintf_impl+0x3fc>
		size_t nj_len = (bpe - bps);
10000ac4:	231e      	movs	r3, #30
10000ac6:	aa0a      	add	r2, sp, #40	; 0x28
10000ac8:	189b      	adds	r3, r3, r2
10000aca:	1b98      	subs	r0, r3, r6
		if (sign != 0) {
10000acc:	9306      	str	r3, [sp, #24]
10000ace:	2d00      	cmp	r5, #0
10000ad0:	d032      	beq.n	10000b38 <z_cbvprintf_impl+0x538>
			nj_len += 1U;
10000ad2:	3001      	adds	r0, #1
10000ad4:	e030      	b.n	10000b38 <z_cbvprintf_impl+0x538>
		switch (conv->specifier) {
10000ad6:	3863      	subs	r0, #99	; 0x63
10000ad8:	2815      	cmp	r0, #21
10000ada:	d88f      	bhi.n	100009fc <z_cbvprintf_impl+0x3fc>
10000adc:	f7ff fb6e 	bl	100001bc <__gnu_thumb1_case_shi>
10000ae0:	0068005e 	.word	0x0068005e
10000ae4:	ff8eff8e 	.word	0xff8eff8e
10000ae8:	ff8eff8e 	.word	0xff8eff8e
10000aec:	ff8e0068 	.word	0xff8e0068
10000af0:	ff8eff8e 	.word	0xff8eff8e
10000af4:	00a0ff8e 	.word	0x00a0ff8e
10000af8:	007c007a 	.word	0x007c007a
10000afc:	ff8eff8e 	.word	0xff8eff8e
10000b00:	ff8e001e 	.word	0xff8e001e
10000b04:	ff8e007a 	.word	0xff8e007a
10000b08:	007aff8e 	.word	0x007aff8e
10000b0c:	ffff87fd 	.word	0xffff87fd
10000b10:	00004002 	.word	0x00004002
10000b14:	00000482 	.word	0x00000482
10000b18:	00000801 	.word	0x00000801
			if (precision >= 0) {
10000b1c:	9b06      	ldr	r3, [sp, #24]
			bps = (const char *)value->ptr;
10000b1e:	9e12      	ldr	r6, [sp, #72]	; 0x48
			if (precision >= 0) {
10000b20:	2b00      	cmp	r3, #0
10000b22:	db37      	blt.n	10000b94 <z_cbvprintf_impl+0x594>
				len = strnlen(bps, precision);
10000b24:	0019      	movs	r1, r3
10000b26:	0030      	movs	r0, r6
10000b28:	f001 fd0e 	bl	10002548 <strnlen>
			bpe = bps + len;
10000b2c:	1833      	adds	r3, r6, r0
		char sign = 0;
10000b2e:	2500      	movs	r5, #0
			bpe = bps + len;
10000b30:	9306      	str	r3, [sp, #24]
		if (bps == NULL) {
10000b32:	2e00      	cmp	r6, #0
10000b34:	d100      	bne.n	10000b38 <z_cbvprintf_impl+0x538>
10000b36:	e761      	b.n	100009fc <z_cbvprintf_impl+0x3fc>
		if (conv->altform_0c) {
10000b38:	ab12      	add	r3, sp, #72	; 0x48
10000b3a:	7a9b      	ldrb	r3, [r3, #10]
10000b3c:	2210      	movs	r2, #16
10000b3e:	0019      	movs	r1, r3
10000b40:	4011      	ands	r1, r2
10000b42:	910b      	str	r1, [sp, #44]	; 0x2c
10000b44:	4213      	tst	r3, r2
10000b46:	d100      	bne.n	10000b4a <z_cbvprintf_impl+0x54a>
10000b48:	e085      	b.n	10000c56 <z_cbvprintf_impl+0x656>
			nj_len += 2U;
10000b4a:	3002      	adds	r0, #2
		nj_len += conv->pad0_value;
10000b4c:	9a15      	ldr	r2, [sp, #84]	; 0x54
10000b4e:	920a      	str	r2, [sp, #40]	; 0x28
10000b50:	1880      	adds	r0, r0, r2
		if (conv->pad_fp) {
10000b52:	065b      	lsls	r3, r3, #25
10000b54:	d501      	bpl.n	10000b5a <z_cbvprintf_impl+0x55a>
			nj_len += conv->pad0_pre_exp;
10000b56:	9b16      	ldr	r3, [sp, #88]	; 0x58
10000b58:	18c0      	adds	r0, r0, r3
		if (width > 0) {
10000b5a:	9b03      	ldr	r3, [sp, #12]
10000b5c:	2b00      	cmp	r3, #0
10000b5e:	dc00      	bgt.n	10000b62 <z_cbvprintf_impl+0x562>
10000b60:	e094      	b.n	10000c8c <z_cbvprintf_impl+0x68c>
			width -= (int)nj_len;
10000b62:	1a1b      	subs	r3, r3, r0
10000b64:	9303      	str	r3, [sp, #12]
			if (!conv->flag_dash) {
10000b66:	ab12      	add	r3, sp, #72	; 0x48
10000b68:	7a1b      	ldrb	r3, [r3, #8]
10000b6a:	075a      	lsls	r2, r3, #29
10000b6c:	0fd1      	lsrs	r1, r2, #31
10000b6e:	9108      	str	r1, [sp, #32]
10000b70:	2a00      	cmp	r2, #0
10000b72:	da00      	bge.n	10000b76 <z_cbvprintf_impl+0x576>
10000b74:	e08a      	b.n	10000c8c <z_cbvprintf_impl+0x68c>
				if (conv->flag_zero) {
10000b76:	065b      	lsls	r3, r3, #25
10000b78:	d400      	bmi.n	10000b7c <z_cbvprintf_impl+0x57c>
10000b7a:	e078      	b.n	10000c6e <z_cbvprintf_impl+0x66e>
					if (sign != 0) {
10000b7c:	2d00      	cmp	r5, #0
10000b7e:	d007      	beq.n	10000b90 <z_cbvprintf_impl+0x590>
						OUTC(sign);
10000b80:	0028      	movs	r0, r5
10000b82:	9905      	ldr	r1, [sp, #20]
10000b84:	9b04      	ldr	r3, [sp, #16]
10000b86:	4798      	blx	r3
10000b88:	2800      	cmp	r0, #0
10000b8a:	db6e      	blt.n	10000c6a <z_cbvprintf_impl+0x66a>
10000b8c:	9d08      	ldr	r5, [sp, #32]
10000b8e:	3701      	adds	r7, #1
					pad = '0';
10000b90:	2330      	movs	r3, #48	; 0x30
10000b92:	e06d      	b.n	10000c70 <z_cbvprintf_impl+0x670>
				len = strlen(bps);
10000b94:	0030      	movs	r0, r6
10000b96:	f001 fccf 	bl	10002538 <strlen>
10000b9a:	e7c7      	b.n	10000b2c <z_cbvprintf_impl+0x52c>
			bpe = buf + 1;
10000b9c:	2309      	movs	r3, #9
			buf[0] = CHAR_IS_SIGNED ? value->sint : value->uint;
10000b9e:	9a12      	ldr	r2, [sp, #72]	; 0x48
10000ba0:	ae0c      	add	r6, sp, #48	; 0x30
10000ba2:	7032      	strb	r2, [r6, #0]
			bpe = buf + 1;
10000ba4:	aa0a      	add	r2, sp, #40	; 0x28
10000ba6:	189b      	adds	r3, r3, r2
		char sign = 0;
10000ba8:	2500      	movs	r5, #0
		size_t nj_len = (bpe - bps);
10000baa:	2001      	movs	r0, #1
			bpe = buf + 1;
10000bac:	9306      	str	r3, [sp, #24]
10000bae:	e7c3      	b.n	10000b38 <z_cbvprintf_impl+0x538>
				sign = '+';
10000bb0:	252b      	movs	r5, #43	; 0x2b
			if (conv->flag_plus) {
10000bb2:	071a      	lsls	r2, r3, #28
10000bb4:	d402      	bmi.n	10000bbc <z_cbvprintf_impl+0x5bc>
			} else if (conv->flag_space) {
10000bb6:	06db      	lsls	r3, r3, #27
10000bb8:	0fdb      	lsrs	r3, r3, #31
10000bba:	015d      	lsls	r5, r3, #5
			sint = value->sint;
10000bbc:	9a12      	ldr	r2, [sp, #72]	; 0x48
10000bbe:	9b13      	ldr	r3, [sp, #76]	; 0x4c
			if (sint < 0) {
10000bc0:	2b00      	cmp	r3, #0
10000bc2:	db00      	blt.n	10000bc6 <z_cbvprintf_impl+0x5c6>
10000bc4:	e760      	b.n	10000a88 <z_cbvprintf_impl+0x488>
				value->uint = (uint_value_type)-sint;
10000bc6:	2100      	movs	r1, #0
10000bc8:	4250      	negs	r0, r2
10000bca:	4199      	sbcs	r1, r3
				sign = '-';
10000bcc:	252d      	movs	r5, #45	; 0x2d
				value->uint = (uint_value_type)-sint;
10000bce:	9012      	str	r0, [sp, #72]	; 0x48
10000bd0:	9113      	str	r1, [sp, #76]	; 0x4c
10000bd2:	e759      	b.n	10000a88 <z_cbvprintf_impl+0x488>
		switch (conv->specifier) {
10000bd4:	2500      	movs	r5, #0
10000bd6:	e757      	b.n	10000a88 <z_cbvprintf_impl+0x488>
			if (value->ptr != NULL) {
10000bd8:	9812      	ldr	r0, [sp, #72]	; 0x48
10000bda:	ad12      	add	r5, sp, #72	; 0x48
10000bdc:	2800      	cmp	r0, #0
10000bde:	d034      	beq.n	10000c4a <z_cbvprintf_impl+0x64a>
				bps = encode_uint((uintptr_t)value->ptr, conv,
10000be0:	231e      	movs	r3, #30
10000be2:	aa0a      	add	r2, sp, #40	; 0x28
10000be4:	189b      	adds	r3, r3, r2
10000be6:	9300      	str	r3, [sp, #0]
10000be8:	aa14      	add	r2, sp, #80	; 0x50
10000bea:	ab0c      	add	r3, sp, #48	; 0x30
10000bec:	2100      	movs	r1, #0
10000bee:	f001 fc28 	bl	10002442 <encode_uint>
				conv->altform_0c = true;
10000bf2:	23ef      	movs	r3, #239	; 0xef
10000bf4:	896a      	ldrh	r2, [r5, #10]
				bps = encode_uint((uintptr_t)value->ptr, conv,
10000bf6:	0006      	movs	r6, r0
				conv->altform_0c = true;
10000bf8:	401a      	ands	r2, r3
10000bfa:	4b48      	ldr	r3, [pc, #288]	; (10000d1c <z_cbvprintf_impl+0x71c>)
10000bfc:	4313      	orrs	r3, r2
10000bfe:	816b      	strh	r3, [r5, #10]
		char sign = 0;
10000c00:	2500      	movs	r5, #0
			if (precision >= 0) {
10000c02:	9b06      	ldr	r3, [sp, #24]
10000c04:	42ab      	cmp	r3, r5
10000c06:	db00      	blt.n	10000c0a <z_cbvprintf_impl+0x60a>
10000c08:	e74c      	b.n	10000aa4 <z_cbvprintf_impl+0x4a4>
		if (bps == NULL) {
10000c0a:	42a8      	cmp	r0, r5
10000c0c:	d100      	bne.n	10000c10 <z_cbvprintf_impl+0x610>
10000c0e:	e6f5      	b.n	100009fc <z_cbvprintf_impl+0x3fc>
		size_t nj_len = (bpe - bps);
10000c10:	231e      	movs	r3, #30
10000c12:	aa0a      	add	r2, sp, #40	; 0x28
10000c14:	189b      	adds	r3, r3, r2
10000c16:	1a18      	subs	r0, r3, r0
10000c18:	231e      	movs	r3, #30
10000c1a:	189b      	adds	r3, r3, r2
10000c1c:	9306      	str	r3, [sp, #24]
10000c1e:	e78b      	b.n	10000b38 <z_cbvprintf_impl+0x538>
				store_count(conv, value->ptr, count);
10000c20:	9b12      	ldr	r3, [sp, #72]	; 0x48
	switch ((enum length_mod_enum)conv->length_mod) {
10000c22:	2a07      	cmp	r2, #7
10000c24:	d900      	bls.n	10000c28 <z_cbvprintf_impl+0x628>
10000c26:	e6e9      	b.n	100009fc <z_cbvprintf_impl+0x3fc>
10000c28:	0010      	movs	r0, r2
10000c2a:	f7ff fabd 	bl	100001a8 <__gnu_thumb1_case_uqi>
10000c2e:	040c      	.short	0x040c
10000c30:	08080c06 	.word	0x08080c06
10000c34:	0c0c      	.short	0x0c0c
		*(signed char *)dp = (signed char)count;
10000c36:	701f      	strb	r7, [r3, #0]
		if (bps == NULL) {
10000c38:	e6e0      	b.n	100009fc <z_cbvprintf_impl+0x3fc>
		*(short *)dp = (short)count;
10000c3a:	801f      	strh	r7, [r3, #0]
		if (bps == NULL) {
10000c3c:	e6de      	b.n	100009fc <z_cbvprintf_impl+0x3fc>
		*(intmax_t *)dp = (intmax_t)count;
10000c3e:	17fa      	asrs	r2, r7, #31
10000c40:	601f      	str	r7, [r3, #0]
10000c42:	605a      	str	r2, [r3, #4]
		if (bps == NULL) {
10000c44:	e6da      	b.n	100009fc <z_cbvprintf_impl+0x3fc>
		*(ptrdiff_t *)dp = (ptrdiff_t)count;
10000c46:	601f      	str	r7, [r3, #0]
		if (bps == NULL) {
10000c48:	e6d8      	b.n	100009fc <z_cbvprintf_impl+0x3fc>
			bpe = bps + 5;
10000c4a:	4b35      	ldr	r3, [pc, #212]	; (10000d20 <z_cbvprintf_impl+0x720>)
		char sign = 0;
10000c4c:	0005      	movs	r5, r0
10000c4e:	4e35      	ldr	r6, [pc, #212]	; (10000d24 <z_cbvprintf_impl+0x724>)
		size_t nj_len = (bpe - bps);
10000c50:	2005      	movs	r0, #5
			bpe = bps + 5;
10000c52:	9306      	str	r3, [sp, #24]
10000c54:	e770      	b.n	10000b38 <z_cbvprintf_impl+0x538>
		} else if (conv->altform_0) {
10000c56:	071a      	lsls	r2, r3, #28
			nj_len += 1U;
10000c58:	0fd2      	lsrs	r2, r2, #31
10000c5a:	1880      	adds	r0, r0, r2
10000c5c:	e776      	b.n	10000b4c <z_cbvprintf_impl+0x54c>
					OUTC(pad);
10000c5e:	9905      	ldr	r1, [sp, #20]
10000c60:	9809      	ldr	r0, [sp, #36]	; 0x24
10000c62:	9b04      	ldr	r3, [sp, #16]
10000c64:	4798      	blx	r3
10000c66:	2800      	cmp	r0, #0
10000c68:	da05      	bge.n	10000c76 <z_cbvprintf_impl+0x676>
#undef OUTS
#undef OUTC
}
10000c6a:	b019      	add	sp, #100	; 0x64
10000c6c:	bdf0      	pop	{r4, r5, r6, r7, pc}
				char pad = ' ';
10000c6e:	2320      	movs	r3, #32
					pad = '0';
10000c70:	9309      	str	r3, [sp, #36]	; 0x24
10000c72:	9b03      	ldr	r3, [sp, #12]
10000c74:	9308      	str	r3, [sp, #32]
				while (width-- > 0) {
10000c76:	9b08      	ldr	r3, [sp, #32]
10000c78:	001a      	movs	r2, r3
10000c7a:	3a01      	subs	r2, #1
10000c7c:	9208      	str	r2, [sp, #32]
10000c7e:	2b00      	cmp	r3, #0
10000c80:	dced      	bgt.n	10000c5e <z_cbvprintf_impl+0x65e>
10000c82:	9a03      	ldr	r2, [sp, #12]
10000c84:	19d7      	adds	r7, r2, r7
10000c86:	1aff      	subs	r7, r7, r3
10000c88:	9b08      	ldr	r3, [sp, #32]
10000c8a:	9303      	str	r3, [sp, #12]
		if (sign != 0) {
10000c8c:	2d00      	cmp	r5, #0
10000c8e:	d006      	beq.n	10000c9e <z_cbvprintf_impl+0x69e>
			OUTC(sign);
10000c90:	0028      	movs	r0, r5
10000c92:	9905      	ldr	r1, [sp, #20]
10000c94:	9b04      	ldr	r3, [sp, #16]
10000c96:	4798      	blx	r3
10000c98:	2800      	cmp	r0, #0
10000c9a:	dbe6      	blt.n	10000c6a <z_cbvprintf_impl+0x66a>
10000c9c:	3701      	adds	r7, #1
			if (conv->altform_0c | conv->altform_0) {
10000c9e:	ab12      	add	r3, sp, #72	; 0x48
10000ca0:	7a9b      	ldrb	r3, [r3, #10]
10000ca2:	06da      	lsls	r2, r3, #27
10000ca4:	d401      	bmi.n	10000caa <z_cbvprintf_impl+0x6aa>
10000ca6:	071b      	lsls	r3, r3, #28
10000ca8:	d506      	bpl.n	10000cb8 <z_cbvprintf_impl+0x6b8>
				OUTC('0');
10000caa:	2030      	movs	r0, #48	; 0x30
10000cac:	9905      	ldr	r1, [sp, #20]
10000cae:	9b04      	ldr	r3, [sp, #16]
10000cb0:	4798      	blx	r3
10000cb2:	2800      	cmp	r0, #0
10000cb4:	dbd9      	blt.n	10000c6a <z_cbvprintf_impl+0x66a>
10000cb6:	3701      	adds	r7, #1
			if (conv->altform_0c) {
10000cb8:	9b0b      	ldr	r3, [sp, #44]	; 0x2c
10000cba:	2b00      	cmp	r3, #0
10000cbc:	d007      	beq.n	10000cce <z_cbvprintf_impl+0x6ce>
				OUTC(conv->specifier);
10000cbe:	ab12      	add	r3, sp, #72	; 0x48
10000cc0:	7ad8      	ldrb	r0, [r3, #11]
10000cc2:	9905      	ldr	r1, [sp, #20]
10000cc4:	9b04      	ldr	r3, [sp, #16]
10000cc6:	4798      	blx	r3
10000cc8:	2800      	cmp	r0, #0
10000cca:	dbce      	blt.n	10000c6a <z_cbvprintf_impl+0x66a>
10000ccc:	3701      	adds	r7, #1
				while (width-- > 0) {
10000cce:	003d      	movs	r5, r7
10000cd0:	e006      	b.n	10000ce0 <z_cbvprintf_impl+0x6e0>
				OUTC('0');
10000cd2:	2030      	movs	r0, #48	; 0x30
10000cd4:	9905      	ldr	r1, [sp, #20]
10000cd6:	9b04      	ldr	r3, [sp, #16]
10000cd8:	4798      	blx	r3
10000cda:	2800      	cmp	r0, #0
10000cdc:	dbc5      	blt.n	10000c6a <z_cbvprintf_impl+0x66a>
10000cde:	3501      	adds	r5, #1
			while (pad_len-- > 0) {
10000ce0:	9b0a      	ldr	r3, [sp, #40]	; 0x28
10000ce2:	19db      	adds	r3, r3, r7
10000ce4:	1b5b      	subs	r3, r3, r5
10000ce6:	2b00      	cmp	r3, #0
10000ce8:	dcf3      	bgt.n	10000cd2 <z_cbvprintf_impl+0x6d2>
			OUTS(bps, bpe);
10000cea:	0032      	movs	r2, r6
10000cec:	9b06      	ldr	r3, [sp, #24]
10000cee:	9905      	ldr	r1, [sp, #20]
10000cf0:	9804      	ldr	r0, [sp, #16]
10000cf2:	f001 fbf3 	bl	100024dc <outs>
10000cf6:	2800      	cmp	r0, #0
10000cf8:	dbb7      	blt.n	10000c6a <z_cbvprintf_impl+0x66a>
10000cfa:	1947      	adds	r7, r0, r5
10000cfc:	003d      	movs	r5, r7
		while (width > 0) {
10000cfe:	9b03      	ldr	r3, [sp, #12]
10000d00:	195b      	adds	r3, r3, r5
10000d02:	1bdb      	subs	r3, r3, r7
10000d04:	2b00      	cmp	r3, #0
10000d06:	dc00      	bgt.n	10000d0a <z_cbvprintf_impl+0x70a>
10000d08:	e678      	b.n	100009fc <z_cbvprintf_impl+0x3fc>
			OUTC(' ');
10000d0a:	2020      	movs	r0, #32
10000d0c:	9905      	ldr	r1, [sp, #20]
10000d0e:	9b04      	ldr	r3, [sp, #16]
10000d10:	4798      	blx	r3
10000d12:	2800      	cmp	r0, #0
10000d14:	dba9      	blt.n	10000c6a <z_cbvprintf_impl+0x66a>
10000d16:	3701      	adds	r7, #1
			--width;
10000d18:	e7f1      	b.n	10000cfe <z_cbvprintf_impl+0x6fe>
10000d1a:	46c0      	nop			; (mov r8, r8)
10000d1c:	00007810 	.word	0x00007810
10000d20:	10003017 	.word	0x10003017
10000d24:	10003012 	.word	0x10003012

10000d28 <z_arm_cpu_idle_init>:
 * void z_arm_cpu_idle_init(void);
 */

SECTION_FUNC(TEXT, z_arm_cpu_idle_init)
#if defined(CONFIG_CPU_CORTEX_M)
	ldr	r1, =_SCB_SCR
10000d28:	4901      	ldr	r1, [pc, #4]	; (10000d30 <z_arm_cpu_idle_init+0x8>)
	movs.n	r2, #_SCR_INIT_BITS
10000d2a:	2210      	movs	r2, #16
	str	r2, [r1]
10000d2c:	600a      	str	r2, [r1, #0]
#endif
	bx	lr
10000d2e:	4770      	bx	lr
	ldr	r1, =_SCB_SCR
10000d30:	e000ed10 	.word	0xe000ed10

10000d34 <arch_cpu_idle>:
	 * (i.e. if the caller sets _kernel.idle).
	 */
#endif /* CONFIG_ARMV7_M_ARMV8_M_MAINLINE */

	/* Enter low power state */
	_sleep_if_allowed wfi
10000d34:	f3bf 8f4f 	dsb	sy
10000d38:	bf30      	wfi

	/*
	 * Clear PRIMASK and flush instruction buffer to immediately service
	 * the wake-up interrupt.
	 */
	cpsie	i
10000d3a:	b662      	cpsie	i
	isb
10000d3c:	f3bf 8f6f 	isb	sy

	bx	lr
10000d40:	4770      	bx	lr
10000d42:	46c0      	nop			; (mov r8, r8)

10000d44 <arch_irq_enable>:
#define REG_FROM_IRQ(irq) (irq / NUM_IRQS_PER_REG)
#define BIT_FROM_IRQ(irq) (irq % NUM_IRQS_PER_REG)

void arch_irq_enable(unsigned int irq)
{
	NVIC_EnableIRQ((IRQn_Type)irq);
10000d44:	b243      	sxtb	r3, r0
  \param [in]      IRQn  Device specific interrupt number.
  \note    IRQn must not be negative.
 */
__STATIC_INLINE void __NVIC_EnableIRQ(IRQn_Type IRQn)
{
  if ((int32_t)(IRQn) >= 0)
10000d46:	0600      	lsls	r0, r0, #24
10000d48:	d405      	bmi.n	10000d56 <arch_irq_enable+0x12>
  {
    __COMPILER_BARRIER();
    NVIC->ISER[0U] = (uint32_t)(1UL << (((uint32_t)IRQn) & 0x1FUL));
10000d4a:	221f      	movs	r2, #31
10000d4c:	401a      	ands	r2, r3
10000d4e:	2301      	movs	r3, #1
10000d50:	4093      	lsls	r3, r2
10000d52:	4a01      	ldr	r2, [pc, #4]	; (10000d58 <arch_irq_enable+0x14>)
10000d54:	6013      	str	r3, [r2, #0]
}
10000d56:	4770      	bx	lr
10000d58:	e000e100 	.word	0xe000e100

10000d5c <z_arm_irq_priority_set>:
 * The priority is verified if ASSERT_ON is enabled. The maximum number
 * of priority levels is a little complex, as there are some hardware
 * priority levels which are reserved.
 */
void z_arm_irq_priority_set(unsigned int irq, unsigned int prio, uint32_t flags)
{
10000d5c:	b530      	push	{r4, r5, lr}
 */
__STATIC_INLINE void __NVIC_SetPriority(IRQn_Type IRQn, uint32_t priority)
{
  if ((int32_t)(IRQn) >= 0)
  {
    NVIC->IP[_IP_IDX(IRQn)]  = ((uint32_t)(NVIC->IP[_IP_IDX(IRQn)]  & ~(0xFFUL << _BIT_SHIFT(IRQn))) |
10000d5e:	25ff      	movs	r5, #255	; 0xff
10000d60:	2203      	movs	r2, #3
10000d62:	000b      	movs	r3, r1
10000d64:	0029      	movs	r1, r5
	 */
	__ASSERT(prio <= (BIT(NUM_IRQ_PRIO_BITS) - 1),
		 "invalid priority %d for %d irq! values must be less than %lu\n",
		 prio - _IRQ_PRIO_OFFSET, irq,
		 BIT(NUM_IRQ_PRIO_BITS) - (_IRQ_PRIO_OFFSET));
	NVIC_SetPriority((IRQn_Type)irq, prio);
10000d66:	b240      	sxtb	r0, r0
10000d68:	4002      	ands	r2, r0
10000d6a:	00d2      	lsls	r2, r2, #3
10000d6c:	4091      	lsls	r1, r2
       (((priority << (8U - __NVIC_PRIO_BITS)) & (uint32_t)0xFFUL) << _BIT_SHIFT(IRQn)));
10000d6e:	015b      	lsls	r3, r3, #5
10000d70:	402b      	ands	r3, r5
    NVIC->IP[_IP_IDX(IRQn)]  = ((uint32_t)(NVIC->IP[_IP_IDX(IRQn)]  & ~(0xFFUL << _BIT_SHIFT(IRQn))) |
10000d72:	43c9      	mvns	r1, r1
       (((priority << (8U - __NVIC_PRIO_BITS)) & (uint32_t)0xFFUL) << _BIT_SHIFT(IRQn)));
10000d74:	4093      	lsls	r3, r2
  if ((int32_t)(IRQn) >= 0)
10000d76:	2800      	cmp	r0, #0
10000d78:	db0a      	blt.n	10000d90 <z_arm_irq_priority_set+0x34>
    NVIC->IP[_IP_IDX(IRQn)]  = ((uint32_t)(NVIC->IP[_IP_IDX(IRQn)]  & ~(0xFFUL << _BIT_SHIFT(IRQn))) |
10000d7a:	24c0      	movs	r4, #192	; 0xc0
10000d7c:	4a0a      	ldr	r2, [pc, #40]	; (10000da8 <z_arm_irq_priority_set+0x4c>)
10000d7e:	0880      	lsrs	r0, r0, #2
10000d80:	0080      	lsls	r0, r0, #2
10000d82:	1880      	adds	r0, r0, r2
10000d84:	00a4      	lsls	r4, r4, #2
10000d86:	5902      	ldr	r2, [r0, r4]
10000d88:	400a      	ands	r2, r1
10000d8a:	4313      	orrs	r3, r2
10000d8c:	5103      	str	r3, [r0, r4]
}
10000d8e:	bd30      	pop	{r4, r5, pc}
  }
  else
  {
    SCB->SHP[_SHP_IDX(IRQn)] = ((uint32_t)(SCB->SHP[_SHP_IDX(IRQn)] & ~(0xFFUL << _BIT_SHIFT(IRQn))) |
10000d90:	220f      	movs	r2, #15
10000d92:	4010      	ands	r0, r2
10000d94:	3808      	subs	r0, #8
10000d96:	4a05      	ldr	r2, [pc, #20]	; (10000dac <z_arm_irq_priority_set+0x50>)
10000d98:	0880      	lsrs	r0, r0, #2
10000d9a:	0080      	lsls	r0, r0, #2
10000d9c:	1880      	adds	r0, r0, r2
10000d9e:	69c2      	ldr	r2, [r0, #28]
10000da0:	4011      	ands	r1, r2
10000da2:	4319      	orrs	r1, r3
10000da4:	61c1      	str	r1, [r0, #28]
10000da6:	e7f2      	b.n	10000d8e <z_arm_irq_priority_set+0x32>
10000da8:	e000e100 	.word	0xe000e100
10000dac:	e000ed00 	.word	0xe000ed00

10000db0 <z_SysNmiOnReset>:
_ASM_FILE_PROLOGUE

GTEXT(z_SysNmiOnReset)

SECTION_FUNC(TEXT, z_SysNmiOnReset)
    wfi
10000db0:	bf30      	wfi
    b z_SysNmiOnReset
10000db2:	e7fd      	b.n	10000db0 <z_SysNmiOnReset>

10000db4 <z_arm_prep_c>:

#define VECTOR_ADDRESS ((uintptr_t)_vector_start)

static inline void relocate_vector_table(void)
{
	SCB->VTOR = VECTOR_ADDRESS & SCB_VTOR_TBLOFF_Msk;
10000db4:	22ff      	movs	r2, #255	; 0xff
10000db6:	4b08      	ldr	r3, [pc, #32]	; (10000dd8 <z_arm_prep_c+0x24>)
 *
 * This routine prepares for the execution of and runs C code.
 *
 */
void z_arm_prep_c(void)
{
10000db8:	b510      	push	{r4, lr}
	SCB->VTOR = VECTOR_ADDRESS & SCB_VTOR_TBLOFF_Msk;
10000dba:	4393      	bics	r3, r2
10000dbc:	4a07      	ldr	r2, [pc, #28]	; (10000ddc <z_arm_prep_c+0x28>)
10000dbe:	6093      	str	r3, [r2, #8]
  \details Acts as a special kind of Data Memory Barrier.
           It completes when all explicit memory accesses before this instruction complete.
 */
__STATIC_FORCEINLINE void __DSB(void)
{
  __ASM volatile ("dsb 0xF":::"memory");
10000dc0:	f3bf 8f4f 	dsb	sy
  __ASM volatile ("isb 0xF":::"memory");
10000dc4:	f3bf 8f6f 	isb	sy
	relocate_vector_table();
#if defined(CONFIG_CPU_HAS_FPU)
	z_arm_floating_point_init();
#endif
	z_bss_zero();
10000dc8:	f000 fdee 	bl	100019a8 <z_bss_zero>
	z_data_copy();
10000dcc:	f001 f9aa 	bl	10002124 <z_data_copy>
#if ((defined(CONFIG_ARMV7_R) || defined(CONFIG_ARMV7_A)) && defined(CONFIG_INIT_STACKS))
	z_arm_init_stacks();
#endif
	z_arm_interrupt_init();
10000dd0:	f000 f8f2 	bl	10000fb8 <z_arm_interrupt_init>
	z_cstart();
10000dd4:	f000 fe28 	bl	10001a28 <z_cstart>
10000dd8:	10000100 	.word	0x10000100
10000ddc:	e000ed00 	.word	0xe000ed00

10000de0 <arch_swap>:
 * as BASEPRI is not available.
 */
int arch_swap(unsigned int key)
{
	/* store off key and return value */
	_current->arch.basepri = key;
10000de0:	4a08      	ldr	r2, [pc, #32]	; (10000e04 <arch_swap+0x24>)
	_current->arch.swap_return_value = _k_neg_eagain;
10000de2:	4909      	ldr	r1, [pc, #36]	; (10000e08 <arch_swap+0x28>)
	_current->arch.basepri = key;
10000de4:	6893      	ldr	r3, [r2, #8]
	_current->arch.swap_return_value = _k_neg_eagain;
10000de6:	6809      	ldr	r1, [r1, #0]
	_current->arch.basepri = key;
10000de8:	6698      	str	r0, [r3, #104]	; 0x68
	_current->arch.swap_return_value = _k_neg_eagain;
10000dea:	66d9      	str	r1, [r3, #108]	; 0x6c

#if defined(CONFIG_CPU_CORTEX_M)
	/* set pending bit to make sure we will take a PendSV exception */
	SCB->ICSR |= SCB_ICSR_PENDSVSET_Msk;
10000dec:	2380      	movs	r3, #128	; 0x80
10000dee:	4907      	ldr	r1, [pc, #28]	; (10000e0c <arch_swap+0x2c>)
10000df0:	055b      	lsls	r3, r3, #21
10000df2:	6848      	ldr	r0, [r1, #4]
10000df4:	4303      	orrs	r3, r0
10000df6:	604b      	str	r3, [r1, #4]
{
#if defined(CONFIG_ARMV6_M_ARMV8_M_BASELINE)
	if (key != 0U) {
		return;
	}
	__asm__ volatile(
10000df8:	b662      	cpsie	i
10000dfa:	f3bf 8f6f 	isb	sy
#endif

	/* Context switch is performed here. Returning implies the
	 * thread has been context-switched-in again.
	 */
	return _current->arch.swap_return_value;
10000dfe:	6893      	ldr	r3, [r2, #8]
10000e00:	6ed8      	ldr	r0, [r3, #108]	; 0x6c
}
10000e02:	4770      	bx	lr
10000e04:	2000018c 	.word	0x2000018c
10000e08:	10002e9c 	.word	0x10002e9c
10000e0c:	e000ed00 	.word	0xe000ed00

10000e10 <z_arm_pendsv>:
    pop {r0, lr}
#endif /* CONFIG_ARMV6_M_ARMV8_M_BASELINE */
#endif /* CONFIG_INSTRUMENT_THREAD_SWITCHING */

    /* load _kernel into r1 and current k_thread into r2 */
    ldr r1, =_kernel
10000e10:	4913      	ldr	r1, [pc, #76]	; (10000e60 <_thread_irq_disabled+0x1e>)
    ldr r2, [r1, #_kernel_offset_to_current]
10000e12:	688a      	ldr	r2, [r1, #8]
    /* Store LSB of LR (EXC_RETURN) to the thread's 'mode' word. */
    strb lr, [r2, #_thread_offset_to_mode_exc_return]
#endif

    /* addr of callee-saved regs in thread in r0 */
    ldr r0, =_thread_offset_to_callee_saved
10000e14:	4813      	ldr	r0, [pc, #76]	; (10000e64 <_thread_irq_disabled+0x22>)
    add r0, r2
10000e16:	4410      	add	r0, r2

    /* save callee-saved + psp in thread */
#if defined(CONFIG_CPU_CORTEX_M)
    mrs ip, PSP
10000e18:	f3ef 8c09 	mrs	ip, PSP
#endif

#if defined(CONFIG_ARMV6_M_ARMV8_M_BASELINE)
    /* Store current r4-r7 */
    stmea r0!, {r4-r7}
10000e1c:	c0f0      	stmia	r0!, {r4, r5, r6, r7}
    /* copy r8-r12 into r3-r7 */
    mov r3, r8
10000e1e:	4643      	mov	r3, r8
    mov r4, r9
10000e20:	464c      	mov	r4, r9
    mov r5, r10
10000e22:	4655      	mov	r5, sl
    mov r6, r11
10000e24:	465e      	mov	r6, fp
    mov r7, ip
10000e26:	4667      	mov	r7, ip
    /* store r8-12 */
    stmea r0!, {r3-r7}
10000e28:	c0f8      	stmia	r0!, {r3, r4, r5, r6, r7}
#error Unknown ARM architecture
#endif /* CONFIG_ARMV6_M_ARMV8_M_BASELINE */

    /* Protect the kernel state while we play with the thread lists */
#if defined(CONFIG_ARMV6_M_ARMV8_M_BASELINE)
    cpsid i
10000e2a:	b672      	cpsid	i
     * the new thread is context-switched in since all decisions
     * to pend PendSV have been taken with the current kernel
     * state and this is what we're handling currently.
     */
#if defined(CONFIG_CPU_CORTEX_M)
    ldr v4, =_SCS_ICSR
10000e2c:	4f0e      	ldr	r7, [pc, #56]	; (10000e68 <_thread_irq_disabled+0x26>)
    ldr v3, =_SCS_ICSR_UNPENDSV
10000e2e:	4e0f      	ldr	r6, [pc, #60]	; (10000e6c <_thread_irq_disabled+0x2a>)
#endif

    /* _kernel is still in r1 */

    /* fetch the thread to run from the ready queue cache */
    ldr r2, [r1, #_kernel_offset_to_ready_q_cache]
10000e30:	694a      	ldr	r2, [r1, #20]

    str r2, [r1, #_kernel_offset_to_current]
10000e32:	608a      	str	r2, [r1, #8]
     * has been handled.
     */

    /* _SCS_ICSR is still in v4 and _SCS_ICSR_UNPENDSV in v3 */
#if defined(CONFIG_CPU_CORTEX_M)
    str v3, [v4, #0]
10000e34:	603e      	str	r6, [r7, #0]

    ldr r0, [r4]
    movs.n r3, #0
    str r3, [r4]
#else
    ldr r0, [r2, #_thread_offset_to_basepri]
10000e36:	6e90      	ldr	r0, [r2, #104]	; 0x68
    movs r3, #0
10000e38:	2300      	movs	r3, #0
    str r3, [r2, #_thread_offset_to_basepri]
10000e3a:	6693      	str	r3, [r2, #104]	; 0x68
     * maps to PRIMASK.
     *
     * Only enable interrupts if value is 0, meaning interrupts
     * were enabled before irq_lock was called.
     */
    cmp r0, #0
10000e3c:	2800      	cmp	r0, #0
    bne _thread_irq_disabled
10000e3e:	d100      	bne.n	10000e42 <_thread_irq_disabled>
    cpsie i
10000e40:	b662      	cpsie	i

10000e42 <_thread_irq_disabled>:
     */
    isb

#endif

    ldr r4, =_thread_offset_to_callee_saved
10000e42:	4c08      	ldr	r4, [pc, #32]	; (10000e64 <_thread_irq_disabled+0x22>)
    adds r0, r2, r4
10000e44:	1910      	adds	r0, r2, r4

    /* restore r4-r12 for new thread */
    /* first restore r8-r12 located after r4-r7 (4*4bytes) */
    adds r0, #16
10000e46:	3010      	adds	r0, #16
    ldmia r0!, {r3-r7}
10000e48:	c8f8      	ldmia	r0!, {r3, r4, r5, r6, r7}
    /* move to correct registers */
    mov r8, r3
10000e4a:	4698      	mov	r8, r3
    mov r9, r4
10000e4c:	46a1      	mov	r9, r4
    mov r10, r5
10000e4e:	46aa      	mov	sl, r5
    mov r11, r6
10000e50:	46b3      	mov	fp, r6
    mov ip, r7
10000e52:	46bc      	mov	ip, r7
    /* restore r4-r7, go back 9*4 bytes to the start of the stored block */
    subs r0, #36
10000e54:	3824      	subs	r0, #36	; 0x24
    ldmia r0!, {r4-r7}
10000e56:	c8f0      	ldmia	r0!, {r4, r5, r6, r7}
#else
#error Unknown ARM architecture
#endif /* CONFIG_ARMV6_M_ARMV8_M_BASELINE */

#if defined(CONFIG_CPU_CORTEX_M)
    msr PSP, ip
10000e58:	f38c 8809 	msr	PSP, ip

    /*
     * Cortex-M: return from PendSV exception
     * Cortex-R: return to the caller (z_arm_{exc,int}_exit, or z_arm_svc)
     */
    bx lr
10000e5c:	4770      	bx	lr
10000e5e:	0000      	.short	0x0000
    ldr r1, =_kernel
10000e60:	2000018c 	.word	0x2000018c
    ldr r0, =_thread_offset_to_callee_saved
10000e64:	00000030 	.word	0x00000030
    ldr v4, =_SCS_ICSR
10000e68:	e000ed04 	.word	0xe000ed04
    ldr v3, =_SCS_ICSR_UNPENDSV
10000e6c:	08000000 	.word	0x08000000

10000e70 <z_arm_svc>:
SECTION_FUNC(TEXT, z_arm_svc)
  /* Use EXC_RETURN state to find out if stack frame is on the
   * MSP or PSP
   */
#if defined(CONFIG_ARMV6_M_ARMV8_M_BASELINE)
  movs r0, #_EXC_RETURN_SPSEL_Msk
10000e70:	2004      	movs	r0, #4
  mov r1, lr
10000e72:	4671      	mov	r1, lr
  tst r1, r0
10000e74:	4201      	tst	r1, r0
  beq _stack_frame_msp
10000e76:	d002      	beq.n	10000e7e <_stack_frame_msp>
  mrs r0, PSP
10000e78:	f3ef 8009 	mrs	r0, PSP
  bne _stack_frame_endif
10000e7c:	d101      	bne.n	10000e82 <_stack_frame_endif>

10000e7e <_stack_frame_msp>:
_stack_frame_msp:
  mrs r0, MSP
10000e7e:	f3ef 8008 	mrs	r0, MSP

10000e82 <_stack_frame_endif>:
#endif


    /* Figure out what SVC call number was invoked */

    ldr r1, [r0, #24]   /* grab address of PC from stack frame */
10000e82:	6981      	ldr	r1, [r0, #24]
    /* SVC is a two-byte instruction, point to it and read the
     * SVC number (lower byte of SCV instruction)
     */
#if defined(CONFIG_ARMV6_M_ARMV8_M_BASELINE)
    subs r1, r1, #2
10000e84:	3902      	subs	r1, #2
    ldrb r1, [r1]
10000e86:	7809      	ldrb	r1, [r1, #0]
#endif
    bne _oops

#endif /* CONFIG_USERSPACE */

    cmp r1, #2
10000e88:	2902      	cmp	r1, #2
    beq _oops
10000e8a:	d0ff      	beq.n	10000e8c <_oops>

10000e8c <_oops>:
    /* exception return is done in z_arm_int_exit() */
    b z_arm_int_exit
#endif

_oops:
    push {r0, lr}
10000e8c:	b501      	push	{r0, lr}
    push {r1, r2}
    push {r4-r11}
    mov  r1, sp /* pointer to _callee_saved_t */
#endif /* CONFIG_ARMV7_M_ARMV8_M_MAINLINE */
#endif /* CONFIG_EXTRA_EXCEPTION_INFO */
    bl z_do_kernel_oops
10000e8e:	f001 fb40 	bl	10002512 <z_do_kernel_oops>
     * the MSP to its value prior to entering the function
     */
    add sp, #40
#endif /* CONFIG_ARMV7_M_ARMV8_M_MAINLINE */
#endif /* CONFIG_EXTRA_EXCEPTION_INFO */
    pop {r0, pc}
10000e92:	bd01      	pop	{r0, pc}

10000e94 <arch_new_thread>:
 * of the ESF.
 */
void arch_new_thread(struct k_thread *thread, k_thread_stack_t *stack,
		     char *stack_ptr, k_thread_entry_t entry,
		     void *p1, void *p2, void *p3)
{
10000e94:	b510      	push	{r4, lr}
	iframe->pc = (uint32_t)z_thread_entry;
#endif

#if defined(CONFIG_CPU_CORTEX_M)
	/* force ARM mode by clearing LSB of address */
	iframe->pc &= 0xfffffffe;
10000e96:	3a20      	subs	r2, #32
#endif
	iframe->a1 = (uint32_t)entry;
10000e98:	6013      	str	r3, [r2, #0]
	iframe->a2 = (uint32_t)p1;
10000e9a:	9b02      	ldr	r3, [sp, #8]
	iframe->pc &= 0xfffffffe;
10000e9c:	2401      	movs	r4, #1
	iframe->a2 = (uint32_t)p1;
10000e9e:	6053      	str	r3, [r2, #4]
	iframe->a3 = (uint32_t)p2;
10000ea0:	9b03      	ldr	r3, [sp, #12]
	iframe->pc &= 0xfffffffe;
10000ea2:	4906      	ldr	r1, [pc, #24]	; (10000ebc <arch_new_thread+0x28>)
	iframe->a3 = (uint32_t)p2;
10000ea4:	6093      	str	r3, [r2, #8]
	iframe->a4 = (uint32_t)p3;
10000ea6:	9b04      	ldr	r3, [sp, #16]
	iframe->pc &= 0xfffffffe;
10000ea8:	43a1      	bics	r1, r4
	iframe->a4 = (uint32_t)p3;
10000eaa:	60d3      	str	r3, [r2, #12]

#if defined(CONFIG_CPU_CORTEX_M)
	iframe->xpsr =
10000eac:	2380      	movs	r3, #128	; 0x80
10000eae:	045b      	lsls	r3, r3, #17
10000eb0:	61d3      	str	r3, [r2, #28]
		((uintptr_t)iframe - sizeof(struct __fpu_sf));
	memset(iframe, 0, sizeof(struct __fpu_sf));
#endif

	thread->callee_saved.psp = (uint32_t)iframe;
	thread->arch.basepri = 0;
10000eb2:	2300      	movs	r3, #0
	iframe->pc &= 0xfffffffe;
10000eb4:	6191      	str	r1, [r2, #24]
	thread->callee_saved.psp = (uint32_t)iframe;
10000eb6:	6502      	str	r2, [r0, #80]	; 0x50
	thread->arch.basepri = 0;
10000eb8:	6683      	str	r3, [r0, #104]	; 0x68
#endif
	/*
	 * initial values in all other registers/thread entries are
	 * irrelevant.
	 */
}
10000eba:	bd10      	pop	{r4, pc}
10000ebc:	1000242f 	.word	0x1000242f

10000ec0 <arch_switch_to_main_thread>:
void arch_switch_to_main_thread(struct k_thread *main_thread, char *stack_ptr,
				k_thread_entry_t _main)
{
	z_arm_prepare_switch_to_main();

	_current = main_thread;
10000ec0:	4b06      	ldr	r3, [pc, #24]	; (10000edc <arch_switch_to_main_thread+0x1c>)
10000ec2:	6098      	str	r0, [r3, #8]

	/*
	 * Set PSP to the highest address of the main stack
	 * before enabling interrupts and jumping to main.
	 */
	__asm__ volatile (
10000ec4:	1c10      	adds	r0, r2, #0
10000ec6:	f381 8809 	msr	PSP, r1
10000eca:	2100      	movs	r1, #0
10000ecc:	b662      	cpsie	i
10000ece:	f3bf 8f6f 	isb	sy
10000ed2:	2200      	movs	r2, #0
10000ed4:	2300      	movs	r3, #0
10000ed6:	f001 faaa 	bl	1000242e <z_thread_entry>
	:
	: "r" (_main), "r" (stack_ptr)
	: "r0" /* not to be overwritten by msr PSP, %1 */
	);

	CODE_UNREACHABLE;
10000eda:	46c0      	nop			; (mov r8, r8)
10000edc:	2000018c 	.word	0x2000018c

10000ee0 <_isr_wrapper>:
 *
 */
SECTION_FUNC(TEXT, _isr_wrapper)

#if defined(CONFIG_CPU_CORTEX_M)
	push {r0,lr}		/* r0, lr are now the first items on the stack */
10000ee0:	b501      	push	{r0, lr}
#endif

#endif /* CONFIG_PM */

#if defined(CONFIG_CPU_CORTEX_M)
	mrs r0, IPSR	/* get exception number */
10000ee2:	f3ef 8005 	mrs	r0, IPSR
#if defined(CONFIG_ARMV6_M_ARMV8_M_BASELINE)
	ldr r1, =16
10000ee6:	4905      	ldr	r1, [pc, #20]	; (10000efc <_isr_wrapper+0x1c>)
	subs r0, r1	/* get IRQ number */
10000ee8:	1a40      	subs	r0, r0, r1
	lsls r0, #3	/* table is 8-byte wide */
10000eea:	00c0      	lsls	r0, r0, #3
	lsl r1, r1, #3
	cmp r0, r1
	bge spurious_continue
#endif /* !CONFIG_CPU_CORTEX_M */

	ldr r1, =_sw_isr_table
10000eec:	4904      	ldr	r1, [pc, #16]	; (10000f00 <_isr_wrapper+0x20>)
	add r1, r1, r0	/* table entry: ISRs must have their MSB set to stay
10000eee:	4401      	add	r1, r0
			 * in thumb mode */

	ldm r1!,{r0,r3}	/* arg in r0, ISR in r3 */
10000ef0:	c909      	ldmia	r1!, {r0, r3}
	blx r3		/* call ISR */
10000ef2:	4798      	blx	r3
#ifdef CONFIG_TRACING_ISR
	bl sys_trace_isr_exit
#endif

#if defined(CONFIG_ARMV6_M_ARMV8_M_BASELINE)
	pop {r0, r3}
10000ef4:	bc09      	pop	{r0, r3}
	mov lr, r3
10000ef6:	469e      	mov	lr, r3
#endif /* CONFIG_ARMV6_M_ARMV8_M_BASELINE */

	/* Use 'bx' instead of 'b' because 'bx' can jump further, and use
	 * 'bx' instead of 'blx' because exception return is done in
	 * z_arm_int_exit() */
	ldr r1, =z_arm_int_exit
10000ef8:	4902      	ldr	r1, [pc, #8]	; (10000f04 <_isr_wrapper+0x24>)
	bx r1
10000efa:	4708      	bx	r1
	ldr r1, =16
10000efc:	00000010 	.word	0x00000010
	ldr r1, =_sw_isr_table
10000f00:	10002cd0 	.word	0x10002cd0
	ldr r1, =z_arm_int_exit
10000f04:	10000f09 	.word	0x10000f09

10000f08 <z_arm_exc_exit>:
 */

SECTION_SUBSEC_FUNC(TEXT, _HandlerModeExit, z_arm_exc_exit)

#ifdef CONFIG_PREEMPT_ENABLED
	ldr r3, =_kernel
10000f08:	4b04      	ldr	r3, [pc, #16]	; (10000f1c <_EXIT_EXC+0x4>)

	ldr r1, [r3, #_kernel_offset_to_current]
10000f0a:	6899      	ldr	r1, [r3, #8]
	ldr r0, [r3, #_kernel_offset_to_ready_q_cache]
10000f0c:	6958      	ldr	r0, [r3, #20]
	cmp r0, r1
10000f0e:	4288      	cmp	r0, r1
	beq _EXIT_EXC
10000f10:	d002      	beq.n	10000f18 <_EXIT_EXC>

	/* context switch required, pend the PendSV exception */
	ldr r1, =_SCS_ICSR
10000f12:	4903      	ldr	r1, [pc, #12]	; (10000f20 <_EXIT_EXC+0x8>)
	ldr r2, =_SCS_ICSR_PENDSV
10000f14:	4a03      	ldr	r2, [pc, #12]	; (10000f24 <_EXIT_EXC+0xc>)
	str r2, [r1]
10000f16:	600a      	str	r2, [r1, #0]

10000f18 <_EXIT_EXC>:
#else
	pop {r0, lr}
#endif /* CONFIG_ARMV6_M_ARMV8_M_BASELINE */
#endif /* CONFIG_STACK_SENTINEL */

	bx lr
10000f18:	4770      	bx	lr
10000f1a:	0000      	.short	0x0000
	ldr r3, =_kernel
10000f1c:	2000018c 	.word	0x2000018c
	ldr r1, =_SCS_ICSR
10000f20:	e000ed04 	.word	0xe000ed04
	ldr r2, =_SCS_ICSR_PENDSV
10000f24:	10000000 	.word	0x10000000

10000f28 <z_arm_fault>:
 * @param callee_regs Callee-saved registers (R4-R11, PSP)
 *
 */
void z_arm_fault(uint32_t msp, uint32_t psp, uint32_t exc_return,
	_callee_saved_t *callee_regs)
{
10000f28:	b570      	push	{r4, r5, r6, lr}
	uint32_t reason = K_ERR_CPU_EXCEPTION;
	int fault = SCB->ICSR & SCB_ICSR_VECTACTIVE_Msk;
10000f2a:	4b1b      	ldr	r3, [pc, #108]	; (10000f98 <z_arm_fault+0x70>)
{
10000f2c:	000c      	movs	r4, r1
	int fault = SCB->ICSR & SCB_ICSR_VECTACTIVE_Msk;
10000f2e:	685b      	ldr	r3, [r3, #4]
{
10000f30:	b088      	sub	sp, #32
10000f32:	05db      	lsls	r3, r3, #23
10000f34:	0ddb      	lsrs	r3, r3, #23
10000f36:	b662      	cpsie	i
10000f38:	f3bf 8f6f 	isb	sy
	*nested_exc = false;
10000f3c:	2500      	movs	r5, #0
	if ((exc_return & EXC_RETURN_INDICATOR_PREFIX) !=
10000f3e:	0e16      	lsrs	r6, r2, #24
		return NULL;
10000f40:	0029      	movs	r1, r5
	if ((exc_return & EXC_RETURN_INDICATOR_PREFIX) !=
10000f42:	2eff      	cmp	r6, #255	; 0xff
10000f44:	d109      	bne.n	10000f5a <z_arm_fault+0x32>
	if ((exc_return & EXC_RETURN_MODE_THREAD) &&
10000f46:	3ef3      	subs	r6, #243	; 0xf3
10000f48:	4016      	ands	r6, r2
10000f4a:	2e08      	cmp	r6, #8
10000f4c:	d005      	beq.n	10000f5a <z_arm_fault+0x32>
			ptr_esf = (z_arch_esf_t *)msp;
10000f4e:	0001      	movs	r1, r0
			*nested_exc = true;
10000f50:	3501      	adds	r5, #1
		if (exc_return & EXC_RETURN_MODE_THREAD) {
10000f52:	0712      	lsls	r2, r2, #28
10000f54:	d501      	bpl.n	10000f5a <z_arm_fault+0x32>
			ptr_esf =  (z_arch_esf_t *)psp;
10000f56:	0021      	movs	r1, r4
	*nested_exc = false;
10000f58:	2500      	movs	r5, #0
	uint32_t reason = K_ERR_CPU_EXCEPTION;
10000f5a:	2400      	movs	r4, #0
	switch (fault) {
10000f5c:	2b03      	cmp	r3, #3
10000f5e:	d106      	bne.n	10000f6e <z_arm_fault+0x46>
	uint16_t fault_insn = *(ret_addr - 1);
10000f60:	698b      	ldr	r3, [r1, #24]
10000f62:	3b02      	subs	r3, #2
	if (((fault_insn & 0xff00) == _SVC_OPCODE) &&
10000f64:	881a      	ldrh	r2, [r3, #0]
10000f66:	4b0d      	ldr	r3, [pc, #52]	; (10000f9c <z_arm_fault+0x74>)
10000f68:	429a      	cmp	r2, r3
10000f6a:	d100      	bne.n	10000f6e <z_arm_fault+0x46>
		reason = esf->basic.r0;
10000f6c:	680c      	ldr	r4, [r1, #0]
		return;
	}

	/* Copy ESF */
#if !defined(CONFIG_EXTRA_EXCEPTION_INFO)
	memcpy(&esf_copy, esf, sizeof(z_arch_esf_t));
10000f6e:	2220      	movs	r2, #32
10000f70:	4668      	mov	r0, sp
10000f72:	f001 faf3 	bl	1000255c <memcpy>
	/* Overwrite stacked IPSR to mark a nested exception,
	 * or a return to Thread mode. Note that this may be
	 * required, if the retrieved ESF contents are invalid
	 * due to, for instance, a stacking error.
	 */
	if (nested_exc) {
10000f76:	9b07      	ldr	r3, [sp, #28]
10000f78:	2d00      	cmp	r5, #0
10000f7a:	d00a      	beq.n	10000f92 <z_arm_fault+0x6a>
		if ((esf_copy.basic.xpsr & IPSR_ISR_Msk) == 0) {
10000f7c:	05da      	lsls	r2, r3, #23
10000f7e:	d102      	bne.n	10000f86 <z_arm_fault+0x5e>
			esf_copy.basic.xpsr |= IPSR_ISR_Msk;
10000f80:	4a07      	ldr	r2, [pc, #28]	; (10000fa0 <z_arm_fault+0x78>)
10000f82:	4313      	orrs	r3, r2
		}
	} else {
		esf_copy.basic.xpsr &= ~(IPSR_ISR_Msk);
10000f84:	9307      	str	r3, [sp, #28]

	if (IS_ENABLED(CONFIG_SIMPLIFIED_EXCEPTION_CODES) && (reason >= K_ERR_ARCH_START)) {
		reason = K_ERR_CPU_EXCEPTION;
	}

	z_arm_fatal_error(reason, &esf_copy);
10000f86:	4669      	mov	r1, sp
10000f88:	0020      	movs	r0, r4
10000f8a:	f001 fabe 	bl	1000250a <z_arm_fatal_error>
}
10000f8e:	b008      	add	sp, #32
10000f90:	bd70      	pop	{r4, r5, r6, pc}
		esf_copy.basic.xpsr &= ~(IPSR_ISR_Msk);
10000f92:	0a5b      	lsrs	r3, r3, #9
10000f94:	025b      	lsls	r3, r3, #9
10000f96:	e7f5      	b.n	10000f84 <z_arm_fault+0x5c>
10000f98:	e000ed00 	.word	0xe000ed00
10000f9c:	0000df02 	.word	0x0000df02
10000fa0:	000001ff 	.word	0x000001ff

10000fa4 <z_arm_exc_spurious>:
#else
#error Unknown ARM architecture
#endif /* CONFIG_ARMV6_M_ARMV8_M_BASELINE */
SECTION_SUBSEC_FUNC(TEXT,__fault,z_arm_exc_spurious)

	mrs r0, MSP
10000fa4:	f3ef 8008 	mrs	r0, MSP
	mrs r1, PSP
10000fa8:	f3ef 8109 	mrs	r1, PSP
	push {r0, lr}
10000fac:	b501      	push	{r0, lr}
#elif defined(CONFIG_ARMV7_M_ARMV8_M_MAINLINE)
	push {r4-r11}
#endif
	mov  r3, sp /* pointer to _callee_saved_t */
#endif /* CONFIG_EXTRA_EXCEPTION_INFO */
	mov r2, lr /* EXC_RETURN */
10000fae:	4672      	mov	r2, lr
	bl z_arm_fault
10000fb0:	f7ff ffba 	bl	10000f28 <z_arm_fault>
	 * in this routine. Therefore, we can just reset
	 * the MSP to its value prior to entering the function
	 */
	add sp, #40
#endif
	pop {r0, pc}
10000fb4:	bd01      	pop	{r0, pc}
10000fb6:	46c0      	nop			; (mov r8, r8)

10000fb8 <z_arm_interrupt_init>:
 * interrupt locking via BASEPRI works as expected.
 *
 */

void z_arm_interrupt_init(void)
{
10000fb8:	b5f0      	push	{r4, r5, r6, r7, lr}
    NVIC->IP[_IP_IDX(IRQn)]  = ((uint32_t)(NVIC->IP[_IP_IDX(IRQn)]  & ~(0xFFUL << _BIT_SHIFT(IRQn))) |
10000fba:	24c0      	movs	r4, #192	; 0xc0
	int irq = 0;
10000fbc:	2200      	movs	r2, #0
10000fbe:	2603      	movs	r6, #3
10000fc0:	25ff      	movs	r5, #255	; 0xff
10000fc2:	00a4      	lsls	r4, r4, #2
10000fc4:	0010      	movs	r0, r2
10000fc6:	002f      	movs	r7, r5
10000fc8:	4030      	ands	r0, r6
10000fca:	00c0      	lsls	r0, r0, #3
10000fcc:	4087      	lsls	r7, r0
10000fce:	4905      	ldr	r1, [pc, #20]	; (10000fe4 <z_arm_interrupt_init+0x2c>)
10000fd0:	0893      	lsrs	r3, r2, #2
10000fd2:	009b      	lsls	r3, r3, #2
10000fd4:	185b      	adds	r3, r3, r1
10000fd6:	5919      	ldr	r1, [r3, r4]

	for (; irq < CONFIG_NUM_IRQS; irq++) {
10000fd8:	3201      	adds	r2, #1
10000fda:	43b9      	bics	r1, r7
10000fdc:	5119      	str	r1, [r3, r4]
10000fde:	2a1a      	cmp	r2, #26
10000fe0:	d1f0      	bne.n	10000fc4 <z_arm_interrupt_init+0xc>
		NVIC_SetPriority((IRQn_Type)irq, _IRQ_PRIO_OFFSET);
	}
}
10000fe2:	bdf0      	pop	{r4, r5, r6, r7, pc}
10000fe4:	e000e100 	.word	0xe000e100

10000fe8 <__start>:
    bl z_arm_init_arch_hw_at_boot
#endif /* CONFIG_INIT_ARCH_HW_AT_BOOT */

    /* lock interrupts: will get unlocked when switch to main task */
#if defined(CONFIG_ARMV6_M_ARMV8_M_BASELINE)
    cpsid i
10000fe8:	b672      	cpsid	i

    /*
     * Set PSP and use it to boot without using MSP, so that it
     * gets set to z_interrupt_stacks during initialization.
     */
    ldr r0, =z_interrupt_stacks
10000fea:	4807      	ldr	r0, [pc, #28]	; (10001008 <__start+0x20>)
    ldr r1, =CONFIG_ISR_STACK_SIZE + MPU_GUARD_ALIGN_AND_SIZE
10000fec:	4907      	ldr	r1, [pc, #28]	; (1000100c <__start+0x24>)
    adds r0, r0, r1
10000fee:	1840      	adds	r0, r0, r1
    msr PSP, r0
10000ff0:	f380 8809 	msr	PSP, r0
    mrs r0, CONTROL
10000ff4:	f3ef 8014 	mrs	r0, CONTROL
    movs r1, #2
10000ff8:	2102      	movs	r1, #2
    orrs r0, r1 /* CONTROL_SPSEL_Msk */
10000ffa:	4308      	orrs	r0, r1
    msr CONTROL, r0
10000ffc:	f380 8814 	msr	CONTROL, r0
    /*
     * When changing the stack pointer, software must use an ISB instruction
     * immediately after the MSR instruction. This ensures that instructions
     * after the ISB instruction execute using the new stack pointer.
     */
    isb
10001000:	f3bf 8f6f 	isb	sy
    /*
     * 'bl' jumps the furthest of the branch instructions that are
     * supported on all platforms. So it is used when jumping to z_arm_prep_c
     * (even though we do not intend to return).
     */
    bl z_arm_prep_c
10001004:	f7ff fed6 	bl	10000db4 <z_arm_prep_c>
    ldr r0, =z_interrupt_stacks
10001008:	200001c8 	.word	0x200001c8
    ldr r1, =CONFIG_ISR_STACK_SIZE + MPU_GUARD_ALIGN_AND_SIZE
1000100c:	00000800 	.word	0x00000800

10001010 <z_impl_k_thread_abort>:
#include <kswap.h>
#include <zephyr/wait_q.h>
#include <zephyr/sys/__assert.h>

void z_impl_k_thread_abort(k_tid_t thread)
{
10001010:	b510      	push	{r4, lr}
	if (_current == thread) {
10001012:	4b0a      	ldr	r3, [pc, #40]	; (1000103c <z_impl_k_thread_abort+0x2c>)
10001014:	689b      	ldr	r3, [r3, #8]
10001016:	4283      	cmp	r3, r0
10001018:	d10d      	bne.n	10001036 <z_impl_k_thread_abort+0x26>
 */
__STATIC_FORCEINLINE uint32_t __get_IPSR(void)
{
  uint32_t result;

  __ASM volatile ("MRS %0, ipsr" : "=r" (result) );
1000101a:	f3ef 8305 	mrs	r3, IPSR
		if (arch_is_in_isr()) {
1000101e:	2b00      	cmp	r3, #0
10001020:	d009      	beq.n	10001036 <z_impl_k_thread_abort+0x26>
			 * should no longer run after we return, so
			 * Trigger PendSV, in case we are in one of the
			 * situations where the isr check is true but there
			 * is not an implicit scheduler invocation.
			 */
			SCB->ICSR |= SCB_ICSR_PENDSVSET_Msk;
10001022:	2280      	movs	r2, #128	; 0x80
10001024:	4b06      	ldr	r3, [pc, #24]	; (10001040 <z_impl_k_thread_abort+0x30>)
10001026:	0552      	lsls	r2, r2, #21
10001028:	6859      	ldr	r1, [r3, #4]
1000102a:	430a      	orrs	r2, r1
1000102c:	605a      	str	r2, [r3, #4]
			/* Clear any system calls that may be pending
			 * as they have a higher priority than the PendSV
			 * handler and will check the stack of the thread
			 * being aborted.
			 */
			SCB->SHCSR &= ~SCB_SHCSR_SVCALLPENDED_Msk;
1000102e:	6a5a      	ldr	r2, [r3, #36]	; 0x24
10001030:	4904      	ldr	r1, [pc, #16]	; (10001044 <z_impl_k_thread_abort+0x34>)
10001032:	400a      	ands	r2, r1
10001034:	625a      	str	r2, [r3, #36]	; 0x24
		}
	}

	z_thread_abort(thread);
10001036:	f001 f819 	bl	1000206c <z_thread_abort>
}
1000103a:	bd10      	pop	{r4, pc}
1000103c:	2000018c 	.word	0x2000018c
10001040:	e000ed00 	.word	0xe000ed00
10001044:	ffff7fff 	.word	0xffff7fff

10001048 <__stdout_hook_install>:

static int (*_stdout_hook)(int c) = _stdout_hook_default;

void __stdout_hook_install(int (*hook)(int c))
{
	_stdout_hook = hook;
10001048:	4b01      	ldr	r3, [pc, #4]	; (10001050 <__stdout_hook_install+0x8>)
1000104a:	6018      	str	r0, [r3, #0]
}
1000104c:	4770      	bx	lr
1000104e:	46c0      	nop			; (mov r8, r8)
10001050:	2000000c 	.word	0x2000000c

10001054 <rp2040_init>:
 *
 * \param addr Address of writable register
 * \param mask Bit-mask specifying bits to set
 */
__force_inline static void hw_set_bits(io_rw_32 *addr, uint32_t mask) {
    *(io_rw_32 *) hw_set_alias_untyped((volatile void *) addr) = mask;
10001054:	4b0e      	ldr	r3, [pc, #56]	; (10001090 <rp2040_init+0x3c>)
10001056:	4a0f      	ldr	r2, [pc, #60]	; (10001094 <rp2040_init+0x40>)
#include <hardware/resets.h>

LOG_MODULE_REGISTER(soc, CONFIG_SOC_LOG_LEVEL);

static int rp2040_init(void)
{
10001058:	b570      	push	{r4, r5, r6, lr}
1000105a:	601a      	str	r2, [r3, #0]
 *
 * \param addr Address of writable register
 * \param mask Bit-mask specifying bits to clear
 */
__force_inline static void hw_clear_bits(io_rw_32 *addr, uint32_t mask) {
    *(io_rw_32 *) hw_clear_alias_untyped((volatile void *) addr) = mask;
1000105c:	4d0e      	ldr	r5, [pc, #56]	; (10001098 <rp2040_init+0x44>)
1000105e:	4b0f      	ldr	r3, [pc, #60]	; (1000109c <rp2040_init+0x48>)
 *
 * \param bits Bit pattern indicating blocks to unreset. See \ref reset_bitmask
 */
static inline void unreset_block_wait(uint32_t bits) {
    hw_clear_bits(&resets_hw->reset, bits);
    while (~resets_hw->reset_done & bits)
10001060:	4c0f      	ldr	r4, [pc, #60]	; (100010a0 <rp2040_init+0x4c>)
10001062:	602b      	str	r3, [r5, #0]
10001064:	0019      	movs	r1, r3
10001066:	68a2      	ldr	r2, [r4, #8]
10001068:	4391      	bics	r1, r2
1000106a:	d1fb      	bne.n	10001064 <rp2040_init+0x10>
			   ~(RESETS_RESET_ADC_BITS | RESETS_RESET_RTC_BITS |
			     RESETS_RESET_SPI0_BITS | RESETS_RESET_SPI1_BITS |
			     RESETS_RESET_UART0_BITS | RESETS_RESET_UART1_BITS |
			     RESETS_RESET_USBCTRL_BITS | RESETS_RESET_PWM_BITS));

	clocks_init();
1000106c:	f000 fa5e 	bl	1000152c <clocks_init>
10001070:	4b0c      	ldr	r3, [pc, #48]	; (100010a4 <rp2040_init+0x50>)
10001072:	602b      	str	r3, [r5, #0]
10001074:	68a3      	ldr	r3, [r4, #8]
10001076:	01db      	lsls	r3, r3, #7
10001078:	3380      	adds	r3, #128	; 0x80
1000107a:	d1fb      	bne.n	10001074 <rp2040_init+0x20>
	__asm__ volatile("mrs %0, PRIMASK;"
1000107c:	f3ef 8310 	mrs	r3, PRIMASK
10001080:	b672      	cpsid	i
	if (key != 0U) {
10001082:	2b00      	cmp	r3, #0
10001084:	d102      	bne.n	1000108c <rp2040_init+0x38>
	__asm__ volatile(
10001086:	b662      	cpsie	i
10001088:	f3bf 8f6f 	isb	sy
	NMI_INIT();

	irq_unlock(key);

	return 0;
}
1000108c:	2000      	movs	r0, #0
1000108e:	bd70      	pop	{r4, r5, r6, pc}
10001090:	4000e000 	.word	0x4000e000
10001094:	ffffcdbf 	.word	0xffffcdbf
10001098:	4000f000 	.word	0x4000f000
1000109c:	003c3ffe 	.word	0x003c3ffe
100010a0:	4000c000 	.word	0x4000c000
100010a4:	01ffffff 	.word	0x01ffffff

100010a8 <uart_console_init>:
 * @brief Initialize one UART as the console/debug port
 *
 * @return 0 if successful, otherwise failed.
 */
static int uart_console_init(void)
{
100010a8:	b510      	push	{r4, lr}
100010aa:	4808      	ldr	r0, [pc, #32]	; (100010cc <uart_console_init+0x24>)
100010ac:	f001 fd27 	bl	10002afe <z_device_is_ready>
	if (!device_is_ready(uart_console_dev)) {
100010b0:	2800      	cmp	r0, #0
100010b2:	d008      	beq.n	100010c6 <uart_console_init+0x1e>
	__stdout_hook_install(console_out);
100010b4:	4c06      	ldr	r4, [pc, #24]	; (100010d0 <uart_console_init+0x28>)
100010b6:	0020      	movs	r0, r4
100010b8:	f7ff ffc6 	bl	10001048 <__stdout_hook_install>
	__printk_hook_install(console_out);
100010bc:	0020      	movs	r0, r4
100010be:	f7ff fa8d 	bl	100005dc <__printk_hook_install>
		return -ENODEV;
	}

	uart_console_hook_install();

	return 0;
100010c2:	2000      	movs	r0, #0
}
100010c4:	bd10      	pop	{r4, pc}
		return -ENODEV;
100010c6:	2013      	movs	r0, #19
100010c8:	4240      	negs	r0, r0
100010ca:	e7fb      	b.n	100010c4 <uart_console_init+0x1c>
100010cc:	10002ca0 	.word	0x10002ca0
100010d0:	100010d5 	.word	0x100010d5

100010d4 <console_out>:
{
100010d4:	b570      	push	{r4, r5, r6, lr}
100010d6:	0004      	movs	r4, r0
100010d8:	4d07      	ldr	r5, [pc, #28]	; (100010f8 <console_out+0x24>)
	if ('\n' == c) {
100010da:	280a      	cmp	r0, #10
100010dc:	d104      	bne.n	100010e8 <console_out+0x14>
					unsigned char out_char)
{
	const struct uart_driver_api *api =
		(const struct uart_driver_api *)dev->api;

	api->poll_out(dev, out_char);
100010de:	68ab      	ldr	r3, [r5, #8]
100010e0:	210d      	movs	r1, #13
100010e2:	0028      	movs	r0, r5
100010e4:	685b      	ldr	r3, [r3, #4]
100010e6:	4798      	blx	r3
100010e8:	68ab      	ldr	r3, [r5, #8]
100010ea:	0028      	movs	r0, r5
100010ec:	685b      	ldr	r3, [r3, #4]
100010ee:	b2e1      	uxtb	r1, r4
100010f0:	4798      	blx	r3
}
100010f2:	0020      	movs	r0, r4
100010f4:	bd70      	pop	{r4, r5, r6, pc}
100010f6:	46c0      	nop			; (mov r8, r8)
100010f8:	10002ca0 	.word	0x10002ca0

100010fc <gpio_rpi_isr>:
	.pin_interrupt_configure = gpio_rpi_pin_interrupt_configure,
	.manage_callback = gpio_rpi_manage_callback,
};

static void gpio_rpi_isr(const struct device *dev)
{
100010fc:	b5f7      	push	{r0, r1, r2, r4, r5, r6, r7, lr}
100010fe:	0006      	movs	r6, r0
	const io_rw_32 *status_reg;
	uint32_t events;
	uint32_t pin;

	irq_ctrl_base = &iobank0_hw->proc0_irq_ctrl;
	for (pin = 0; pin < NUM_BANK0_GPIOS; pin++) {
10001100:	2400      	movs	r4, #0
	struct gpio_rpi_data *data = dev->data;
10001102:	6903      	ldr	r3, [r0, #16]
10001104:	9301      	str	r3, [sp, #4]
		status_reg = &irq_ctrl_base->ints[pin / 8];
10001106:	08e3      	lsrs	r3, r4, #3
		events = (*status_reg >> 4 * (pin % 8)) & ALL_EVENTS;
10001108:	4a14      	ldr	r2, [pc, #80]	; (1000115c <gpio_rpi_isr+0x60>)
1000110a:	3308      	adds	r3, #8
1000110c:	009b      	lsls	r3, r3, #2
1000110e:	589b      	ldr	r3, [r3, r2]
10001110:	2207      	movs	r2, #7
10001112:	4022      	ands	r2, r4
10001114:	0092      	lsls	r2, r2, #2
10001116:	40d3      	lsrs	r3, r2
		if (events) {
10001118:	220f      	movs	r2, #15
1000111a:	4213      	tst	r3, r2
1000111c:	d103      	bne.n	10001126 <gpio_rpi_isr+0x2a>
	for (pin = 0; pin < NUM_BANK0_GPIOS; pin++) {
1000111e:	3401      	adds	r4, #1
10001120:	2c1e      	cmp	r4, #30
10001122:	d1f0      	bne.n	10001106 <gpio_rpi_isr+0xa>
			gpio_acknowledge_irq(pin, ALL_EVENTS);
			gpio_fire_callbacks(&data->callbacks, dev, BIT(pin));
		}
	}
}
10001124:	bdf7      	pop	{r0, r1, r2, r4, r5, r6, r7, pc}
			gpio_acknowledge_irq(pin, ALL_EVENTS);
10001126:	210f      	movs	r1, #15
10001128:	0020      	movs	r0, r4
1000112a:	f000 fb45 	bl	100017b8 <gpio_acknowledge_irq>
			gpio_fire_callbacks(&data->callbacks, dev, BIT(pin));
1000112e:	9b01      	ldr	r3, [sp, #4]
10001130:	6859      	ldr	r1, [r3, #4]
					const struct device *port,
					uint32_t pins)
{
	struct gpio_callback *cb, *tmp;

	SYS_SLIST_FOR_EACH_CONTAINER_SAFE(list, cb, tmp, node) {
10001132:	2900      	cmp	r1, #0
10001134:	d0f3      	beq.n	1000111e <gpio_rpi_isr+0x22>
10001136:	2701      	movs	r7, #1
10001138:	40a7      	lsls	r7, r4

#define SYS_SLIST_STATIC_INIT(ptr_to_list) {NULL, NULL}

static inline sys_snode_t *z_snode_next_peek(sys_snode_t *node)
{
	return node->next;
1000113a:	680d      	ldr	r5, [r1, #0]
1000113c:	2900      	cmp	r1, #0
1000113e:	d0ee      	beq.n	1000111e <gpio_rpi_isr+0x22>
		if (cb->pin_mask & pins) {
10001140:	688b      	ldr	r3, [r1, #8]
10001142:	001a      	movs	r2, r3
10001144:	403a      	ands	r2, r7
10001146:	423b      	tst	r3, r7
10001148:	d002      	beq.n	10001150 <gpio_rpi_isr+0x54>
			__ASSERT(cb->handler, "No callback handler!");
			cb->handler(port, cb, cb->pin_mask & pins);
1000114a:	0030      	movs	r0, r6
1000114c:	684b      	ldr	r3, [r1, #4]
1000114e:	4798      	blx	r3
	SYS_SLIST_FOR_EACH_CONTAINER_SAFE(list, cb, tmp, node) {
10001150:	1e2b      	subs	r3, r5, #0
10001152:	d000      	beq.n	10001156 <gpio_rpi_isr+0x5a>
10001154:	682b      	ldr	r3, [r5, #0]
10001156:	0029      	movs	r1, r5
10001158:	001d      	movs	r5, r3
1000115a:	e7ef      	b.n	1000113c <gpio_rpi_isr+0x40>
1000115c:	40014100 	.word	0x40014100

10001160 <uart_rpi_irq_err_disable>:
}

static void uart_rpi_irq_err_disable(const struct device *dev)
{
	const struct uart_rpi_config * const config = dev->config;
	uart_hw_t * const uart_hw = config->uart_regs;
10001160:	6843      	ldr	r3, [r0, #4]

	uart_hw->imsc &= ~(UART_UARTIMSC_OEIM_BITS |
10001162:	4903      	ldr	r1, [pc, #12]	; (10001170 <uart_rpi_irq_err_disable+0x10>)
	uart_hw_t * const uart_hw = config->uart_regs;
10001164:	685a      	ldr	r2, [r3, #4]
	uart_hw->imsc &= ~(UART_UARTIMSC_OEIM_BITS |
10001166:	6b93      	ldr	r3, [r2, #56]	; 0x38
10001168:	400b      	ands	r3, r1
1000116a:	6393      	str	r3, [r2, #56]	; 0x38
			   UART_UARTIMSC_BEIM_BITS |
			   UART_UARTIMSC_PEIM_BITS |
			   UART_UARTIMSC_FEIM_BITS |
			   UART_UARTIMSC_RTIM_BITS);
}
1000116c:	4770      	bx	lr
1000116e:	46c0      	nop			; (mov r8, r8)
10001170:	fffff83f 	.word	0xfffff83f

10001174 <uart_rpi_set_format.isra.0>:
static int uart_rpi_set_format(const struct device *dev, const struct uart_config *cfg)
10001174:	b510      	push	{r4, lr}
10001176:	2b03      	cmp	r3, #3
10001178:	d823      	bhi.n	100011c2 <uart_rpi_set_format.isra.0+0x4e>
	switch (cfg->stop_bits) {
1000117a:	2a01      	cmp	r2, #1
1000117c:	d002      	beq.n	10001184 <uart_rpi_set_format.isra.0+0x10>
1000117e:	2a03      	cmp	r2, #3
10001180:	d11f      	bne.n	100011c2 <uart_rpi_set_format.isra.0+0x4e>
10001182:	3a01      	subs	r2, #1
	switch (cfg->parity) {
10001184:	2902      	cmp	r1, #2
10001186:	d81c      	bhi.n	100011c2 <uart_rpi_set_format.isra.0+0x4e>
	uart_inst_t * const uart_inst = config->uart_dev;
10001188:	6804      	ldr	r4, [r0, #0]
    invalid_params_if(UART, data_bits < 5 || data_bits > 8);
    invalid_params_if(UART, stop_bits != 1 && stop_bits != 2);
    invalid_params_if(UART, parity != UART_PARITY_NONE && parity != UART_PARITY_EVEN && parity != UART_PARITY_ODD);
    hw_write_masked(&uart_get_hw(uart)->lcr_h,
                   ((data_bits - 5u) << UART_UARTLCR_H_WLEN_LSB) |
                   ((stop_bits - 1u) << UART_UARTLCR_H_STP2_LSB) |
1000118a:	3a01      	subs	r2, #1
1000118c:	480e      	ldr	r0, [pc, #56]	; (100011c8 <uart_rpi_set_format.isra.0+0x54>)
                   ((data_bits - 5u) << UART_UARTLCR_H_WLEN_LSB) |
1000118e:	015b      	lsls	r3, r3, #5
                   ((stop_bits - 1u) << UART_UARTLCR_H_STP2_LSB) |
10001190:	00d2      	lsls	r2, r2, #3
10001192:	5c41      	ldrb	r1, [r0, r1]
                   ((data_bits - 5u) << UART_UARTLCR_H_WLEN_LSB) |
10001194:	431a      	orrs	r2, r3
    hw_write_masked(&uart_get_hw(uart)->lcr_h,
10001196:	0020      	movs	r0, r4
                   (bool_to_bit(parity != UART_PARITY_NONE) << UART_UARTLCR_H_PEN_LSB) |
                   (bool_to_bit(parity == UART_PARITY_EVEN) << UART_UARTLCR_H_EPS_LSB),
10001198:	2300      	movs	r3, #0
    hw_write_masked(&uart_get_hw(uart)->lcr_h,
1000119a:	302c      	adds	r0, #44	; 0x2c
                   (bool_to_bit(parity != UART_PARITY_NONE) << UART_UARTLCR_H_PEN_LSB) |
1000119c:	4299      	cmp	r1, r3
1000119e:	d005      	beq.n	100011ac <uart_rpi_set_format.isra.0+0x38>
                   ((stop_bits - 1u) << UART_UARTLCR_H_STP2_LSB) |
100011a0:	3302      	adds	r3, #2
                   (bool_to_bit(parity == UART_PARITY_EVEN) << UART_UARTLCR_H_EPS_LSB),
100011a2:	3901      	subs	r1, #1
                   ((stop_bits - 1u) << UART_UARTLCR_H_STP2_LSB) |
100011a4:	431a      	orrs	r2, r3
                   (bool_to_bit(parity == UART_PARITY_EVEN) << UART_UARTLCR_H_EPS_LSB),
100011a6:	424b      	negs	r3, r1
100011a8:	4159      	adcs	r1, r3
100011aa:	008b      	lsls	r3, r1, #2
    hw_write_masked(&uart_get_hw(uart)->lcr_h,
100011ac:	431a      	orrs	r2, r3
 * \param addr Address of writable register
 * \param values Bits values
 * \param write_mask Mask of bits to change
 */
__force_inline static void hw_write_masked(io_rw_32 *addr, uint32_t values, uint32_t write_mask) {
    hw_xor_bits(addr, (*addr ^ values) & write_mask);
100011ae:	236e      	movs	r3, #110	; 0x6e
100011b0:	6ae1      	ldr	r1, [r4, #44]	; 0x2c
100011b2:	404a      	eors	r2, r1
100011b4:	401a      	ands	r2, r3
    *(io_rw_32 *) hw_xor_alias_untyped((volatile void *) addr) = mask;
100011b6:	2380      	movs	r3, #128	; 0x80
100011b8:	015b      	lsls	r3, r3, #5
100011ba:	4303      	orrs	r3, r0
	return 0;
100011bc:	2000      	movs	r0, #0
100011be:	601a      	str	r2, [r3, #0]
}
100011c0:	bd10      	pop	{r4, pc}
		return -EINVAL;
100011c2:	2016      	movs	r0, #22
100011c4:	4240      	negs	r0, r0
100011c6:	e7fb      	b.n	100011c0 <uart_rpi_set_format.isra.0+0x4c>
100011c8:	10003044 	.word	0x10003044

100011cc <uart_rpi_init>:
{
100011cc:	b5f0      	push	{r4, r5, r6, r7, lr}
	const struct uart_rpi_config *config = dev->config;
100011ce:	6845      	ldr	r5, [r0, #4]
{
100011d0:	b085      	sub	sp, #20
	uart_inst_t * const uart_inst = config->uart_dev;
100011d2:	682b      	ldr	r3, [r5, #0]
{
100011d4:	0004      	movs	r4, r0
	struct uart_rpi_data * const data = dev->data;
100011d6:	6906      	ldr	r6, [r0, #16]
				      uint8_t id)
{
	int ret;
	const struct pinctrl_state *state;

	ret = pinctrl_lookup_state(config, id, &state);
100011d8:	2100      	movs	r1, #0
100011da:	68a8      	ldr	r0, [r5, #8]
100011dc:	aa03      	add	r2, sp, #12
	uart_hw_t * const uart_hw = config->uart_regs;
100011de:	686f      	ldr	r7, [r5, #4]
	uart_inst_t * const uart_inst = config->uart_dev;
100011e0:	9301      	str	r3, [sp, #4]
100011e2:	f001 fad7 	bl	10002794 <pinctrl_lookup_state>
	if (ret < 0) {
100011e6:	2800      	cmp	r0, #0
100011e8:	db23      	blt.n	10001232 <uart_rpi_init+0x66>
		return ret;
	}

	return pinctrl_apply_state_direct(config, state);
100011ea:	9b03      	ldr	r3, [sp, #12]
	return pinctrl_configure_pins(state->pins, state->pin_cnt, reg);
100011ec:	2200      	movs	r2, #0
100011ee:	7919      	ldrb	r1, [r3, #4]
100011f0:	6818      	ldr	r0, [r3, #0]
100011f2:	f001 fae2 	bl	100027ba <pinctrl_configure_pins>
	if (ret < 0) {
100011f6:	2800      	cmp	r0, #0
100011f8:	db1b      	blt.n	10001232 <uart_rpi_init+0x66>
	baudrate = uart_init(uart_inst, data->uart_config.baudrate);
100011fa:	6831      	ldr	r1, [r6, #0]
100011fc:	9801      	ldr	r0, [sp, #4]
100011fe:	f000 fb45 	bl	1000188c <uart_init>
	if (baudrate == 0) {
10001202:	2800      	cmp	r0, #0
10001204:	d017      	beq.n	10001236 <uart_rpi_init+0x6a>
	data->uart_config = (struct uart_config){
10001206:	4b0d      	ldr	r3, [pc, #52]	; (1000123c <uart_rpi_init+0x70>)
10001208:	6030      	str	r0, [r6, #0]
1000120a:	6073      	str	r3, [r6, #4]
	uart_rpi_set_format(dev, &data->uart_config);
1000120c:	2201      	movs	r2, #1
1000120e:	2303      	movs	r3, #3
10001210:	2100      	movs	r1, #0
10001212:	6860      	ldr	r0, [r4, #4]
10001214:	f7ff ffae 	bl	10001174 <uart_rpi_set_format.isra.0>
	hw_clear_bits(&uart_hw->lcr_h, UART_UARTLCR_H_FEN_BITS);
10001218:	003a      	movs	r2, r7
    *(io_rw_32 *) hw_clear_alias_untyped((volatile void *) addr) = mask;
1000121a:	23c0      	movs	r3, #192	; 0xc0
1000121c:	322c      	adds	r2, #44	; 0x2c
1000121e:	019b      	lsls	r3, r3, #6
10001220:	4313      	orrs	r3, r2
	uart_hw->dr = 0U;
10001222:	2600      	movs	r6, #0
10001224:	2210      	movs	r2, #16
10001226:	601a      	str	r2, [r3, #0]
10001228:	603e      	str	r6, [r7, #0]
	config->irq_config_func(dev);
1000122a:	0020      	movs	r0, r4
1000122c:	696b      	ldr	r3, [r5, #20]
1000122e:	4798      	blx	r3
	return 0;
10001230:	0030      	movs	r0, r6
}
10001232:	b005      	add	sp, #20
10001234:	bdf0      	pop	{r4, r5, r6, r7, pc}
		return -EINVAL;
10001236:	2016      	movs	r0, #22
10001238:	4240      	negs	r0, r0
1000123a:	e7fa      	b.n	10001232 <uart_rpi_init+0x66>
1000123c:	00030100 	.word	0x00030100

10001240 <elapsed>:
 *     - the timer reset or the last time the function was called
 *     - and until the current call of the function is completed.
 * - the function is invoked with interrupts disabled.
 */
static uint32_t elapsed(void)
{
10001240:	b530      	push	{r4, r5, lr}
	uint32_t val1 = SysTick->VAL;	/* A */
10001242:	4b0a      	ldr	r3, [pc, #40]	; (1000126c <elapsed+0x2c>)
10001244:	4a0a      	ldr	r2, [pc, #40]	; (10001270 <elapsed+0x30>)
10001246:	6898      	ldr	r0, [r3, #8]
	uint32_t ctrl = SysTick->CTRL;	/* B */
10001248:	6819      	ldr	r1, [r3, #0]
	uint32_t val2 = SysTick->VAL;	/* C */
1000124a:	4d0a      	ldr	r5, [pc, #40]	; (10001274 <elapsed+0x34>)
1000124c:	689c      	ldr	r4, [r3, #8]
	 * 4) After C we'll see it next time
	 *
	 * So the count in val2 is post-wrap and last_load needs to be
	 * added if and only if COUNTFLAG is set or val1 < val2.
	 */
	if ((ctrl & SysTick_CTRL_COUNTFLAG_Msk)
1000124e:	03c9      	lsls	r1, r1, #15
10001250:	d401      	bmi.n	10001256 <elapsed+0x16>
	    || (val1 < val2)) {
10001252:	42a0      	cmp	r0, r4
10001254:	d204      	bcs.n	10001260 <elapsed+0x20>
		overflow_cyc += last_load;
10001256:	6811      	ldr	r1, [r2, #0]
10001258:	6828      	ldr	r0, [r5, #0]
1000125a:	1809      	adds	r1, r1, r0
1000125c:	6011      	str	r1, [r2, #0]

		/* We know there was a wrap, but we might not have
		 * seen it in CTRL, so clear it. */
		(void)SysTick->CTRL;
1000125e:	681b      	ldr	r3, [r3, #0]
	}

	return (last_load - val2) + overflow_cyc;
10001260:	682b      	ldr	r3, [r5, #0]
10001262:	6810      	ldr	r0, [r2, #0]
10001264:	18c0      	adds	r0, r0, r3
10001266:	1b00      	subs	r0, r0, r4
}
10001268:	bd30      	pop	{r4, r5, pc}
1000126a:	46c0      	nop			; (mov r8, r8)
1000126c:	e000e010 	.word	0xe000e010
10001270:	20000154 	.word	0x20000154
10001274:	20000160 	.word	0x20000160

10001278 <sys_clock_driver_init>:
static int sys_clock_driver_init(void)
{

	NVIC_SetPriority(SysTick_IRQn, _IRQ_PRIO_OFFSET);
	last_load = CYC_PER_TICK - 1;
	overflow_cyc = 0U;
10001278:	2000      	movs	r0, #0
    SCB->SHP[_SHP_IDX(IRQn)] = ((uint32_t)(SCB->SHP[_SHP_IDX(IRQn)] & ~(0xFFUL << _BIT_SHIFT(IRQn))) |
1000127a:	4a09      	ldr	r2, [pc, #36]	; (100012a0 <sys_clock_driver_init+0x28>)
1000127c:	6a13      	ldr	r3, [r2, #32]
1000127e:	021b      	lsls	r3, r3, #8
10001280:	0a1b      	lsrs	r3, r3, #8
10001282:	6213      	str	r3, [r2, #32]
	last_load = CYC_PER_TICK - 1;
10001284:	4b07      	ldr	r3, [pc, #28]	; (100012a4 <sys_clock_driver_init+0x2c>)
10001286:	4a08      	ldr	r2, [pc, #32]	; (100012a8 <sys_clock_driver_init+0x30>)
10001288:	601a      	str	r2, [r3, #0]
	overflow_cyc = 0U;
1000128a:	4b08      	ldr	r3, [pc, #32]	; (100012ac <sys_clock_driver_init+0x34>)
1000128c:	6018      	str	r0, [r3, #0]
	SysTick->LOAD = last_load;
1000128e:	4b08      	ldr	r3, [pc, #32]	; (100012b0 <sys_clock_driver_init+0x38>)
10001290:	605a      	str	r2, [r3, #4]
	SysTick->VAL = 0; /* resets timer to last_load */
	SysTick->CTRL |= (SysTick_CTRL_ENABLE_Msk |
10001292:	2207      	movs	r2, #7
	SysTick->VAL = 0; /* resets timer to last_load */
10001294:	6098      	str	r0, [r3, #8]
	SysTick->CTRL |= (SysTick_CTRL_ENABLE_Msk |
10001296:	6819      	ldr	r1, [r3, #0]
10001298:	430a      	orrs	r2, r1
1000129a:	601a      	str	r2, [r3, #0]
			  SysTick_CTRL_TICKINT_Msk |
			  SysTick_CTRL_CLKSOURCE_Msk);
	return 0;
}
1000129c:	4770      	bx	lr
1000129e:	46c0      	nop			; (mov r8, r8)
100012a0:	e000ed00 	.word	0xe000ed00
100012a4:	20000160 	.word	0x20000160
100012a8:	000030d3 	.word	0x000030d3
100012ac:	20000154 	.word	0x20000154
100012b0:	e000e010 	.word	0xe000e010

100012b4 <sys_clock_isr>:
{
100012b4:	b570      	push	{r4, r5, r6, lr}
	elapsed();
100012b6:	f7ff ffc3 	bl	10001240 <elapsed>
	cycle_count += overflow_cyc;
100012ba:	4b0b      	ldr	r3, [pc, #44]	; (100012e8 <sys_clock_isr+0x34>)
100012bc:	4a0b      	ldr	r2, [pc, #44]	; (100012ec <sys_clock_isr+0x38>)
100012be:	6818      	ldr	r0, [r3, #0]
100012c0:	6811      	ldr	r1, [r2, #0]
		dticks = (cycle_count - announced_cycles) / CYC_PER_TICK;
100012c2:	4c0b      	ldr	r4, [pc, #44]	; (100012f0 <sys_clock_isr+0x3c>)
	cycle_count += overflow_cyc;
100012c4:	1840      	adds	r0, r0, r1
100012c6:	6010      	str	r0, [r2, #0]
	overflow_cyc = 0;
100012c8:	2200      	movs	r2, #0
		dticks = (cycle_count - announced_cycles) / CYC_PER_TICK;
100012ca:	6825      	ldr	r5, [r4, #0]
	overflow_cyc = 0;
100012cc:	601a      	str	r2, [r3, #0]
		dticks = (cycle_count - announced_cycles) / CYC_PER_TICK;
100012ce:	4909      	ldr	r1, [pc, #36]	; (100012f4 <sys_clock_isr+0x40>)
100012d0:	1b40      	subs	r0, r0, r5
100012d2:	f7fe ff7d 	bl	100001d0 <__udivsi3>
		announced_cycles += dticks * CYC_PER_TICK;
100012d6:	4b07      	ldr	r3, [pc, #28]	; (100012f4 <sys_clock_isr+0x40>)
100012d8:	4343      	muls	r3, r0
100012da:	195b      	adds	r3, r3, r5
100012dc:	6023      	str	r3, [r4, #0]
		sys_clock_announce(dticks);
100012de:	f000 fff3 	bl	100022c8 <sys_clock_announce>
	z_arm_int_exit();
100012e2:	f7ff fe11 	bl	10000f08 <z_arm_exc_exit>
}
100012e6:	bd70      	pop	{r4, r5, r6, pc}
100012e8:	20000154 	.word	0x20000154
100012ec:	2000015c 	.word	0x2000015c
100012f0:	20000158 	.word	0x20000158
100012f4:	000030d4 	.word	0x000030d4

100012f8 <sys_clock_set_timeout>:
{
100012f8:	b5f0      	push	{r4, r5, r6, r7, lr}
100012fa:	4d32      	ldr	r5, [pc, #200]	; (100013c4 <sys_clock_set_timeout+0xcc>)
100012fc:	4f32      	ldr	r7, [pc, #200]	; (100013c8 <sys_clock_set_timeout+0xd0>)
100012fe:	b085      	sub	sp, #20
	if (IS_ENABLED(CONFIG_TICKLESS_KERNEL) && idle && ticks == K_TICKS_FOREVER) {
10001300:	2900      	cmp	r1, #0
10001302:	d054      	beq.n	100013ae <sys_clock_set_timeout+0xb6>
10001304:	1c43      	adds	r3, r0, #1
10001306:	d108      	bne.n	1000131a <sys_clock_set_timeout+0x22>
		SysTick->CTRL &= ~SysTick_CTRL_ENABLE_Msk;
10001308:	2201      	movs	r2, #1
1000130a:	682b      	ldr	r3, [r5, #0]
1000130c:	4393      	bics	r3, r2
1000130e:	602b      	str	r3, [r5, #0]
		last_load = TIMER_STOPPED;
10001310:	23ff      	movs	r3, #255	; 0xff
10001312:	061b      	lsls	r3, r3, #24
10001314:	603b      	str	r3, [r7, #0]
}
10001316:	b005      	add	sp, #20
10001318:	bdf0      	pop	{r4, r5, r6, r7, pc}
	uint32_t last_load_ = last_load;
1000131a:	683b      	ldr	r3, [r7, #0]
1000131c:	9301      	str	r3, [sp, #4]
	ticks = CLAMP(ticks - 1, 0, (int32_t)MAX_TICKS);
1000131e:	2600      	movs	r6, #0
10001320:	2801      	cmp	r0, #1
10001322:	dd04      	ble.n	1000132e <sys_clock_set_timeout+0x36>
10001324:	4b29      	ldr	r3, [pc, #164]	; (100013cc <sys_clock_set_timeout+0xd4>)
10001326:	001e      	movs	r6, r3
10001328:	4298      	cmp	r0, r3
1000132a:	dc00      	bgt.n	1000132e <sys_clock_set_timeout+0x36>
1000132c:	1e46      	subs	r6, r0, #1
	__asm__ volatile("mrs %0, PRIMASK;"
1000132e:	f3ef 8310 	mrs	r3, PRIMASK
10001332:	b672      	cpsid	i
10001334:	9303      	str	r3, [sp, #12]
	uint32_t pending = elapsed();
10001336:	f7ff ff83 	bl	10001240 <elapsed>
	overflow_cyc = 0U;
1000133a:	2200      	movs	r2, #0
	val1 = SysTick->VAL;
1000133c:	68ab      	ldr	r3, [r5, #8]
1000133e:	9302      	str	r3, [sp, #8]
	cycle_count += pending;
10001340:	4b23      	ldr	r3, [pc, #140]	; (100013d0 <sys_clock_set_timeout+0xd8>)
10001342:	681c      	ldr	r4, [r3, #0]
	overflow_cyc = 0U;
10001344:	4b23      	ldr	r3, [pc, #140]	; (100013d4 <sys_clock_set_timeout+0xdc>)
	cycle_count += pending;
10001346:	1904      	adds	r4, r0, r4
	overflow_cyc = 0U;
10001348:	601a      	str	r2, [r3, #0]
	uint32_t unannounced = cycle_count - announced_cycles;
1000134a:	4b23      	ldr	r3, [pc, #140]	; (100013d8 <sys_clock_set_timeout+0xe0>)
1000134c:	681b      	ldr	r3, [r3, #0]
1000134e:	9300      	str	r3, [sp, #0]
10001350:	1ae0      	subs	r0, r4, r3
	if ((int32_t)unannounced < 0) {
10001352:	4290      	cmp	r0, r2
10001354:	db31      	blt.n	100013ba <sys_clock_set_timeout+0xc2>
		delay = ticks * CYC_PER_TICK;
10001356:	4b21      	ldr	r3, [pc, #132]	; (100013dc <sys_clock_set_timeout+0xe4>)
		delay = DIV_ROUND_UP(delay, CYC_PER_TICK) * CYC_PER_TICK;
10001358:	4a21      	ldr	r2, [pc, #132]	; (100013e0 <sys_clock_set_timeout+0xe8>)
		delay = ticks * CYC_PER_TICK;
1000135a:	435e      	muls	r6, r3
		delay += unannounced;
1000135c:	1980      	adds	r0, r0, r6
		delay = DIV_ROUND_UP(delay, CYC_PER_TICK) * CYC_PER_TICK;
1000135e:	0019      	movs	r1, r3
10001360:	1880      	adds	r0, r0, r2
10001362:	f7fe ff35 	bl	100001d0 <__udivsi3>
10001366:	4b1d      	ldr	r3, [pc, #116]	; (100013dc <sys_clock_set_timeout+0xe4>)
10001368:	4358      	muls	r0, r3
		delay -= unannounced;
1000136a:	9b00      	ldr	r3, [sp, #0]
1000136c:	1b1b      	subs	r3, r3, r4
1000136e:	1818      	adds	r0, r3, r0
		delay = MAX(delay, MIN_DELAY);
10001370:	2380      	movs	r3, #128	; 0x80
10001372:	00db      	lsls	r3, r3, #3
10001374:	4298      	cmp	r0, r3
10001376:	d923      	bls.n	100013c0 <sys_clock_set_timeout+0xc8>
		if (delay > MAX_CYCLES) {
10001378:	4b1a      	ldr	r3, [pc, #104]	; (100013e4 <sys_clock_set_timeout+0xec>)
1000137a:	4298      	cmp	r0, r3
1000137c:	d820      	bhi.n	100013c0 <sys_clock_set_timeout+0xc8>
	SysTick->VAL = 0; /* resets timer to last_load */
1000137e:	2300      	movs	r3, #0
		last_load = MIN_DELAY;
10001380:	6038      	str	r0, [r7, #0]
	SysTick->LOAD = last_load - 1;
10001382:	3801      	subs	r0, #1
	val2 = SysTick->VAL;
10001384:	68a9      	ldr	r1, [r5, #8]
	SysTick->LOAD = last_load - 1;
10001386:	6068      	str	r0, [r5, #4]
	SysTick->VAL = 0; /* resets timer to last_load */
10001388:	60ab      	str	r3, [r5, #8]
	if (val1 < val2) {
1000138a:	9b02      	ldr	r3, [sp, #8]
1000138c:	9802      	ldr	r0, [sp, #8]
1000138e:	1a5b      	subs	r3, r3, r1
		cycle_count += (val1 - val2);
10001390:	191a      	adds	r2, r3, r4
	if (val1 < val2) {
10001392:	4288      	cmp	r0, r1
10001394:	d202      	bcs.n	1000139c <sys_clock_set_timeout+0xa4>
		cycle_count += (val1 + (last_load_ - val2));
10001396:	9a01      	ldr	r2, [sp, #4]
10001398:	189b      	adds	r3, r3, r2
1000139a:	191a      	adds	r2, r3, r4
1000139c:	4b0c      	ldr	r3, [pc, #48]	; (100013d0 <sys_clock_set_timeout+0xd8>)
1000139e:	601a      	str	r2, [r3, #0]
	if (key != 0U) {
100013a0:	9b03      	ldr	r3, [sp, #12]
100013a2:	2b00      	cmp	r3, #0
100013a4:	d1b7      	bne.n	10001316 <sys_clock_set_timeout+0x1e>
	__asm__ volatile(
100013a6:	b662      	cpsie	i
100013a8:	f3bf 8f6f 	isb	sy
100013ac:	e7b3      	b.n	10001316 <sys_clock_set_timeout+0x1e>
	uint32_t last_load_ = last_load;
100013ae:	683b      	ldr	r3, [r7, #0]
100013b0:	9301      	str	r3, [sp, #4]
	ticks = (ticks == K_TICKS_FOREVER) ? MAX_TICKS : ticks;
100013b2:	1c43      	adds	r3, r0, #1
100013b4:	d1b3      	bne.n	1000131e <sys_clock_set_timeout+0x26>
100013b6:	4805      	ldr	r0, [pc, #20]	; (100013cc <sys_clock_set_timeout+0xd4>)
100013b8:	e7b8      	b.n	1000132c <sys_clock_set_timeout+0x34>
100013ba:	2080      	movs	r0, #128	; 0x80
100013bc:	00c0      	lsls	r0, r0, #3
100013be:	e7de      	b.n	1000137e <sys_clock_set_timeout+0x86>
100013c0:	0018      	movs	r0, r3
100013c2:	e7dc      	b.n	1000137e <sys_clock_set_timeout+0x86>
100013c4:	e000e010 	.word	0xe000e010
100013c8:	20000160 	.word	0x20000160
100013cc:	0000053d 	.word	0x0000053d
100013d0:	2000015c 	.word	0x2000015c
100013d4:	20000154 	.word	0x20000154
100013d8:	20000158 	.word	0x20000158
100013dc:	000030d4 	.word	0x000030d4
100013e0:	000030d3 	.word	0x000030d3
100013e4:	00ffc684 	.word	0x00ffc684

100013e8 <sys_clock_elapsed>:
{
100013e8:	b510      	push	{r4, lr}
	__asm__ volatile("mrs %0, PRIMASK;"
100013ea:	f3ef 8410 	mrs	r4, PRIMASK
100013ee:	b672      	cpsid	i
	uint32_t cyc = elapsed() + cycle_count - announced_cycles;
100013f0:	f7ff ff26 	bl	10001240 <elapsed>
100013f4:	4b07      	ldr	r3, [pc, #28]	; (10001414 <sys_clock_elapsed+0x2c>)
100013f6:	4a08      	ldr	r2, [pc, #32]	; (10001418 <sys_clock_elapsed+0x30>)
100013f8:	681b      	ldr	r3, [r3, #0]
100013fa:	6812      	ldr	r2, [r2, #0]
100013fc:	1a9b      	subs	r3, r3, r2
100013fe:	1818      	adds	r0, r3, r0
	if (key != 0U) {
10001400:	2c00      	cmp	r4, #0
10001402:	d102      	bne.n	1000140a <sys_clock_elapsed+0x22>
	__asm__ volatile(
10001404:	b662      	cpsie	i
10001406:	f3bf 8f6f 	isb	sy
	return cyc / CYC_PER_TICK;
1000140a:	4904      	ldr	r1, [pc, #16]	; (1000141c <sys_clock_elapsed+0x34>)
1000140c:	f7fe fee0 	bl	100001d0 <__udivsi3>
}
10001410:	bd10      	pop	{r4, pc}
10001412:	46c0      	nop			; (mov r8, r8)
10001414:	2000015c 	.word	0x2000015c
10001418:	20000158 	.word	0x20000158
1000141c:	000030d4 	.word	0x000030d4

10001420 <sys_clock_cycle_get_32>:
{
10001420:	b510      	push	{r4, lr}
	__asm__ volatile("mrs %0, PRIMASK;"
10001422:	f3ef 8410 	mrs	r4, PRIMASK
10001426:	b672      	cpsid	i
	uint32_t ret = elapsed() + cycle_count;
10001428:	f7ff ff0a 	bl	10001240 <elapsed>
1000142c:	4b04      	ldr	r3, [pc, #16]	; (10001440 <sys_clock_cycle_get_32+0x20>)
1000142e:	681b      	ldr	r3, [r3, #0]
10001430:	18c0      	adds	r0, r0, r3
	if (key != 0U) {
10001432:	2c00      	cmp	r4, #0
10001434:	d102      	bne.n	1000143c <sys_clock_cycle_get_32+0x1c>
	__asm__ volatile(
10001436:	b662      	cpsie	i
10001438:	f3bf 8f6f 	isb	sy
}
1000143c:	bd10      	pop	{r4, pc}
1000143e:	46c0      	nop			; (mov r8, r8)
10001440:	2000015c 	.word	0x2000015c

10001444 <clock_configure>:
    hw_clear_bits(&clock->ctrl, CLOCKS_CLK_USB_CTRL_ENABLE_BITS);
    configured_freq[clk_index] = 0;
}

/// \tag::clock_configure[]
bool clock_configure(enum clock_index clk_index, uint32_t src, uint32_t auxsrc, uint32_t src_freq, uint32_t freq) {
10001444:	b5f0      	push	{r4, r5, r6, r7, lr}
10001446:	b085      	sub	sp, #20
10001448:	9201      	str	r2, [sp, #4]
    uint32_t div;

    assert(src_freq >= freq);

    if (freq > src_freq)
1000144a:	9a0a      	ldr	r2, [sp, #40]	; 0x28
bool clock_configure(enum clock_index clk_index, uint32_t src, uint32_t auxsrc, uint32_t src_freq, uint32_t freq) {
1000144c:	0005      	movs	r5, r0
1000144e:	000f      	movs	r7, r1
        return false;
10001450:	2000      	movs	r0, #0
    if (freq > src_freq)
10001452:	429a      	cmp	r2, r3
10001454:	d863      	bhi.n	1000151e <clock_configure+0xda>

    // Div register is 24.8 int.frac divider so multiply by 2^8 (left shift by 8)
    div = (uint32_t) (((uint64_t) src_freq << 8) / freq);

    clock_hw_t *clock = &clocks_hw->clk[clk_index];
10001456:	240c      	movs	r4, #12
    div = (uint32_t) (((uint64_t) src_freq << 8) / freq);
10001458:	0e1a      	lsrs	r2, r3, #24
1000145a:	021b      	lsls	r3, r3, #8
1000145c:	9203      	str	r2, [sp, #12]
1000145e:	9302      	str	r3, [sp, #8]
10001460:	9a0a      	ldr	r2, [sp, #40]	; 0x28
10001462:	0003      	movs	r3, r0
10001464:	9903      	ldr	r1, [sp, #12]
10001466:	9802      	ldr	r0, [sp, #8]
10001468:	f7fe ff18 	bl	1000029c <__aeabi_uldivmod>
    clock_hw_t *clock = &clocks_hw->clk[clk_index];
1000146c:	436c      	muls	r4, r5
1000146e:	4b2d      	ldr	r3, [pc, #180]	; (10001524 <clock_configure+0xe0>)
    div = (uint32_t) (((uint64_t) src_freq << 8) / freq);
10001470:	0006      	movs	r6, r0
    clock_hw_t *clock = &clocks_hw->clk[clk_index];
10001472:	18e4      	adds	r4, r4, r3

    // If increasing divisor, set divisor before source. Otherwise set source
    // before divisor. This avoids a momentary overspeed when e.g. switching
    // to a faster source and increasing divisor to compensate.
    if (div > clock->div)
10001474:	6863      	ldr	r3, [r4, #4]
10001476:	4283      	cmp	r3, r0
10001478:	d200      	bcs.n	1000147c <clock_configure+0x38>
        clock->div = div;
1000147a:	6060      	str	r0, [r4, #4]
    return clk_index == clk_sys || clk_index == clk_ref;
1000147c:	1f2b      	subs	r3, r5, #4
1000147e:	b2db      	uxtb	r3, r3
10001480:	9300      	str	r3, [sp, #0]
10001482:	23c0      	movs	r3, #192	; 0xc0

    // If switching a glitchless slice (ref or sys) to an aux source, switch
    // away from aux *first* to avoid passing glitches when changing aux mux.
    // Assume (!!!) glitchless source 0 is no faster than the aux source.
    if (has_glitchless_mux(clk_index) && src == CLOCKS_CLK_SYS_CTRL_SRC_VALUE_CLKSRC_CLK_SYS_AUX) {
10001484:	9a00      	ldr	r2, [sp, #0]
10001486:	019b      	lsls	r3, r3, #6
10001488:	4323      	orrs	r3, r4
1000148a:	2a01      	cmp	r2, #1
1000148c:	d81b      	bhi.n	100014c6 <clock_configure+0x82>
1000148e:	2f01      	cmp	r7, #1
10001490:	d119      	bne.n	100014c6 <clock_configure+0x82>
10001492:	2203      	movs	r2, #3
10001494:	601a      	str	r2, [r3, #0]
        hw_clear_bits(&clock->ctrl, CLOCKS_CLK_REF_CTRL_SRC_BITS);
        while (!(clock->selected & 1u))
10001496:	68a3      	ldr	r3, [r4, #8]
10001498:	423b      	tst	r3, r7
1000149a:	d0fc      	beq.n	10001496 <clock_configure+0x52>
            );
        }
    }

    // Set aux mux first, and then glitchless mux if this clock has one
    hw_write_masked(&clock->ctrl,
1000149c:	9a01      	ldr	r2, [sp, #4]
    hw_xor_bits(addr, (*addr ^ values) & write_mask);
1000149e:	6823      	ldr	r3, [r4, #0]
100014a0:	0152      	lsls	r2, r2, #5
100014a2:	405a      	eors	r2, r3
100014a4:	23e0      	movs	r3, #224	; 0xe0
100014a6:	401a      	ands	r2, r3
    *(io_rw_32 *) hw_xor_alias_untyped((volatile void *) addr) = mask;
100014a8:	2380      	movs	r3, #128	; 0x80
100014aa:	015b      	lsls	r3, r3, #5
100014ac:	4323      	orrs	r3, r4
100014ae:	601a      	str	r2, [r3, #0]
    hw_xor_bits(addr, (*addr ^ values) & write_mask);
100014b0:	2103      	movs	r1, #3
100014b2:	6822      	ldr	r2, [r4, #0]
100014b4:	407a      	eors	r2, r7
100014b6:	400a      	ands	r2, r1
    *(io_rw_32 *) hw_xor_alias_untyped((volatile void *) addr) = mask;
100014b8:	601a      	str	r2, [r3, #0]
    if (has_glitchless_mux(clk_index)) {
        hw_write_masked(&clock->ctrl,
            src << CLOCKS_CLK_REF_CTRL_SRC_LSB,
            CLOCKS_CLK_REF_CTRL_SRC_BITS
        );
        while (!(clock->selected & (1u << src)))
100014ba:	2301      	movs	r3, #1
100014bc:	40bb      	lsls	r3, r7
100014be:	68a2      	ldr	r2, [r4, #8]
100014c0:	4213      	tst	r3, r2
100014c2:	d0fc      	beq.n	100014be <clock_configure+0x7a>
100014c4:	e01a      	b.n	100014fc <clock_configure+0xb8>
    *(io_rw_32 *) hw_clear_alias_untyped((volatile void *) addr) = mask;
100014c6:	2280      	movs	r2, #128	; 0x80
100014c8:	0112      	lsls	r2, r2, #4
100014ca:	601a      	str	r2, [r3, #0]
        if (configured_freq[clk_index] > 0) {
100014cc:	4b16      	ldr	r3, [pc, #88]	; (10001528 <clock_configure+0xe4>)
100014ce:	00aa      	lsls	r2, r5, #2
100014d0:	58d1      	ldr	r1, [r2, r3]
100014d2:	2900      	cmp	r1, #0
100014d4:	d005      	beq.n	100014e2 <clock_configure+0x9e>
            uint delay_cyc = configured_freq[clk_sys] / configured_freq[clk_index] + 1;
100014d6:	6958      	ldr	r0, [r3, #20]
100014d8:	f7fe fe7a 	bl	100001d0 <__udivsi3>
100014dc:	3001      	adds	r0, #1
            asm volatile (
100014de:	3801      	subs	r0, #1
100014e0:	d1fd      	bne.n	100014de <clock_configure+0x9a>
    hw_write_masked(&clock->ctrl,
100014e2:	9a01      	ldr	r2, [sp, #4]
    hw_xor_bits(addr, (*addr ^ values) & write_mask);
100014e4:	6823      	ldr	r3, [r4, #0]
100014e6:	0152      	lsls	r2, r2, #5
100014e8:	405a      	eors	r2, r3
100014ea:	23e0      	movs	r3, #224	; 0xe0
100014ec:	401a      	ands	r2, r3
    *(io_rw_32 *) hw_xor_alias_untyped((volatile void *) addr) = mask;
100014ee:	2380      	movs	r3, #128	; 0x80
100014f0:	015b      	lsls	r3, r3, #5
100014f2:	4323      	orrs	r3, r4
100014f4:	601a      	str	r2, [r3, #0]
    if (has_glitchless_mux(clk_index)) {
100014f6:	9a00      	ldr	r2, [sp, #0]
100014f8:	2a01      	cmp	r2, #1
100014fa:	d9d9      	bls.n	100014b0 <clock_configure+0x6c>
    *(io_rw_32 *) hw_set_alias_untyped((volatile void *) addr) = mask;
100014fc:	2380      	movs	r3, #128	; 0x80
100014fe:	2280      	movs	r2, #128	; 0x80
10001500:	019b      	lsls	r3, r3, #6
10001502:	4323      	orrs	r3, r4
10001504:	0112      	lsls	r2, r2, #4
10001506:	601a      	str	r2, [r3, #0]
    // Now that the source is configured, we can trust that the user-supplied
    // divisor is a safe value.
    clock->div = div;

    // Store the configured frequency
    configured_freq[clk_index] = (uint32_t)(((uint64_t) src_freq << 8) / div);
10001508:	9802      	ldr	r0, [sp, #8]
    clock->div = div;
1000150a:	6066      	str	r6, [r4, #4]
    configured_freq[clk_index] = (uint32_t)(((uint64_t) src_freq << 8) / div);
1000150c:	0032      	movs	r2, r6
1000150e:	2300      	movs	r3, #0
10001510:	9903      	ldr	r1, [sp, #12]
10001512:	f7fe fec3 	bl	1000029c <__aeabi_uldivmod>
10001516:	4c04      	ldr	r4, [pc, #16]	; (10001528 <clock_configure+0xe4>)
10001518:	00ad      	lsls	r5, r5, #2
1000151a:	5160      	str	r0, [r4, r5]
1000151c:	2001      	movs	r0, #1

    return true;
}
1000151e:	b005      	add	sp, #20
10001520:	bdf0      	pop	{r4, r5, r6, r7, pc}
10001522:	46c0      	nop			; (mov r8, r8)
10001524:	40008000 	.word	0x40008000
10001528:	20000164 	.word	0x20000164

1000152c <clocks_init>:
/// \end::clock_configure[]

void clocks_init(void) {
1000152c:	b573      	push	{r0, r1, r4, r5, r6, lr}
    // Start tick in watchdog
    watchdog_start_tick(XOSC_MHZ);
1000152e:	200c      	movs	r0, #12
10001530:	f000 f8de 	bl	100016f0 <watchdog_start_tick>

    // Everything is 48MHz on FPGA apart from RTC. Otherwise set to 0 and will be set in clock configure
    if (running_on_fpga()) {
10001534:	f000 f8e4 	bl	10001700 <running_on_fpga>
10001538:	2800      	cmp	r0, #0
1000153a:	d00a      	beq.n	10001552 <clocks_init+0x26>
        for (uint i = 0; i < CLK_COUNT; i++) {
1000153c:	2300      	movs	r3, #0
            configured_freq[i] = 48 * PICO_MHZ;
1000153e:	4a2c      	ldr	r2, [pc, #176]	; (100015f0 <clocks_init+0xc4>)
10001540:	482c      	ldr	r0, [pc, #176]	; (100015f4 <clocks_init+0xc8>)
10001542:	0099      	lsls	r1, r3, #2
        for (uint i = 0; i < CLK_COUNT; i++) {
10001544:	3301      	adds	r3, #1
            configured_freq[i] = 48 * PICO_MHZ;
10001546:	5050      	str	r0, [r2, r1]
        for (uint i = 0; i < CLK_COUNT; i++) {
10001548:	2b0a      	cmp	r3, #10
1000154a:	d1fa      	bne.n	10001542 <clocks_init+0x16>
        }
        configured_freq[clk_rtc] = 46875;
1000154c:	4b2a      	ldr	r3, [pc, #168]	; (100015f8 <clocks_init+0xcc>)
1000154e:	6253      	str	r3, [r2, #36]	; 0x24
    clock_configure(clk_peri,
                    0,
                    CLOCKS_CLK_PERI_CTRL_AUXSRC_VALUE_CLK_SYS,
                    125 * PICO_MHZ,
                    125 * PICO_MHZ);
}
10001550:	bd73      	pop	{r0, r1, r4, r5, r6, pc}
    clocks_hw->resus.ctrl = 0;
10001552:	4d2a      	ldr	r5, [pc, #168]	; (100015fc <clocks_init+0xd0>)
10001554:	67a8      	str	r0, [r5, #120]	; 0x78
    xosc_init();
10001556:	f000 f8b7 	bl	100016c8 <xosc_init>
    *(io_rw_32 *) hw_clear_alias_untyped((volatile void *) addr) = mask;
1000155a:	2201      	movs	r2, #1
1000155c:	4b28      	ldr	r3, [pc, #160]	; (10001600 <clocks_init+0xd4>)
1000155e:	601a      	str	r2, [r3, #0]
    while (clocks_hw->clk[clk_sys].selected != 0x1)
10001560:	6c6b      	ldr	r3, [r5, #68]	; 0x44
10001562:	2b01      	cmp	r3, #1
10001564:	d1fc      	bne.n	10001560 <clocks_init+0x34>
10001566:	2203      	movs	r2, #3
10001568:	4b26      	ldr	r3, [pc, #152]	; (10001604 <clocks_init+0xd8>)
1000156a:	601a      	str	r2, [r3, #0]
    while (clocks_hw->clk[clk_ref].selected != 0x1)
1000156c:	6bac      	ldr	r4, [r5, #56]	; 0x38
1000156e:	2c01      	cmp	r4, #1
10001570:	d1fc      	bne.n	1000156c <clocks_init+0x40>
    pll_init(pll_sys, 1, 1500 * PICO_MHZ, 6, 2);
10001572:	2502      	movs	r5, #2
    pll_init(pll_usb, 1, 1200 * PICO_MHZ, 5, 5);
10001574:	2605      	movs	r6, #5
    pll_init(pll_sys, 1, 1500 * PICO_MHZ, 6, 2);
10001576:	0021      	movs	r1, r4
10001578:	9500      	str	r5, [sp, #0]
1000157a:	2306      	movs	r3, #6
1000157c:	4a22      	ldr	r2, [pc, #136]	; (10001608 <clocks_init+0xdc>)
1000157e:	4823      	ldr	r0, [pc, #140]	; (1000160c <clocks_init+0xe0>)
10001580:	f000 f854 	bl	1000162c <pll_init>
    pll_init(pll_usb, 1, 1200 * PICO_MHZ, 5, 5);
10001584:	0033      	movs	r3, r6
10001586:	0021      	movs	r1, r4
10001588:	4a21      	ldr	r2, [pc, #132]	; (10001610 <clocks_init+0xe4>)
1000158a:	4822      	ldr	r0, [pc, #136]	; (10001614 <clocks_init+0xe8>)
1000158c:	9600      	str	r6, [sp, #0]
1000158e:	f000 f84d 	bl	1000162c <pll_init>
    clock_configure(clk_ref,
10001592:	4b21      	ldr	r3, [pc, #132]	; (10001618 <clocks_init+0xec>)
10001594:	0029      	movs	r1, r5
    clock_configure(clk_sys,
10001596:	4d21      	ldr	r5, [pc, #132]	; (1000161c <clocks_init+0xf0>)
    clock_configure(clk_ref,
10001598:	9300      	str	r3, [sp, #0]
1000159a:	2200      	movs	r2, #0
1000159c:	2004      	movs	r0, #4
1000159e:	f7ff ff51 	bl	10001444 <clock_configure>
    clock_configure(clk_sys,
100015a2:	002b      	movs	r3, r5
100015a4:	0021      	movs	r1, r4
100015a6:	2200      	movs	r2, #0
100015a8:	0030      	movs	r0, r6
100015aa:	9500      	str	r5, [sp, #0]
100015ac:	f7ff ff4a 	bl	10001444 <clock_configure>
    clock_configure(clk_usb,
100015b0:	2200      	movs	r2, #0
100015b2:	4c10      	ldr	r4, [pc, #64]	; (100015f4 <clocks_init+0xc8>)
100015b4:	0011      	movs	r1, r2
100015b6:	0023      	movs	r3, r4
100015b8:	9400      	str	r4, [sp, #0]
100015ba:	2007      	movs	r0, #7
100015bc:	f7ff ff42 	bl	10001444 <clock_configure>
    clock_configure(clk_adc,
100015c0:	2200      	movs	r2, #0
100015c2:	0023      	movs	r3, r4
100015c4:	0011      	movs	r1, r2
100015c6:	9400      	str	r4, [sp, #0]
100015c8:	2008      	movs	r0, #8
100015ca:	f7ff ff3b 	bl	10001444 <clock_configure>
    clock_configure(clk_rtc,
100015ce:	2200      	movs	r2, #0
100015d0:	4b09      	ldr	r3, [pc, #36]	; (100015f8 <clocks_init+0xcc>)
100015d2:	0011      	movs	r1, r2
100015d4:	9300      	str	r3, [sp, #0]
100015d6:	2009      	movs	r0, #9
100015d8:	0023      	movs	r3, r4
100015da:	f7ff ff33 	bl	10001444 <clock_configure>
    clock_configure(clk_peri,
100015de:	2200      	movs	r2, #0
100015e0:	002b      	movs	r3, r5
100015e2:	0011      	movs	r1, r2
100015e4:	9500      	str	r5, [sp, #0]
100015e6:	2006      	movs	r0, #6
100015e8:	f7ff ff2c 	bl	10001444 <clock_configure>
100015ec:	e7b0      	b.n	10001550 <clocks_init+0x24>
100015ee:	46c0      	nop			; (mov r8, r8)
100015f0:	20000164 	.word	0x20000164
100015f4:	02dc6c00 	.word	0x02dc6c00
100015f8:	0000b71b 	.word	0x0000b71b
100015fc:	40008000 	.word	0x40008000
10001600:	4000b03c 	.word	0x4000b03c
10001604:	4000b030 	.word	0x4000b030
10001608:	59682f00 	.word	0x59682f00
1000160c:	40028000 	.word	0x40028000
10001610:	47868c00 	.word	0x47868c00
10001614:	4002c000 	.word	0x4002c000
10001618:	00b71b00 	.word	0x00b71b00
1000161c:	07735940 	.word	0x07735940

10001620 <clock_get_hz>:

/// \tag::clock_get_hz[]
uint32_t clock_get_hz(enum clock_index clk_index) {
    return configured_freq[clk_index];
10001620:	4b01      	ldr	r3, [pc, #4]	; (10001628 <clock_get_hz+0x8>)
10001622:	0080      	lsls	r0, r0, #2
10001624:	58c0      	ldr	r0, [r0, r3]
}
10001626:	4770      	bx	lr
10001628:	20000164 	.word	0x20000164

1000162c <pll_init>:
#include "hardware/clocks.h"
#include "hardware/pll.h"
#include "hardware/resets.h"

/// \tag::pll_init_calculations[]
void pll_init(PLL pll, uint refdiv, uint vco_freq, uint post_div1, uint post_div2) {
1000162c:	b5f8      	push	{r3, r4, r5, r6, r7, lr}
1000162e:	0004      	movs	r4, r0
    uint32_t ref_mhz = XOSC_MHZ / refdiv;
10001630:	200c      	movs	r0, #12
void pll_init(PLL pll, uint refdiv, uint vco_freq, uint post_div1, uint post_div2) {
10001632:	0017      	movs	r7, r2
10001634:	001e      	movs	r6, r3
10001636:	000d      	movs	r5, r1
    uint32_t ref_mhz = XOSC_MHZ / refdiv;
10001638:	f7fe fdca 	bl	100001d0 <__udivsi3>
    // Check vco freq is in an acceptable range
    assert(vco_freq >= (PICO_PLL_VCO_MIN_FREQ_MHZ * PICO_MHZ) && vco_freq <= (PICO_PLL_VCO_MAX_FREQ_MHZ * PICO_MHZ));

    // What are we multiplying the reference clock by to get the vco freq
    // (The regs are called div, because you divide the vco output and compare it to the refclk)
    uint32_t fbdiv = vco_freq / (ref_mhz * PICO_MHZ);
1000163c:	491d      	ldr	r1, [pc, #116]	; (100016b4 <pll_init+0x88>)
1000163e:	4341      	muls	r1, r0
10001640:	0038      	movs	r0, r7
10001642:	f7fe fdc5 	bl	100001d0 <__udivsi3>
    // Check that reference frequency is no greater than vco / 16
    assert(ref_mhz <= (vco_freq / 16));

    // div1 feeds into div2 so if div1 is 5 and div2 is 2 then you get a divide by 10
    uint32_t pdiv = (post_div1 << PLL_PRIM_POSTDIV1_LSB) |
                    (post_div2 << PLL_PRIM_POSTDIV2_LSB);
10001646:	9a06      	ldr	r2, [sp, #24]
    uint32_t pdiv = (post_div1 << PLL_PRIM_POSTDIV1_LSB) |
10001648:	0433      	lsls	r3, r6, #16
                    (post_div2 << PLL_PRIM_POSTDIV2_LSB);
1000164a:	0312      	lsls	r2, r2, #12
    uint32_t pdiv = (post_div1 << PLL_PRIM_POSTDIV1_LSB) |
1000164c:	4313      	orrs	r3, r2

/// \tag::pll_init_finish[]
    if ((pll->cs & PLL_CS_LOCK_BITS) &&
1000164e:	6822      	ldr	r2, [r4, #0]
10001650:	2a00      	cmp	r2, #0
10001652:	da0f      	bge.n	10001674 <pll_init+0x48>
        (refdiv == (pll->cs & PLL_CS_REFDIV_BITS)) &&
10001654:	213f      	movs	r1, #63	; 0x3f
10001656:	6822      	ldr	r2, [r4, #0]
10001658:	400a      	ands	r2, r1
    if ((pll->cs & PLL_CS_LOCK_BITS) &&
1000165a:	42aa      	cmp	r2, r5
1000165c:	d10a      	bne.n	10001674 <pll_init+0x48>
        (fbdiv  == (pll->fbdiv_int & PLL_FBDIV_INT_BITS)) &&
1000165e:	68a2      	ldr	r2, [r4, #8]
10001660:	0512      	lsls	r2, r2, #20
10001662:	0d12      	lsrs	r2, r2, #20
        (refdiv == (pll->cs & PLL_CS_REFDIV_BITS)) &&
10001664:	4282      	cmp	r2, r0
10001666:	d105      	bne.n	10001674 <pll_init+0x48>
        (pdiv   == (pll->prim & (PLL_PRIM_POSTDIV1_BITS | PLL_PRIM_POSTDIV2_BITS)))) {
10001668:	21ee      	movs	r1, #238	; 0xee
1000166a:	68e2      	ldr	r2, [r4, #12]
1000166c:	02c9      	lsls	r1, r1, #11
1000166e:	400a      	ands	r2, r1
        (fbdiv  == (pll->fbdiv_int & PLL_FBDIV_INT_BITS)) &&
10001670:	429a      	cmp	r2, r3
10001672:	d01b      	beq.n	100016ac <pll_init+0x80>
        // do not disrupt PLL that is already correctly configured and operating
        return;
    }

    uint32_t pll_reset = (pll_usb_hw == pll) ? RESETS_RESET_PLL_USB_BITS : RESETS_RESET_PLL_SYS_BITS;
10001674:	4a10      	ldr	r2, [pc, #64]	; (100016b8 <pll_init+0x8c>)
10001676:	4294      	cmp	r4, r2
10001678:	d019      	beq.n	100016ae <pll_init+0x82>
1000167a:	2280      	movs	r2, #128	; 0x80
1000167c:	0152      	lsls	r2, r2, #5
    *(io_rw_32 *) hw_set_alias_untyped((volatile void *) addr) = mask;
1000167e:	490f      	ldr	r1, [pc, #60]	; (100016bc <pll_init+0x90>)
10001680:	4e0f      	ldr	r6, [pc, #60]	; (100016c0 <pll_init+0x94>)
10001682:	600a      	str	r2, [r1, #0]
    *(io_rw_32 *) hw_clear_alias_untyped((volatile void *) addr) = mask;
10001684:	490f      	ldr	r1, [pc, #60]	; (100016c4 <pll_init+0x98>)
10001686:	600a      	str	r2, [r1, #0]
10001688:	0017      	movs	r7, r2
1000168a:	68b1      	ldr	r1, [r6, #8]
1000168c:	438f      	bics	r7, r1
1000168e:	d1fb      	bne.n	10001688 <pll_init+0x5c>
10001690:	22c0      	movs	r2, #192	; 0xc0

    // Turn on PLL
    uint32_t power = PLL_PWR_PD_BITS | // Main power
                     PLL_PWR_VCOPD_BITS; // VCO Power

    hw_clear_bits(&pll->pwr, power);
10001692:	1d21      	adds	r1, r4, #4
10001694:	0192      	lsls	r2, r2, #6
10001696:	430a      	orrs	r2, r1
10001698:	2121      	movs	r1, #33	; 0x21
    pll->cs = refdiv;
1000169a:	6025      	str	r5, [r4, #0]
    pll->fbdiv_int = fbdiv;
1000169c:	60a0      	str	r0, [r4, #8]
1000169e:	6011      	str	r1, [r2, #0]

    // Wait for PLL to lock
    while (!(pll->cs & PLL_CS_LOCK_BITS)) tight_loop_contents();
100016a0:	6821      	ldr	r1, [r4, #0]
100016a2:	2900      	cmp	r1, #0
100016a4:	dafc      	bge.n	100016a0 <pll_init+0x74>

    // Set up post dividers
    pll->prim = pdiv;
100016a6:	60e3      	str	r3, [r4, #12]
100016a8:	2308      	movs	r3, #8
100016aa:	6013      	str	r3, [r2, #0]

    // Turn on post divider
    hw_clear_bits(&pll->pwr, PLL_PWR_POSTDIVPD_BITS);
/// \end::pll_init_finish[]
}
100016ac:	bdf8      	pop	{r3, r4, r5, r6, r7, pc}
    uint32_t pll_reset = (pll_usb_hw == pll) ? RESETS_RESET_PLL_USB_BITS : RESETS_RESET_PLL_SYS_BITS;
100016ae:	2280      	movs	r2, #128	; 0x80
100016b0:	0192      	lsls	r2, r2, #6
100016b2:	e7e4      	b.n	1000167e <pll_init+0x52>
100016b4:	000f4240 	.word	0x000f4240
100016b8:	4002c000 	.word	0x4002c000
100016bc:	4000e000 	.word	0x4000e000
100016c0:	4000c000 	.word	0x4000c000
100016c4:	4000f000 	.word	0x4000f000

100016c8 <xosc_init>:
#error PICO_XOSC_STARTUP_DELAY_MULTIPLIER is too large: XOSC STARTUP.DELAY must be < 8192
#endif

void xosc_init(void) {
    // Assumes 1-15 MHz input, checked above.
    xosc_hw->ctrl = XOSC_CTRL_FREQ_RANGE_VALUE_1_15MHZ;
100016c8:	22aa      	movs	r2, #170	; 0xaa
100016ca:	4b06      	ldr	r3, [pc, #24]	; (100016e4 <xosc_init+0x1c>)
100016cc:	0112      	lsls	r2, r2, #4
100016ce:	601a      	str	r2, [r3, #0]

    // Set xosc startup delay
    xosc_hw->startup = STARTUP_DELAY;
100016d0:	222f      	movs	r2, #47	; 0x2f
    *(io_rw_32 *) hw_set_alias_untyped((volatile void *) addr) = mask;
100016d2:	4905      	ldr	r1, [pc, #20]	; (100016e8 <xosc_init+0x20>)
100016d4:	60da      	str	r2, [r3, #12]
100016d6:	4a05      	ldr	r2, [pc, #20]	; (100016ec <xosc_init+0x24>)
100016d8:	6011      	str	r1, [r2, #0]

    // Set the enable bit now that we have set freq range and startup delay
    hw_set_bits(&xosc_hw->ctrl, XOSC_CTRL_ENABLE_VALUE_ENABLE << XOSC_CTRL_ENABLE_LSB);

    // Wait for XOSC to be stable
    while(!(xosc_hw->status & XOSC_STATUS_STABLE_BITS));
100016da:	685a      	ldr	r2, [r3, #4]
100016dc:	2a00      	cmp	r2, #0
100016de:	dafc      	bge.n	100016da <xosc_init+0x12>
}
100016e0:	4770      	bx	lr
100016e2:	46c0      	nop			; (mov r8, r8)
100016e4:	40024000 	.word	0x40024000
100016e8:	00fab000 	.word	0x00fab000
100016ec:	40026000 	.word	0x40026000

100016f0 <watchdog_start_tick>:
#include "hardware/structs/psm.h"

/// \tag::watchdog_start_tick[]
void watchdog_start_tick(uint cycles) {
    // Important: This function also provides a tick reference to the timer
    watchdog_hw->tick = cycles | WATCHDOG_TICK_ENABLE_BITS;
100016f0:	2380      	movs	r3, #128	; 0x80
100016f2:	4a02      	ldr	r2, [pc, #8]	; (100016fc <watchdog_start_tick+0xc>)
100016f4:	009b      	lsls	r3, r3, #2
100016f6:	4303      	orrs	r3, r0
100016f8:	62d3      	str	r3, [r2, #44]	; 0x2c
}
100016fa:	4770      	bx	lr
100016fc:	40058000 	.word	0x40058000

10001700 <running_on_fpga>:

#if !PICO_NO_FPGA_CHECK
// Inline stub provided in header if this code is unused (so folding can be
// done in each TU instead of relying on LTO)
bool running_on_fpga() {
    return !!((*(io_ro_32 *)TBMAN_BASE) & TBMAN_PLATFORM_FPGA_BITS);
10001700:	4b02      	ldr	r3, [pc, #8]	; (1000170c <running_on_fpga+0xc>)
10001702:	6818      	ldr	r0, [r3, #0]
10001704:	0780      	lsls	r0, r0, #30
10001706:	0fc0      	lsrs	r0, r0, #31
}
10001708:	4770      	bx	lr
1000170a:	46c0      	nop			; (mov r8, r8)
1000170c:	4006c000 	.word	0x4006c000

10001710 <gpio_set_function>:
// This also clears the input/output/irq override bits.
void gpio_set_function(uint gpio, enum gpio_function fn) {
    check_gpio_param(gpio);
    invalid_params_if(GPIO, ((uint32_t)fn << IO_BANK0_GPIO0_CTRL_FUNCSEL_LSB) & ~IO_BANK0_GPIO0_CTRL_FUNCSEL_BITS);
    // Set input enable on, output disable off
    hw_write_masked(&padsbank0_hw->io[gpio],
10001710:	4b08      	ldr	r3, [pc, #32]	; (10001734 <gpio_set_function+0x24>)
10001712:	0082      	lsls	r2, r0, #2
10001714:	18d2      	adds	r2, r2, r3
    hw_xor_bits(addr, (*addr ^ values) & write_mask);
10001716:	2340      	movs	r3, #64	; 0x40
void gpio_set_function(uint gpio, enum gpio_function fn) {
10001718:	b510      	push	{r4, lr}
1000171a:	6814      	ldr	r4, [r2, #0]
                   PADS_BANK0_GPIO0_IE_BITS,
                   PADS_BANK0_GPIO0_IE_BITS | PADS_BANK0_GPIO0_OD_BITS
    );
    // Zero all fields apart from fsel; we want this IO to do what the peripheral tells it.
    // This doesn't affect e.g. pullup/pulldown, as these are in pad controls.
    iobank0_hw->io[gpio].ctrl = fn << IO_BANK0_GPIO0_CTRL_FUNCSEL_LSB;
1000171c:	00c0      	lsls	r0, r0, #3
1000171e:	4063      	eors	r3, r4
10001720:	24c0      	movs	r4, #192	; 0xc0
10001722:	4023      	ands	r3, r4
    *(io_rw_32 *) hw_xor_alias_untyped((volatile void *) addr) = mask;
10001724:	2480      	movs	r4, #128	; 0x80
10001726:	0164      	lsls	r4, r4, #5
10001728:	4322      	orrs	r2, r4
1000172a:	6013      	str	r3, [r2, #0]
1000172c:	4b02      	ldr	r3, [pc, #8]	; (10001738 <gpio_set_function+0x28>)
1000172e:	18c0      	adds	r0, r0, r3
10001730:	6041      	str	r1, [r0, #4]
}
10001732:	bd10      	pop	{r4, pc}
10001734:	4001c004 	.word	0x4001c004
10001738:	40014000 	.word	0x40014000

1000173c <gpio_set_pulls>:

// Note that, on RP2040, setting both pulls enables a "bus keep" function,
// i.e. weak pull to whatever is current high/low state of GPIO.
void gpio_set_pulls(uint gpio, bool up, bool down) {
    check_gpio_param(gpio);
    hw_write_masked(
1000173c:	4b07      	ldr	r3, [pc, #28]	; (1000175c <gpio_set_pulls+0x20>)
1000173e:	0080      	lsls	r0, r0, #2
10001740:	18c0      	adds	r0, r0, r3
    hw_xor_bits(addr, (*addr ^ values) & write_mask);
10001742:	6803      	ldr	r3, [r0, #0]
            &padsbank0_hw->io[gpio],
            (bool_to_bit(up) << PADS_BANK0_GPIO0_PUE_LSB) | (bool_to_bit(down) << PADS_BANK0_GPIO0_PDE_LSB),
10001744:	00c9      	lsls	r1, r1, #3
10001746:	0092      	lsls	r2, r2, #2
    hw_write_masked(
10001748:	430a      	orrs	r2, r1
1000174a:	405a      	eors	r2, r3
1000174c:	230c      	movs	r3, #12
1000174e:	401a      	ands	r2, r3
    *(io_rw_32 *) hw_xor_alias_untyped((volatile void *) addr) = mask;
10001750:	2380      	movs	r3, #128	; 0x80
10001752:	015b      	lsls	r3, r3, #5
10001754:	4303      	orrs	r3, r0
10001756:	601a      	str	r2, [r3, #0]
            PADS_BANK0_GPIO0_PUE_BITS | PADS_BANK0_GPIO0_PDE_BITS
    );
}
10001758:	4770      	bx	lr
1000175a:	46c0      	nop			; (mov r8, r8)
1000175c:	4001c004 	.word	0x4001c004

10001760 <gpio_set_input_hysteresis_enabled>:
}

void gpio_set_input_hysteresis_enabled(uint gpio, bool enabled) {
    check_gpio_param(gpio);
    if (enabled)
        hw_set_bits(&padsbank0_hw->io[gpio], PADS_BANK0_GPIO0_SCHMITT_BITS);
10001760:	4b05      	ldr	r3, [pc, #20]	; (10001778 <gpio_set_input_hysteresis_enabled+0x18>)
10001762:	0080      	lsls	r0, r0, #2
10001764:	18c0      	adds	r0, r0, r3
10001766:	2202      	movs	r2, #2
    *(io_rw_32 *) hw_set_alias_untyped((volatile void *) addr) = mask;
10001768:	2380      	movs	r3, #128	; 0x80
    if (enabled)
1000176a:	2900      	cmp	r1, #0
1000176c:	d100      	bne.n	10001770 <gpio_set_input_hysteresis_enabled+0x10>
    *(io_rw_32 *) hw_clear_alias_untyped((volatile void *) addr) = mask;
1000176e:	23c0      	movs	r3, #192	; 0xc0
10001770:	019b      	lsls	r3, r3, #6
10001772:	4303      	orrs	r3, r0
10001774:	601a      	str	r2, [r3, #0]
    else
        hw_clear_bits(&padsbank0_hw->io[gpio], PADS_BANK0_GPIO0_SCHMITT_BITS);
}
10001776:	4770      	bx	lr
10001778:	4001c004 	.word	0x4001c004

1000177c <gpio_set_slew_rate>:
    return (padsbank0_hw->io[gpio] & PADS_BANK0_GPIO0_SCHMITT_BITS) != 0;
}

void gpio_set_slew_rate(uint gpio, enum gpio_slew_rate slew) {
    check_gpio_param(gpio);
    hw_write_masked(&padsbank0_hw->io[gpio],
1000177c:	4b05      	ldr	r3, [pc, #20]	; (10001794 <gpio_set_slew_rate+0x18>)
1000177e:	0080      	lsls	r0, r0, #2
10001780:	18c0      	adds	r0, r0, r3
    hw_xor_bits(addr, (*addr ^ values) & write_mask);
10001782:	6803      	ldr	r3, [r0, #0]
10001784:	4059      	eors	r1, r3
10001786:	2301      	movs	r3, #1
10001788:	4019      	ands	r1, r3
    *(io_rw_32 *) hw_xor_alias_untyped((volatile void *) addr) = mask;
1000178a:	2380      	movs	r3, #128	; 0x80
1000178c:	015b      	lsls	r3, r3, #5
1000178e:	4303      	orrs	r3, r0
10001790:	6019      	str	r1, [r3, #0]
                    (uint)slew << PADS_BANK0_GPIO0_SLEWFAST_LSB,
                    PADS_BANK0_GPIO0_SLEWFAST_BITS
    );
}
10001792:	4770      	bx	lr
10001794:	4001c004 	.word	0x4001c004

10001798 <gpio_set_drive_strength>:

// Enum encoding should match hardware encoding on RP2040
static_assert(PADS_BANK0_GPIO0_DRIVE_VALUE_8MA == GPIO_DRIVE_STRENGTH_8MA, "");
void gpio_set_drive_strength(uint gpio, enum gpio_drive_strength drive) {
    check_gpio_param(gpio);
    hw_write_masked(&padsbank0_hw->io[gpio],
10001798:	4b06      	ldr	r3, [pc, #24]	; (100017b4 <gpio_set_drive_strength+0x1c>)
1000179a:	0080      	lsls	r0, r0, #2
1000179c:	18c0      	adds	r0, r0, r3
    hw_xor_bits(addr, (*addr ^ values) & write_mask);
1000179e:	6803      	ldr	r3, [r0, #0]
100017a0:	0109      	lsls	r1, r1, #4
100017a2:	4059      	eors	r1, r3
100017a4:	2330      	movs	r3, #48	; 0x30
100017a6:	4019      	ands	r1, r3
    *(io_rw_32 *) hw_xor_alias_untyped((volatile void *) addr) = mask;
100017a8:	2380      	movs	r3, #128	; 0x80
100017aa:	015b      	lsls	r3, r3, #5
100017ac:	4303      	orrs	r3, r0
100017ae:	6019      	str	r1, [r3, #0]
                    (uint)drive << PADS_BANK0_GPIO0_DRIVE_LSB,
                    PADS_BANK0_GPIO0_DRIVE_BITS
    );
}
100017b0:	4770      	bx	lr
100017b2:	46c0      	nop			; (mov r8, r8)
100017b4:	4001c004 	.word	0x4001c004

100017b8 <gpio_acknowledge_irq>:
    _gpio_set_irq_enabled(gpio, events, enabled, irq_ctrl_base);
}

void gpio_acknowledge_irq(uint gpio, uint32_t events) {
    check_gpio_param(gpio);
    iobank0_hw->intr[gpio / 8] = events << (4 * (gpio % 8));
100017b8:	2207      	movs	r2, #7
100017ba:	08c3      	lsrs	r3, r0, #3
100017bc:	4010      	ands	r0, r2
100017be:	0080      	lsls	r0, r0, #2
100017c0:	4081      	lsls	r1, r0
100017c2:	4a02      	ldr	r2, [pc, #8]	; (100017cc <gpio_acknowledge_irq+0x14>)
100017c4:	333c      	adds	r3, #60	; 0x3c
100017c6:	009b      	lsls	r3, r3, #2
100017c8:	5099      	str	r1, [r3, r2]
}
100017ca:	4770      	bx	lr
100017cc:	40014000 	.word	0x40014000

100017d0 <gpio_set_irq_enabled>:
void gpio_set_irq_enabled(uint gpio, uint32_t events, bool enabled) {
100017d0:	b5f8      	push	{r3, r4, r5, r6, r7, lr}
 *  \ingroup pico_platform
 *
 * \return The core number the call was made from
 */
__force_inline static uint get_core_num(void) {
    return (*(uint32_t *) (SIO_BASE + SIO_CPUID_OFFSET));
100017d2:	23d0      	movs	r3, #208	; 0xd0
100017d4:	061b      	lsls	r3, r3, #24
                                           &iobank0_hw->proc1_irq_ctrl : &iobank0_hw->proc0_irq_ctrl;
100017d6:	681c      	ldr	r4, [r3, #0]
void gpio_set_irq_enabled(uint gpio, uint32_t events, bool enabled) {
100017d8:	0005      	movs	r5, r0
                                           &iobank0_hw->proc1_irq_ctrl : &iobank0_hw->proc0_irq_ctrl;
100017da:	4263      	negs	r3, r4
100017dc:	415c      	adcs	r4, r3
100017de:	232f      	movs	r3, #47	; 0x2f
100017e0:	4264      	negs	r4, r4
100017e2:	439c      	bics	r4, r3
100017e4:	4b0a      	ldr	r3, [pc, #40]	; (10001810 <gpio_set_irq_enabled+0x40>)
void gpio_set_irq_enabled(uint gpio, uint32_t events, bool enabled) {
100017e6:	000f      	movs	r7, r1
                                           &iobank0_hw->proc1_irq_ctrl : &iobank0_hw->proc0_irq_ctrl;
100017e8:	18e4      	adds	r4, r4, r3
void gpio_set_irq_enabled(uint gpio, uint32_t events, bool enabled) {
100017ea:	0016      	movs	r6, r2
    gpio_acknowledge_irq(gpio, events);
100017ec:	f7ff ffe4 	bl	100017b8 <gpio_acknowledge_irq>
    events <<= 4 * (gpio % 8);
100017f0:	2307      	movs	r3, #7
100017f2:	402b      	ands	r3, r5
    io_rw_32 *en_reg = &irq_ctrl_base->inte[gpio / 8];
100017f4:	08ed      	lsrs	r5, r5, #3
    events <<= 4 * (gpio % 8);
100017f6:	009b      	lsls	r3, r3, #2
    io_rw_32 *en_reg = &irq_ctrl_base->inte[gpio / 8];
100017f8:	00ad      	lsls	r5, r5, #2
    events <<= 4 * (gpio % 8);
100017fa:	409f      	lsls	r7, r3
    io_rw_32 *en_reg = &irq_ctrl_base->inte[gpio / 8];
100017fc:	1964      	adds	r4, r4, r5
    *(io_rw_32 *) hw_set_alias_untyped((volatile void *) addr) = mask;
100017fe:	2380      	movs	r3, #128	; 0x80
    if (enabled)
10001800:	2e00      	cmp	r6, #0
10001802:	d100      	bne.n	10001806 <gpio_set_irq_enabled+0x36>
    *(io_rw_32 *) hw_clear_alias_untyped((volatile void *) addr) = mask;
10001804:	23c0      	movs	r3, #192	; 0xc0
10001806:	019b      	lsls	r3, r3, #6
10001808:	4323      	orrs	r3, r4
1000180a:	601f      	str	r7, [r3, #0]
}
1000180c:	bdf8      	pop	{r3, r4, r5, r6, r7, pc}
1000180e:	46c0      	nop			; (mov r8, r8)
10001810:	40014130 	.word	0x40014130

10001814 <gpio_set_input_enabled>:
#endif
}

void gpio_set_input_enabled(uint gpio, bool enabled) {
    if (enabled)
        hw_set_bits(&padsbank0_hw->io[gpio], PADS_BANK0_GPIO0_IE_BITS);
10001814:	4b05      	ldr	r3, [pc, #20]	; (1000182c <gpio_set_input_enabled+0x18>)
10001816:	0080      	lsls	r0, r0, #2
10001818:	18c0      	adds	r0, r0, r3
1000181a:	2240      	movs	r2, #64	; 0x40
    *(io_rw_32 *) hw_set_alias_untyped((volatile void *) addr) = mask;
1000181c:	2380      	movs	r3, #128	; 0x80
    if (enabled)
1000181e:	2900      	cmp	r1, #0
10001820:	d100      	bne.n	10001824 <gpio_set_input_enabled+0x10>
    *(io_rw_32 *) hw_clear_alias_untyped((volatile void *) addr) = mask;
10001822:	23c0      	movs	r3, #192	; 0xc0
10001824:	019b      	lsls	r3, r3, #6
10001826:	4303      	orrs	r3, r0
10001828:	601a      	str	r2, [r3, #0]
    else
        hw_clear_bits(&padsbank0_hw->io[gpio], PADS_BANK0_GPIO0_IE_BITS);
}
1000182a:	4770      	bx	lr
1000182c:	4001c004 	.word	0x4001c004

10001830 <uart_set_baudrate>:
    invalid_params_if(UART, uart != uart0 && uart != uart1);
    uart_reset(uart);
}

/// \tag::uart_set_baudrate[]
uint uart_set_baudrate(uart_inst_t *uart, uint baudrate) {
10001830:	b570      	push	{r4, r5, r6, lr}
10001832:	0006      	movs	r6, r0
    invalid_params_if(UART, baudrate == 0);
    uint32_t baud_rate_div = (8 * clock_get_hz(clk_peri) / baudrate);
10001834:	2006      	movs	r0, #6
uint uart_set_baudrate(uart_inst_t *uart, uint baudrate) {
10001836:	000c      	movs	r4, r1
    uint32_t baud_rate_div = (8 * clock_get_hz(clk_peri) / baudrate);
10001838:	f7ff fef2 	bl	10001620 <clock_get_hz>
1000183c:	0021      	movs	r1, r4
1000183e:	00c0      	lsls	r0, r0, #3
10001840:	f7fe fcc6 	bl	100001d0 <__udivsi3>
    uint32_t baud_ibrd = baud_rate_div >> 7;
    uint32_t baud_fbrd;

    if (baud_ibrd == 0) {
        baud_ibrd = 1;
10001844:	2401      	movs	r4, #1
    uint32_t baud_ibrd = baud_rate_div >> 7;
10001846:	09c5      	lsrs	r5, r0, #7
    if (baud_ibrd == 0) {
10001848:	d007      	beq.n	1000185a <uart_set_baudrate+0x2a>
        baud_fbrd = 0;
    } else if (baud_ibrd >= 65535) {
1000184a:	4b0e      	ldr	r3, [pc, #56]	; (10001884 <uart_set_baudrate+0x54>)
1000184c:	429d      	cmp	r5, r3
1000184e:	d815      	bhi.n	1000187c <uart_set_baudrate+0x4c>
        baud_ibrd = 65535;
        baud_fbrd = 0;
    }  else {
        baud_fbrd = ((baud_rate_div & 0x7f) + 1) / 2;
10001850:	237f      	movs	r3, #127	; 0x7f
10001852:	4018      	ands	r0, r3
10001854:	1900      	adds	r0, r0, r4
10001856:	002c      	movs	r4, r5
10001858:	0845      	lsrs	r5, r0, #1
    *(io_rw_32 *) hw_set_alias_untyped((volatile void *) addr) = mask;
1000185a:	2380      	movs	r3, #128	; 0x80
1000185c:	2200      	movs	r2, #0
    }

    // Load PL011's baud divisor registers
    uart_get_hw(uart)->ibrd = baud_ibrd;
1000185e:	6274      	str	r4, [r6, #36]	; 0x24
10001860:	019b      	lsls	r3, r3, #6
    uart_get_hw(uart)->fbrd = baud_fbrd;
10001862:	62b5      	str	r5, [r6, #40]	; 0x28

    // PL011 needs a (dummy) line control register write to latch in the
    // divisors. We don't want to actually change LCR contents here.
    hw_set_bits(&uart_get_hw(uart)->lcr_h, 0);
10001864:	362c      	adds	r6, #44	; 0x2c
10001866:	4333      	orrs	r3, r6
10001868:	601a      	str	r2, [r3, #0]

    // See datasheet
    return (4 * clock_get_hz(clk_peri)) / (64 * baud_ibrd + baud_fbrd);
1000186a:	2006      	movs	r0, #6
1000186c:	f7ff fed8 	bl	10001620 <clock_get_hz>
10001870:	01a1      	lsls	r1, r4, #6
10001872:	1949      	adds	r1, r1, r5
10001874:	0080      	lsls	r0, r0, #2
10001876:	f7fe fcab 	bl	100001d0 <__udivsi3>
}
1000187a:	bd70      	pop	{r4, r5, r6, pc}
        baud_fbrd = 0;
1000187c:	2500      	movs	r5, #0
        baud_ibrd = 65535;
1000187e:	4c02      	ldr	r4, [pc, #8]	; (10001888 <uart_set_baudrate+0x58>)
10001880:	e7eb      	b.n	1000185a <uart_set_baudrate+0x2a>
10001882:	46c0      	nop			; (mov r8, r8)
10001884:	0000fffe 	.word	0x0000fffe
10001888:	0000ffff 	.word	0x0000ffff

1000188c <uart_init>:
uint uart_init(uart_inst_t *uart, uint baudrate) {
1000188c:	b570      	push	{r4, r5, r6, lr}
1000188e:	0004      	movs	r4, r0
    if (clock_get_hz(clk_peri) == 0)
10001890:	2006      	movs	r0, #6
uint uart_init(uart_inst_t *uart, uint baudrate) {
10001892:	000d      	movs	r5, r1
    if (clock_get_hz(clk_peri) == 0)
10001894:	f7ff fec4 	bl	10001620 <clock_get_hz>
10001898:	2800      	cmp	r0, #0
1000189a:	d02e      	beq.n	100018fa <uart_init+0x6e>
    reset_block(uart_get_index(uart) ? RESETS_RESET_UART1_BITS : RESETS_RESET_UART0_BITS);
1000189c:	4b19      	ldr	r3, [pc, #100]	; (10001904 <uart_init+0x78>)
1000189e:	429c      	cmp	r4, r3
100018a0:	d02c      	beq.n	100018fc <uart_init+0x70>
100018a2:	2380      	movs	r3, #128	; 0x80
100018a4:	03db      	lsls	r3, r3, #15
100018a6:	4a18      	ldr	r2, [pc, #96]	; (10001908 <uart_init+0x7c>)
100018a8:	4918      	ldr	r1, [pc, #96]	; (1000190c <uart_init+0x80>)
100018aa:	6013      	str	r3, [r2, #0]
    *(io_rw_32 *) hw_clear_alias_untyped((volatile void *) addr) = mask;
100018ac:	4a18      	ldr	r2, [pc, #96]	; (10001910 <uart_init+0x84>)
100018ae:	6013      	str	r3, [r2, #0]
100018b0:	0018      	movs	r0, r3
100018b2:	688a      	ldr	r2, [r1, #8]
100018b4:	4390      	bics	r0, r2
100018b6:	d1fb      	bne.n	100018b0 <uart_init+0x24>
    return uart == uart1 ? 1 : 0;
100018b8:	4b16      	ldr	r3, [pc, #88]	; (10001914 <uart_init+0x88>)
/// \end::uart_set_baudrate[]

void uart_set_translate_crlf(uart_inst_t *uart, bool crlf) {
#if PICO_UART_ENABLE_CRLF_SUPPORT
    uart_char_to_line_feed[uart_get_index(uart)] = crlf ? '\n' : 0x100;
100018ba:	4a17      	ldr	r2, [pc, #92]	; (10001918 <uart_init+0x8c>)
100018bc:	18e3      	adds	r3, r4, r3
100018be:	4259      	negs	r1, r3
100018c0:	414b      	adcs	r3, r1
100018c2:	2180      	movs	r1, #128	; 0x80
100018c4:	005b      	lsls	r3, r3, #1
100018c6:	0049      	lsls	r1, r1, #1
100018c8:	5299      	strh	r1, [r3, r2]
    uint baud = uart_set_baudrate(uart, baudrate);
100018ca:	0020      	movs	r0, r4
100018cc:	0029      	movs	r1, r5
100018ce:	f7ff ffaf 	bl	10001830 <uart_set_baudrate>
    hw_xor_bits(addr, (*addr ^ values) & write_mask);
100018d2:	2360      	movs	r3, #96	; 0x60
100018d4:	6ae2      	ldr	r2, [r4, #44]	; 0x2c
    hw_write_masked(&uart_get_hw(uart)->lcr_h,
100018d6:	0021      	movs	r1, r4
100018d8:	4053      	eors	r3, r2
100018da:	226e      	movs	r2, #110	; 0x6e
100018dc:	4013      	ands	r3, r2
    *(io_rw_32 *) hw_xor_alias_untyped((volatile void *) addr) = mask;
100018de:	2280      	movs	r2, #128	; 0x80
100018e0:	312c      	adds	r1, #44	; 0x2c
100018e2:	0152      	lsls	r2, r2, #5
100018e4:	430a      	orrs	r2, r1
100018e6:	6013      	str	r3, [r2, #0]
    uart_get_hw(uart)->cr = UART_UARTCR_UARTEN_BITS | UART_UARTCR_TXE_BITS | UART_UARTCR_RXE_BITS;
100018e8:	4b0c      	ldr	r3, [pc, #48]	; (1000191c <uart_init+0x90>)
    *(io_rw_32 *) hw_set_alias_untyped((volatile void *) addr) = mask;
100018ea:	2210      	movs	r2, #16
100018ec:	6323      	str	r3, [r4, #48]	; 0x30
100018ee:	2380      	movs	r3, #128	; 0x80
100018f0:	019b      	lsls	r3, r3, #6
100018f2:	430b      	orrs	r3, r1
100018f4:	601a      	str	r2, [r3, #0]
    uart_get_hw(uart)->dmacr = UART_UARTDMACR_TXDMAE_BITS | UART_UARTDMACR_RXDMAE_BITS;
100018f6:	2303      	movs	r3, #3
100018f8:	64a3      	str	r3, [r4, #72]	; 0x48
}
100018fa:	bd70      	pop	{r4, r5, r6, pc}
    reset_block(uart_get_index(uart) ? RESETS_RESET_UART1_BITS : RESETS_RESET_UART0_BITS);
100018fc:	2380      	movs	r3, #128	; 0x80
100018fe:	041b      	lsls	r3, r3, #16
10001900:	e7d1      	b.n	100018a6 <uart_init+0x1a>
10001902:	46c0      	nop			; (mov r8, r8)
10001904:	40038000 	.word	0x40038000
10001908:	4000e000 	.word	0x4000e000
1000190c:	4000c000 	.word	0x4000c000
10001910:	4000f000 	.word	0x4000f000
10001914:	bffc8000 	.word	0xbffc8000
10001918:	200001bc 	.word	0x200001bc
1000191c:	00000301 	.word	0x00000301

10001920 <z_sys_init_run_level>:
 * off and the next one begins.
 *
 * @param level init level to run.
 */
static void z_sys_init_run_level(enum init_level level)
{
10001920:	b5f7      	push	{r0, r1, r2, r4, r5, r6, r7, lr}
					}
					dev->state->init_res = rc;
				}
			}

			dev->state->initialized = true;
10001922:	2701      	movs	r7, #1
	for (entry = levels[level]; entry < levels[level+1]; entry++) {
10001924:	4e12      	ldr	r6, [pc, #72]	; (10001970 <z_sys_init_run_level+0x50>)
10001926:	0083      	lsls	r3, r0, #2
10001928:	3001      	adds	r0, #1
1000192a:	599c      	ldr	r4, [r3, r6]
1000192c:	0083      	lsls	r3, r0, #2
1000192e:	9301      	str	r3, [sp, #4]
10001930:	9b01      	ldr	r3, [sp, #4]
10001932:	58f3      	ldr	r3, [r6, r3]
10001934:	42a3      	cmp	r3, r4
10001936:	d800      	bhi.n	1000193a <z_sys_init_run_level+0x1a>
			}
		} else {
			(void)entry->init_fn.sys();
		}
	}
}
10001938:	bdf7      	pop	{r0, r1, r2, r4, r5, r6, r7, pc}
		const struct device *dev = entry->dev;
1000193a:	6865      	ldr	r5, [r4, #4]
			if (entry->init_fn.dev != NULL) {
1000193c:	6823      	ldr	r3, [r4, #0]
		if (dev != NULL) {
1000193e:	2d00      	cmp	r5, #0
10001940:	d013      	beq.n	1000196a <z_sys_init_run_level+0x4a>
			if (entry->init_fn.dev != NULL) {
10001942:	2b00      	cmp	r3, #0
10001944:	d00b      	beq.n	1000195e <z_sys_init_run_level+0x3e>
				rc = entry->init_fn.dev(dev);
10001946:	0028      	movs	r0, r5
10001948:	4798      	blx	r3
				if (rc != 0) {
1000194a:	2800      	cmp	r0, #0
1000194c:	d007      	beq.n	1000195e <z_sys_init_run_level+0x3e>
					if (rc < 0) {
1000194e:	17c2      	asrs	r2, r0, #31
10001950:	1880      	adds	r0, r0, r2
					dev->state->init_res = rc;
10001952:	68eb      	ldr	r3, [r5, #12]
					if (rc < 0) {
10001954:	4050      	eors	r0, r2
					if (rc > UINT8_MAX) {
10001956:	28ff      	cmp	r0, #255	; 0xff
10001958:	dd00      	ble.n	1000195c <z_sys_init_run_level+0x3c>
1000195a:	20ff      	movs	r0, #255	; 0xff
					dev->state->init_res = rc;
1000195c:	7018      	strb	r0, [r3, #0]
			dev->state->initialized = true;
1000195e:	68ea      	ldr	r2, [r5, #12]
10001960:	7853      	ldrb	r3, [r2, #1]
10001962:	433b      	orrs	r3, r7
10001964:	7053      	strb	r3, [r2, #1]
	for (entry = levels[level]; entry < levels[level+1]; entry++) {
10001966:	3408      	adds	r4, #8
10001968:	e7e2      	b.n	10001930 <z_sys_init_run_level+0x10>
			(void)entry->init_fn.sys();
1000196a:	4798      	blx	r3
1000196c:	e7fb      	b.n	10001966 <z_sys_init_run_level+0x46>
1000196e:	46c0      	nop			; (mov r8, r8)
10001970:	10002ea0 	.word	0x10002ea0

10001974 <bg_thread_main>:
 * This routine completes kernel initialization by invoking the remaining
 * init functions, then invokes application's main() routine.
 */
__boot_func
static void bg_thread_main(void *unused1, void *unused2, void *unused3)
{
10001974:	b510      	push	{r4, lr}
	 * may perform memory management tasks (except for z_phys_map() which
	 * is allowed at any time)
	 */
	z_mem_manage_init();
#endif /* CONFIG_MMU */
	z_sys_post_kernel = true;
10001976:	2401      	movs	r4, #1
10001978:	4b09      	ldr	r3, [pc, #36]	; (100019a0 <bg_thread_main+0x2c>)

	z_sys_init_run_level(INIT_LEVEL_POST_KERNEL);
1000197a:	2003      	movs	r0, #3
	z_sys_post_kernel = true;
1000197c:	701c      	strb	r4, [r3, #0]
	z_sys_init_run_level(INIT_LEVEL_POST_KERNEL);
1000197e:	f7ff ffcf 	bl	10001920 <z_sys_init_run_level>
#if CONFIG_STACK_POINTER_RANDOM
	z_stack_adjust_initialized = 1;
#endif
	boot_banner();
10001982:	f000 fd25 	bl	100023d0 <boot_banner>
	void z_cpp_init_static(void);
	z_cpp_init_static();
#endif

	/* Final init level before app starts */
	z_sys_init_run_level(INIT_LEVEL_APPLICATION);
10001986:	2004      	movs	r0, #4
10001988:	f7ff ffca 	bl	10001920 <z_sys_init_run_level>

	z_init_static_threads();
1000198c:	f000 f8ce 	bl	10001b2c <z_init_static_threads>
	z_mem_manage_boot_finish();
#endif /* CONFIG_MMU */

	extern int main(void);

	(void)main();
10001990:	f7fe fd66 	bl	10000460 <main>

	/* Mark nonessential since main() has no more work to do */
	z_main_thread.base.user_options &= ~K_ESSENTIAL;
10001994:	4a03      	ldr	r2, [pc, #12]	; (100019a4 <bg_thread_main+0x30>)
10001996:	7b13      	ldrb	r3, [r2, #12]
10001998:	43a3      	bics	r3, r4
1000199a:	7313      	strb	r3, [r2, #12]

#ifdef CONFIG_COVERAGE_DUMP
	/* Dump coverage data once the main() has exited. */
	gcov_coverage_dump();
#endif
} /* LCOV_EXCL_LINE ... because we just dumped final coverage data */
1000199c:	bd10      	pop	{r4, pc}
1000199e:	46c0      	nop			; (mov r8, r8)
100019a0:	200001c0 	.word	0x200001c0
100019a4:	200000a0 	.word	0x200000a0

100019a8 <z_bss_zero>:
{
100019a8:	b510      	push	{r4, lr}
	z_early_memset(__bss_start, 0, __bss_end - __bss_start);
100019aa:	4a03      	ldr	r2, [pc, #12]	; (100019b8 <z_bss_zero+0x10>)
100019ac:	4803      	ldr	r0, [pc, #12]	; (100019bc <z_bss_zero+0x14>)
100019ae:	2100      	movs	r1, #0
100019b0:	1a12      	subs	r2, r2, r0
100019b2:	f001 f8ce 	bl	10002b52 <z_early_memset>
}
100019b6:	bd10      	pop	{r4, pc}
100019b8:	200001c4 	.word	0x200001c4
100019bc:	20000030 	.word	0x20000030

100019c0 <z_init_cpu>:
	thread->base.is_idle = 1U;
#endif
}

void z_init_cpu(int id)
{
100019c0:	b570      	push	{r4, r5, r6, lr}
	struct k_thread *thread = &z_idle_threads[i];
100019c2:	2670      	movs	r6, #112	; 0x70
	z_setup_new_thread(thread, stack,
100019c4:	2501      	movs	r5, #1
{
100019c6:	0004      	movs	r4, r0
	struct k_thread *thread = &z_idle_threads[i];
100019c8:	4346      	muls	r6, r0
	k_thread_stack_t *stack = z_idle_stacks[i];
100019ca:	0201      	lsls	r1, r0, #8
100019cc:	4811      	ldr	r0, [pc, #68]	; (10001a14 <z_init_cpu+0x54>)
	z_setup_new_thread(thread, stack,
100019ce:	2280      	movs	r2, #128	; 0x80
	k_thread_stack_t *stack = z_idle_stacks[i];
100019d0:	1809      	adds	r1, r1, r0
	z_setup_new_thread(thread, stack,
100019d2:	2000      	movs	r0, #0
{
100019d4:	b086      	sub	sp, #24
	z_setup_new_thread(thread, stack,
100019d6:	9504      	str	r5, [sp, #16]
100019d8:	350e      	adds	r5, #14
100019da:	9503      	str	r5, [sp, #12]
			  CONFIG_IDLE_STACK_SIZE, idle, &_kernel.cpus[i],
100019dc:	3505      	adds	r5, #5
100019de:	4365      	muls	r5, r4
	struct k_thread *thread = &z_idle_threads[i];
100019e0:	4b0d      	ldr	r3, [pc, #52]	; (10001a18 <z_init_cpu+0x58>)
	z_setup_new_thread(thread, stack,
100019e2:	9005      	str	r0, [sp, #20]
100019e4:	9002      	str	r0, [sp, #8]
100019e6:	9001      	str	r0, [sp, #4]
			  CONFIG_IDLE_STACK_SIZE, idle, &_kernel.cpus[i],
100019e8:	480c      	ldr	r0, [pc, #48]	; (10001a1c <z_init_cpu+0x5c>)
	struct k_thread *thread = &z_idle_threads[i];
100019ea:	18f6      	adds	r6, r6, r3
			  CONFIG_IDLE_STACK_SIZE, idle, &_kernel.cpus[i],
100019ec:	182d      	adds	r5, r5, r0
	z_setup_new_thread(thread, stack,
100019ee:	4b0c      	ldr	r3, [pc, #48]	; (10001a20 <z_init_cpu+0x60>)
100019f0:	0030      	movs	r0, r6
100019f2:	9500      	str	r5, [sp, #0]
100019f4:	0052      	lsls	r2, r2, #1
100019f6:	f000 f86f 	bl	10001ad8 <z_setup_new_thread>
	SYS_PORT_TRACING_FUNC(k_thread, sched_resume, thread);
}

static inline void z_mark_thread_as_started(struct k_thread *thread)
{
	thread->base.thread_state &= ~_THREAD_PRESTART;
100019fa:	2204      	movs	r2, #4
100019fc:	7b73      	ldrb	r3, [r6, #13]
	init_idle_thread(id);
	_kernel.cpus[id].idle_thread = &z_idle_threads[id];
	_kernel.cpus[id].id = id;
100019fe:	742c      	strb	r4, [r5, #16]
10001a00:	4393      	bics	r3, r2
10001a02:	7373      	strb	r3, [r6, #13]
	_kernel.cpus[id].irq_stack =
		(Z_KERNEL_STACK_BUFFER(z_interrupt_stacks[id]) +
10001a04:	3401      	adds	r4, #1
10001a06:	4b07      	ldr	r3, [pc, #28]	; (10001a24 <z_init_cpu+0x64>)
10001a08:	02e4      	lsls	r4, r4, #11
10001a0a:	18e4      	adds	r4, r4, r3
	_kernel.cpus[id].idle_thread = &z_idle_threads[id];
10001a0c:	60ee      	str	r6, [r5, #12]
	_kernel.cpus[id].irq_stack =
10001a0e:	606c      	str	r4, [r5, #4]
		 K_KERNEL_STACK_SIZEOF(z_interrupt_stacks[id]));
#ifdef CONFIG_SCHED_THREAD_USAGE_ALL
	_kernel.cpus[id].usage.track_usage =
		CONFIG_SCHED_THREAD_USAGE_AUTO_ENABLE;
#endif
}
10001a10:	b006      	add	sp, #24
10001a12:	bd70      	pop	{r4, r5, r6, pc}
10001a14:	200009c8 	.word	0x200009c8
10001a18:	20000030 	.word	0x20000030
10001a1c:	2000018c 	.word	0x2000018c
10001a20:	10002b63 	.word	0x10002b63
10001a24:	200001c8 	.word	0x200001c8

10001a28 <z_cstart>:
 * @return Does not return
 */
__boot_func
FUNC_NO_STACK_PROTECTOR
FUNC_NORETURN void z_cstart(void)
{
10001a28:	b5f0      	push	{r4, r5, r6, r7, lr}
	/* gcov hook needed to get the coverage report.*/
	gcov_static_init();

	/* initialize early init calls */
	z_sys_init_run_level(INIT_LEVEL_EARLY);
10001a2a:	2000      	movs	r0, #0
{
10001a2c:	b0a3      	sub	sp, #140	; 0x8c
	z_sys_init_run_level(INIT_LEVEL_EARLY);
10001a2e:	f7ff ff77 	bl	10001920 <z_sys_init_run_level>
 * pointer) register, and switched to automatically when taking an exception.
 *
 */
static ALWAYS_INLINE void z_arm_interrupt_stack_setup(void)
{
	uint32_t msp =
10001a32:	4b21      	ldr	r3, [pc, #132]	; (10001ab8 <z_cstart+0x90>)
  \details Assigns the given value to the Main Stack Pointer (MSP).
  \param [in]    topOfMainStack  Main Stack Pointer value to set
 */
__STATIC_FORCEINLINE void __set_MSP(uint32_t topOfMainStack)
{
  __ASM volatile ("MSR msp, %0" : : "r" (topOfMainStack) : );
10001a34:	f383 8808 	msr	MSP, r3
10001a38:	4920      	ldr	r1, [pc, #128]	; (10001abc <z_cstart+0x94>)
10001a3a:	4b21      	ldr	r3, [pc, #132]	; (10001ac0 <z_cstart+0x98>)
10001a3c:	6a0a      	ldr	r2, [r1, #32]
	dummy_thread->mem_domain_info.mem_domain = &k_mem_domain_default;
#endif
#if (CONFIG_HEAP_MEM_POOL_SIZE > 0)
	k_thread_system_pool_assign(dummy_thread);
#else
	dummy_thread->resource_pool = NULL;
10001a3e:	2500      	movs	r5, #0
10001a40:	401a      	ands	r2, r3
10001a42:	23e0      	movs	r3, #224	; 0xe0
10001a44:	041b      	lsls	r3, r3, #16
10001a46:	4313      	orrs	r3, r2
10001a48:	620b      	str	r3, [r1, #32]

static ALWAYS_INLINE void arch_kernel_init(void)
{
	z_arm_interrupt_stack_setup();
	z_arm_exc_setup();
	z_arm_fault_init();
10001a4a:	f000 fd74 	bl	10002536 <z_arm_fault_init>
	z_arm_cpu_idle_init();
10001a4e:	f7ff f96b 	bl	10000d28 <z_arm_cpu_idle_init>
	dummy_thread->base.user_options = K_ESSENTIAL;
10001a52:	2202      	movs	r2, #2

#ifdef CONFIG_TIMESLICE_PER_THREAD
	dummy_thread->base.slice_ticks = 0;
#endif

	_current_cpu->current = dummy_thread;
10001a54:	4e1b      	ldr	r6, [pc, #108]	; (10001ac4 <z_cstart+0x9c>)
	dummy_thread->base.user_options = K_ESSENTIAL;
10001a56:	ab06      	add	r3, sp, #24
10001a58:	32ff      	adds	r2, #255	; 0xff
10001a5a:	819a      	strh	r2, [r3, #12]
	_current_cpu->current = dummy_thread;
10001a5c:	60b3      	str	r3, [r6, #8]
	dummy_thread->resource_pool = NULL;
10001a5e:	951f      	str	r5, [sp, #124]	; 0x7c
	struct k_thread dummy_thread;

	z_dummy_thread_init(&dummy_thread);
#endif
	/* do any necessary initialization of static devices */
	z_device_state_init();
10001a60:	f001 f84c 	bl	10002afc <z_device_state_init>

	/* perform basic hardware initialization */
	z_sys_init_run_level(INIT_LEVEL_PRE_KERNEL_1);
10001a64:	2001      	movs	r0, #1
10001a66:	f7ff ff5b 	bl	10001920 <z_sys_init_run_level>
	z_sys_init_run_level(INIT_LEVEL_PRE_KERNEL_2);
10001a6a:	2002      	movs	r0, #2
10001a6c:	f7ff ff58 	bl	10001920 <z_sys_init_run_level>
	z_sched_init();
10001a70:	f000 fa52 	bl	10001f18 <z_sched_init>
	_kernel.ready_q.cache = &z_main_thread;
10001a74:	4c14      	ldr	r4, [pc, #80]	; (10001ac8 <z_cstart+0xa0>)
	stack_ptr = z_setup_new_thread(&z_main_thread, z_main_stack,
10001a76:	4b15      	ldr	r3, [pc, #84]	; (10001acc <z_cstart+0xa4>)
	_kernel.ready_q.cache = &z_main_thread;
10001a78:	6174      	str	r4, [r6, #20]
	stack_ptr = z_setup_new_thread(&z_main_thread, z_main_stack,
10001a7a:	2280      	movs	r2, #128	; 0x80
10001a7c:	9305      	str	r3, [sp, #20]
10001a7e:	2301      	movs	r3, #1
10001a80:	4e13      	ldr	r6, [pc, #76]	; (10001ad0 <z_cstart+0xa8>)
10001a82:	4914      	ldr	r1, [pc, #80]	; (10001ad4 <z_cstart+0xac>)
10001a84:	9304      	str	r3, [sp, #16]
10001a86:	00d2      	lsls	r2, r2, #3
10001a88:	0033      	movs	r3, r6
10001a8a:	0020      	movs	r0, r4
10001a8c:	9503      	str	r5, [sp, #12]
10001a8e:	9502      	str	r5, [sp, #8]
10001a90:	9501      	str	r5, [sp, #4]
10001a92:	9500      	str	r5, [sp, #0]
10001a94:	f000 f820 	bl	10001ad8 <z_setup_new_thread>
10001a98:	2204      	movs	r2, #4
10001a9a:	0007      	movs	r7, r0
10001a9c:	7b63      	ldrb	r3, [r4, #13]
	z_ready_thread(&z_main_thread);
10001a9e:	0020      	movs	r0, r4
10001aa0:	4393      	bics	r3, r2
10001aa2:	7363      	strb	r3, [r4, #13]
10001aa4:	f001 f877 	bl	10002b96 <z_ready_thread>
	z_init_cpu(0);
10001aa8:	0028      	movs	r0, r5
10001aaa:	f7ff ff89 	bl	100019c0 <z_init_cpu>
	arch_switch_to_main_thread(&z_main_thread, stack_ptr, bg_thread_main);
10001aae:	0032      	movs	r2, r6
10001ab0:	0039      	movs	r1, r7
10001ab2:	0020      	movs	r0, r4
10001ab4:	f7ff fa04 	bl	10000ec0 <arch_switch_to_main_thread>
	CODE_UNREACHABLE; /* LCOV_EXCL_LINE */
10001ab8:	200009c8 	.word	0x200009c8
10001abc:	e000ed00 	.word	0xe000ed00
10001ac0:	ff00ffff 	.word	0xff00ffff
10001ac4:	2000018c 	.word	0x2000018c
10001ac8:	200000a0 	.word	0x200000a0
10001acc:	10003055 	.word	0x10003055
10001ad0:	10001975 	.word	0x10001975
10001ad4:	20000ac8 	.word	0x20000ac8

10001ad8 <z_setup_new_thread>:
char *z_setup_new_thread(struct k_thread *new_thread,
			 k_thread_stack_t *stack, size_t stack_size,
			 k_thread_entry_t entry,
			 void *p1, void *p2, void *p3,
			 int prio, uint32_t options, const char *name)
{
10001ad8:	b57f      	push	{r0, r1, r2, r3, r4, r5, r6, lr}
10001ada:	0004      	movs	r4, r0
	SYS_DLIST_FOR_EACH_CONTAINER(&((wq)->waitq), thread_ptr, \
				     base.qnode_dlist)

static inline void z_waitq_init(_wait_q_t *w)
{
	sys_dlist_init(&w->waitq);
10001adc:	3058      	adds	r0, #88	; 0x58
 * @param list the doubly-linked list
 */

static inline void sys_dlist_init(sys_dlist_t *list)
{
	list->head = (sys_dnode_t *)list;
10001ade:	65a0      	str	r0, [r4, #88]	; 0x58
	list->tail = (sys_dnode_t *)list;
10001ae0:	65e0      	str	r0, [r4, #92]	; 0x5c
void z_init_thread_base(struct _thread_base *thread_base, int priority,
		       uint32_t initial_state, unsigned int options)
{
	/* k_q_node is initialized upon first insertion in a list */
	thread_base->pended_on = NULL;
	thread_base->user_options = (uint8_t)options;
10001ae2:	980c      	ldr	r0, [sp, #48]	; 0x30
	thread_base->pended_on = NULL;
10001ae4:	2600      	movs	r6, #0
	thread_base->user_options = (uint8_t)options;
10001ae6:	7320      	strb	r0, [r4, #12]
	thread_base->thread_state = (uint8_t)initial_state;
10001ae8:	2004      	movs	r0, #4
10001aea:	7360      	strb	r0, [r4, #13]

	thread_base->prio = priority;
10001aec:	980b      	ldr	r0, [sp, #44]	; 0x2c
		stack_obj_size = Z_KERNEL_STACK_SIZE_ADJUST(stack_size);
10001aee:	3207      	adds	r2, #7
	thread_base->prio = priority;
10001af0:	73a0      	strb	r0, [r4, #14]
		stack_obj_size = Z_KERNEL_STACK_SIZE_ADJUST(stack_size);
10001af2:	2007      	movs	r0, #7
10001af4:	4382      	bics	r2, r0
	stack_ptr = (char *)stack + stack_obj_size;
10001af6:	188d      	adds	r5, r1, r2
	arch_new_thread(new_thread, stack, stack_ptr, entry, p1, p2, p3);
10001af8:	9a0a      	ldr	r2, [sp, #40]	; 0x28
	thread_base->pended_on = NULL;
10001afa:	60a6      	str	r6, [r4, #8]

	thread_base->sched_locked = 0U;
10001afc:	73e6      	strb	r6, [r4, #15]
 * @param node the node
 */

static inline void sys_dnode_init(sys_dnode_t *node)
{
	node->next = NULL;
10001afe:	61a6      	str	r6, [r4, #24]
	node->prev = NULL;
10001b00:	61e6      	str	r6, [r4, #28]
	arch_new_thread(new_thread, stack, stack_ptr, entry, p1, p2, p3);
10001b02:	9202      	str	r2, [sp, #8]
10001b04:	9a09      	ldr	r2, [sp, #36]	; 0x24
10001b06:	0020      	movs	r0, r4
10001b08:	9201      	str	r2, [sp, #4]
10001b0a:	9a08      	ldr	r2, [sp, #32]
10001b0c:	9200      	str	r2, [sp, #0]
10001b0e:	002a      	movs	r2, r5
10001b10:	f7ff f9c0 	bl	10000e94 <arch_new_thread>
	if (!_current) {
10001b14:	4b04      	ldr	r3, [pc, #16]	; (10001b28 <z_setup_new_thread+0x50>)
	new_thread->init_data = NULL;
10001b16:	6566      	str	r6, [r4, #84]	; 0x54
	if (!_current) {
10001b18:	689b      	ldr	r3, [r3, #8]
10001b1a:	42b3      	cmp	r3, r6
10001b1c:	d000      	beq.n	10001b20 <z_setup_new_thread+0x48>
	new_thread->resource_pool = _current->resource_pool;
10001b1e:	6e5b      	ldr	r3, [r3, #100]	; 0x64
}
10001b20:	0028      	movs	r0, r5
10001b22:	6663      	str	r3, [r4, #100]	; 0x64
10001b24:	b004      	add	sp, #16
10001b26:	bd70      	pop	{r4, r5, r6, pc}
10001b28:	2000018c 	.word	0x2000018c

10001b2c <z_init_static_threads>:
{
10001b2c:	b570      	push	{r4, r5, r6, lr}
	_FOREACH_STATIC_THREAD(thread_data) {
10001b2e:	4c20      	ldr	r4, [pc, #128]	; (10001bb0 <z_init_static_threads+0x84>)
{
10001b30:	b086      	sub	sp, #24
10001b32:	0026      	movs	r6, r4
	_FOREACH_STATIC_THREAD(thread_data) {
10001b34:	4d1f      	ldr	r5, [pc, #124]	; (10001bb4 <z_init_static_threads+0x88>)
10001b36:	42ac      	cmp	r4, r5
10001b38:	d308      	bcc.n	10001b4c <z_init_static_threads+0x20>
	k_sched_lock();
10001b3a:	f000 f9c7 	bl	10001ecc <k_sched_lock>
	_FOREACH_STATIC_THREAD(thread_data) {
10001b3e:	0034      	movs	r4, r6
10001b40:	42ac      	cmp	r4, r5
10001b42:	d319      	bcc.n	10001b78 <z_init_static_threads+0x4c>
	k_sched_unlock();
10001b44:	f000 f9d2 	bl	10001eec <k_sched_unlock>
}
10001b48:	b006      	add	sp, #24
10001b4a:	bd70      	pop	{r4, r5, r6, pc}
		z_setup_new_thread(
10001b4c:	6aa3      	ldr	r3, [r4, #40]	; 0x28
10001b4e:	9305      	str	r3, [sp, #20]
10001b50:	6a23      	ldr	r3, [r4, #32]
10001b52:	9304      	str	r3, [sp, #16]
10001b54:	69e3      	ldr	r3, [r4, #28]
10001b56:	9303      	str	r3, [sp, #12]
10001b58:	69a3      	ldr	r3, [r4, #24]
10001b5a:	9302      	str	r3, [sp, #8]
10001b5c:	6963      	ldr	r3, [r4, #20]
10001b5e:	9301      	str	r3, [sp, #4]
10001b60:	6923      	ldr	r3, [r4, #16]
10001b62:	9300      	str	r3, [sp, #0]
10001b64:	68e3      	ldr	r3, [r4, #12]
10001b66:	68a2      	ldr	r2, [r4, #8]
10001b68:	6861      	ldr	r1, [r4, #4]
10001b6a:	6820      	ldr	r0, [r4, #0]
10001b6c:	f7ff ffb4 	bl	10001ad8 <z_setup_new_thread>
		thread_data->init_thread->init_data = thread_data;
10001b70:	6823      	ldr	r3, [r4, #0]
10001b72:	655c      	str	r4, [r3, #84]	; 0x54
	_FOREACH_STATIC_THREAD(thread_data) {
10001b74:	342c      	adds	r4, #44	; 0x2c
10001b76:	e7dd      	b.n	10001b34 <z_init_static_threads+0x8>
		if (thread_data->init_delay != K_TICKS_FOREVER) {
10001b78:	6a63      	ldr	r3, [r4, #36]	; 0x24
10001b7a:	1c5a      	adds	r2, r3, #1
10001b7c:	d00f      	beq.n	10001b9e <z_init_static_threads+0x72>
					    K_MSEC(thread_data->init_delay));
10001b7e:	43d8      	mvns	r0, r3
10001b80:	17c0      	asrs	r0, r0, #31
10001b82:	4018      	ands	r0, r3
		}
	} else if (mul_ratio) {
		if (result32) {
			return ((uint32_t)t) * (to_hz / from_hz);
		} else {
			return t * ((uint64_t)to_hz / from_hz);
10001b84:	220a      	movs	r2, #10
10001b86:	2300      	movs	r3, #0
10001b88:	17c1      	asrs	r1, r0, #31
10001b8a:	f7fe fbcb 	bl	10000324 <__aeabi_lmul>
			schedule_new_thread(thread_data->init_thread,
10001b8e:	6826      	ldr	r6, [r4, #0]
10001b90:	000b      	movs	r3, r1
10001b92:	0002      	movs	r2, r0
	if (K_TIMEOUT_EQ(delay, K_NO_WAIT)) {
10001b94:	4301      	orrs	r1, r0
10001b96:	d104      	bne.n	10001ba2 <z_init_static_threads+0x76>
	z_sched_start(thread);
10001b98:	0030      	movs	r0, r6
10001b9a:	f000 f951 	bl	10001e40 <z_sched_start>
	_FOREACH_STATIC_THREAD(thread_data) {
10001b9e:	342c      	adds	r4, #44	; 0x2c
10001ba0:	e7ce      	b.n	10001b40 <z_init_static_threads+0x14>

extern void z_thread_timeout(struct _timeout *timeout);

static inline void z_add_thread_timeout(struct k_thread *thread, k_timeout_t ticks)
{
	z_add_timeout(&thread->base.timeout, z_thread_timeout, ticks);
10001ba2:	0030      	movs	r0, r6
10001ba4:	4904      	ldr	r1, [pc, #16]	; (10001bb8 <z_init_static_threads+0x8c>)
10001ba6:	3018      	adds	r0, #24
10001ba8:	f000 fb20 	bl	100021ec <z_add_timeout>
10001bac:	e7f7      	b.n	10001b9e <z_init_static_threads+0x72>
10001bae:	46c0      	nop			; (mov r8, r8)
10001bb0:	10002da0 	.word	0x10002da0
10001bb4:	10002da0 	.word	0x10002da0
10001bb8:	10002bed 	.word	0x10002bed

10001bbc <sliceable>:
{
	bool ret = is_preempt(thread)
		&& slice_time(thread) != 0
		&& !z_is_prio_higher(thread->base.prio, slice_max_prio)
		&& !z_is_thread_prevented_from_running(thread)
		&& !z_is_idle_thread_object(thread);
10001bbc:	89c2      	ldrh	r2, [r0, #14]
{
10001bbe:	0003      	movs	r3, r0
		&& !z_is_idle_thread_object(thread);
10001bc0:	2000      	movs	r0, #0
10001bc2:	2a7f      	cmp	r2, #127	; 0x7f
10001bc4:	d811      	bhi.n	10001bea <sliceable+0x2e>
	int ret = slice_ticks;
10001bc6:	4a0a      	ldr	r2, [pc, #40]	; (10001bf0 <sliceable+0x34>)
10001bc8:	6810      	ldr	r0, [r2, #0]
		&& slice_time(thread) != 0
10001bca:	2800      	cmp	r0, #0
10001bcc:	d00d      	beq.n	10001bea <sliceable+0x2e>
		&& !z_is_prio_higher(thread->base.prio, slice_max_prio)
10001bce:	210e      	movs	r1, #14
10001bd0:	4a08      	ldr	r2, [pc, #32]	; (10001bf4 <sliceable+0x38>)
10001bd2:	5659      	ldrsb	r1, [r3, r1]
10001bd4:	6812      	ldr	r2, [r2, #0]
		&& !z_is_idle_thread_object(thread);
10001bd6:	2000      	movs	r0, #0
		&& !z_is_prio_higher(thread->base.prio, slice_max_prio)
10001bd8:	4291      	cmp	r1, r2
10001bda:	db06      	blt.n	10001bea <sliceable+0x2e>
		&& !z_is_thread_prevented_from_running(thread)
10001bdc:	7b5a      	ldrb	r2, [r3, #13]
10001bde:	06d2      	lsls	r2, r2, #27
10001be0:	d103      	bne.n	10001bea <sliceable+0x2e>
		&& !z_is_idle_thread_object(thread);
10001be2:	4805      	ldr	r0, [pc, #20]	; (10001bf8 <sliceable+0x3c>)
10001be4:	1a18      	subs	r0, r3, r0
10001be6:	1e43      	subs	r3, r0, #1
10001be8:	4198      	sbcs	r0, r3

#ifdef CONFIG_TIMESLICE_PER_THREAD
	ret |= thread->base.slice_ticks != 0;
#endif

	return ret;
10001bea:	2301      	movs	r3, #1
10001bec:	4018      	ands	r0, r3
}
10001bee:	4770      	bx	lr
10001bf0:	200001b4 	.word	0x200001b4
10001bf4:	200001b0 	.word	0x200001b0
10001bf8:	20000030 	.word	0x20000030

10001bfc <slice_timeout>:

static void slice_timeout(struct _timeout *t)
{
	int cpu = ARRAY_INDEX(slice_timeouts, t);

	slice_expired[cpu] = true;
10001bfc:	2101      	movs	r1, #1
	int cpu = ARRAY_INDEX(slice_timeouts, t);
10001bfe:	4b04      	ldr	r3, [pc, #16]	; (10001c10 <slice_timeout+0x14>)
	slice_expired[cpu] = true;
10001c00:	4a04      	ldr	r2, [pc, #16]	; (10001c14 <slice_timeout+0x18>)
	int cpu = ARRAY_INDEX(slice_timeouts, t);
10001c02:	1ac0      	subs	r0, r0, r3
10001c04:	4b04      	ldr	r3, [pc, #16]	; (10001c18 <slice_timeout+0x1c>)
10001c06:	10c0      	asrs	r0, r0, #3
10001c08:	4343      	muls	r3, r0
	slice_expired[cpu] = true;
10001c0a:	54d1      	strb	r1, [r2, r3]
	 * the specific core, but that's not part of the API yet.
	 */
	if (IS_ENABLED(CONFIG_SMP) && cpu != _current_cpu->id) {
		flag_ipi();
	}
}
10001c0c:	4770      	bx	lr
10001c0e:	46c0      	nop			; (mov r8, r8)
10001c10:	20000110 	.word	0x20000110
10001c14:	200001c1 	.word	0x200001c1
10001c18:	aaaaaaab 	.word	0xaaaaaaab

10001c1c <z_reset_time_slice>:

void z_reset_time_slice(struct k_thread *curr)
{
10001c1c:	b570      	push	{r4, r5, r6, lr}
	int cpu = _current_cpu->id;

	z_abort_timeout(&slice_timeouts[cpu]);
10001c1e:	2418      	movs	r4, #24
	int cpu = _current_cpu->id;
10001c20:	4b0c      	ldr	r3, [pc, #48]	; (10001c54 <z_reset_time_slice+0x38>)
{
10001c22:	0005      	movs	r5, r0
	int cpu = _current_cpu->id;
10001c24:	7c1e      	ldrb	r6, [r3, #16]
	z_abort_timeout(&slice_timeouts[cpu]);
10001c26:	4b0c      	ldr	r3, [pc, #48]	; (10001c58 <z_reset_time_slice+0x3c>)
10001c28:	4374      	muls	r4, r6
10001c2a:	18e4      	adds	r4, r4, r3
10001c2c:	0020      	movs	r0, r4
10001c2e:	f000 fff8 	bl	10002c22 <z_abort_timeout>
	slice_expired[cpu] = false;
10001c32:	2200      	movs	r2, #0
10001c34:	4b09      	ldr	r3, [pc, #36]	; (10001c5c <z_reset_time_slice+0x40>)
	if (sliceable(curr)) {
10001c36:	0028      	movs	r0, r5
	slice_expired[cpu] = false;
10001c38:	559a      	strb	r2, [r3, r6]
	if (sliceable(curr)) {
10001c3a:	f7ff ffbf 	bl	10001bbc <sliceable>
10001c3e:	2800      	cmp	r0, #0
10001c40:	d007      	beq.n	10001c52 <z_reset_time_slice+0x36>
	int ret = slice_ticks;
10001c42:	4b07      	ldr	r3, [pc, #28]	; (10001c60 <z_reset_time_slice+0x44>)
		z_add_timeout(&slice_timeouts[cpu], slice_timeout,
10001c44:	0020      	movs	r0, r4
			      K_TICKS(slice_time(curr) - 1));
10001c46:	681a      	ldr	r2, [r3, #0]
		z_add_timeout(&slice_timeouts[cpu], slice_timeout,
10001c48:	4906      	ldr	r1, [pc, #24]	; (10001c64 <z_reset_time_slice+0x48>)
			      K_TICKS(slice_time(curr) - 1));
10001c4a:	3a01      	subs	r2, #1
10001c4c:	17d3      	asrs	r3, r2, #31
		z_add_timeout(&slice_timeouts[cpu], slice_timeout,
10001c4e:	f000 facd 	bl	100021ec <z_add_timeout>
	}
}
10001c52:	bd70      	pop	{r4, r5, r6, pc}
10001c54:	2000018c 	.word	0x2000018c
10001c58:	20000110 	.word	0x20000110
10001c5c:	200001c1 	.word	0x200001c1
10001c60:	200001b4 	.word	0x200001b4
10001c64:	10001bfd 	.word	0x10001bfd

10001c68 <update_cache>:
	}
#endif
}

static void update_cache(int preempt_ok)
{
10001c68:	b570      	push	{r4, r5, r6, lr}
 * @return true if empty, false otherwise
 */

static inline bool sys_dlist_is_empty(sys_dlist_t *list)
{
	return list->head == list;
10001c6a:	4d0e      	ldr	r5, [pc, #56]	; (10001ca4 <update_cache+0x3c>)
 * @return a pointer to the head element, NULL if list is empty
 */

static inline sys_dnode_t *sys_dlist_peek_head(sys_dlist_t *list)
{
	return sys_dlist_is_empty(list) ? NULL : list->head;
10001c6c:	4b0e      	ldr	r3, [pc, #56]	; (10001ca8 <update_cache+0x40>)
	return list->head == list;
10001c6e:	69ac      	ldr	r4, [r5, #24]
	return sys_dlist_is_empty(list) ? NULL : list->head;
10001c70:	429c      	cmp	r4, r3
10001c72:	d001      	beq.n	10001c78 <update_cache+0x10>
	return (thread != NULL) ? thread : _current_cpu->idle_thread;
10001c74:	2c00      	cmp	r4, #0
10001c76:	d100      	bne.n	10001c7a <update_cache+0x12>
10001c78:	68ec      	ldr	r4, [r5, #12]
	if (z_is_thread_prevented_from_running(_current)) {
10001c7a:	68ab      	ldr	r3, [r5, #8]
	if (preempt_ok != 0) {
10001c7c:	2800      	cmp	r0, #0
10001c7e:	d108      	bne.n	10001c92 <update_cache+0x2a>
	if (z_is_thread_prevented_from_running(_current)) {
10001c80:	7b5a      	ldrb	r2, [r3, #13]
10001c82:	06d2      	lsls	r2, r2, #27
10001c84:	d105      	bne.n	10001c92 <update_cache+0x2a>
	if (IS_ENABLED(CONFIG_SWAP_NONATOMIC)
10001c86:	69a2      	ldr	r2, [r4, #24]
10001c88:	2a00      	cmp	r2, #0
10001c8a:	d102      	bne.n	10001c92 <update_cache+0x2a>
	if (is_preempt(_current) || is_metairq(thread)) {
10001c8c:	89da      	ldrh	r2, [r3, #14]
10001c8e:	2a7f      	cmp	r2, #127	; 0x7f
10001c90:	d805      	bhi.n	10001c9e <update_cache+0x36>
#ifndef CONFIG_SMP
	struct k_thread *thread = next_up();

	if (should_preempt(thread, preempt_ok)) {
#ifdef CONFIG_TIMESLICING
		if (thread != _current) {
10001c92:	429c      	cmp	r4, r3
10001c94:	d002      	beq.n	10001c9c <update_cache+0x34>
			z_reset_time_slice(thread);
10001c96:	0020      	movs	r0, r4
10001c98:	f7ff ffc0 	bl	10001c1c <z_reset_time_slice>
		}
#endif
		update_metairq_preempt(thread);
		_kernel.ready_q.cache = thread;
10001c9c:	0023      	movs	r3, r4
10001c9e:	616b      	str	r3, [r5, #20]
	 * thread because if the thread gets preempted for whatever
	 * reason the scheduler will make the same decision anyway.
	 */
	_current_cpu->swap_ok = preempt_ok;
#endif
}
10001ca0:	bd70      	pop	{r4, r5, r6, pc}
10001ca2:	46c0      	nop			; (mov r8, r8)
10001ca4:	2000018c 	.word	0x2000018c
10001ca8:	200001a4 	.word	0x200001a4

10001cac <move_thread_to_end_of_prio_q>:
	if (z_is_thread_queued(thread)) {
10001cac:	220d      	movs	r2, #13
{
10001cae:	b570      	push	{r4, r5, r6, lr}
	if (z_is_thread_queued(thread)) {
10001cb0:	5682      	ldrsb	r2, [r0, r2]
{
10001cb2:	0004      	movs	r4, r0
	return (thread->base.thread_state & state) != 0U;
10001cb4:	7b43      	ldrb	r3, [r0, #13]
	if (z_is_thread_queued(thread)) {
10001cb6:	2a00      	cmp	r2, #0
10001cb8:	da04      	bge.n	10001cc4 <move_thread_to_end_of_prio_q+0x18>
	thread->base.thread_state &= ~_THREAD_QUEUED;
10001cba:	227f      	movs	r2, #127	; 0x7f
10001cbc:	4013      	ands	r3, r2
10001cbe:	7343      	strb	r3, [r0, #13]

void z_priq_dumb_remove(sys_dlist_t *pq, struct k_thread *thread)
{
	__ASSERT_NO_MSG(!z_is_idle_thread_object(thread));

	sys_dlist_remove(&thread->base.qnode_dlist);
10001cc0:	f000 ff56 	bl	10002b70 <sys_dlist_remove>
	thread->base.thread_state |= _THREAD_QUEUED;
10001cc4:	2380      	movs	r3, #128	; 0x80
10001cc6:	7b62      	ldrb	r2, [r4, #13]
10001cc8:	425b      	negs	r3, r3
10001cca:	4313      	orrs	r3, r2
	return list->head == list;
10001ccc:	4a13      	ldr	r2, [pc, #76]	; (10001d1c <move_thread_to_end_of_prio_q+0x70>)
10001cce:	7363      	strb	r3, [r4, #13]
10001cd0:	6993      	ldr	r3, [r2, #24]
	return sys_dlist_is_empty(list) ? NULL : list->head;
10001cd2:	4813      	ldr	r0, [pc, #76]	; (10001d20 <move_thread_to_end_of_prio_q+0x74>)
10001cd4:	4283      	cmp	r3, r0
10001cd6:	d100      	bne.n	10001cda <move_thread_to_end_of_prio_q+0x2e>
10001cd8:	2300      	movs	r3, #0
 */

static inline sys_dnode_t *sys_dlist_peek_next_no_check(sys_dlist_t *list,
							sys_dnode_t *node)
{
	return (node == list->tail) ? NULL : node->next;
10001cda:	69d1      	ldr	r1, [r2, #28]
	SYS_DLIST_FOR_EACH_CONTAINER(pq, t, base.qnode_dlist) {
10001cdc:	2b00      	cmp	r3, #0
10001cde:	d104      	bne.n	10001cea <move_thread_to_end_of_prio_q+0x3e>

static inline void sys_dlist_append(sys_dlist_t *list, sys_dnode_t *node)
{
	sys_dnode_t *const tail = list->tail;

	node->next = list;
10001ce0:	6020      	str	r0, [r4, #0]
	node->prev = tail;
10001ce2:	6061      	str	r1, [r4, #4]

	tail->next = node;
10001ce4:	600c      	str	r4, [r1, #0]
	list->tail = node;
10001ce6:	61d4      	str	r4, [r2, #28]
}
10001ce8:	e00c      	b.n	10001d04 <move_thread_to_end_of_prio_q+0x58>
	int32_t b1 = thread_1->base.prio;
10001cea:	250e      	movs	r5, #14
	int32_t b2 = thread_2->base.prio;
10001cec:	260e      	movs	r6, #14
	int32_t b1 = thread_1->base.prio;
10001cee:	5765      	ldrsb	r5, [r4, r5]
	int32_t b2 = thread_2->base.prio;
10001cf0:	579e      	ldrsb	r6, [r3, r6]
	if (b1 != b2) {
10001cf2:	42b5      	cmp	r5, r6
10001cf4:	d00d      	beq.n	10001d12 <move_thread_to_end_of_prio_q+0x66>
		if (z_sched_prio_cmp(thread, t) > 0) {
10001cf6:	42ae      	cmp	r6, r5
10001cf8:	dd0b      	ble.n	10001d12 <move_thread_to_end_of_prio_q+0x66>
 * @param successor the position before which "node" will be inserted
 * @param node the element to insert
 */
static inline void sys_dlist_insert(sys_dnode_t *successor, sys_dnode_t *node)
{
	sys_dnode_t *const prev = successor->prev;
10001cfa:	6859      	ldr	r1, [r3, #4]

	node->prev = prev;
	node->next = successor;
10001cfc:	6023      	str	r3, [r4, #0]
	node->prev = prev;
10001cfe:	6061      	str	r1, [r4, #4]
	prev->next = node;
10001d00:	600c      	str	r4, [r1, #0]
	successor->prev = node;
10001d02:	605c      	str	r4, [r3, #4]
	update_cache(thread == _current);
10001d04:	6890      	ldr	r0, [r2, #8]
10001d06:	1b00      	subs	r0, r0, r4
10001d08:	4243      	negs	r3, r0
10001d0a:	4158      	adcs	r0, r3
10001d0c:	f7ff ffac 	bl	10001c68 <update_cache>
}
10001d10:	bd70      	pop	{r4, r5, r6, pc}
	return (node == list->tail) ? NULL : node->next;
10001d12:	4299      	cmp	r1, r3
10001d14:	d0e4      	beq.n	10001ce0 <move_thread_to_end_of_prio_q+0x34>
10001d16:	681b      	ldr	r3, [r3, #0]
10001d18:	e7e0      	b.n	10001cdc <move_thread_to_end_of_prio_q+0x30>
10001d1a:	46c0      	nop			; (mov r8, r8)
10001d1c:	2000018c 	.word	0x2000018c
10001d20:	200001a4 	.word	0x200001a4

10001d24 <ready_thread>:
	if (!z_is_thread_queued(thread) && z_is_thread_ready(thread)) {
10001d24:	230d      	movs	r3, #13
{
10001d26:	b570      	push	{r4, r5, r6, lr}
	if (!z_is_thread_queued(thread) && z_is_thread_ready(thread)) {
10001d28:	56c3      	ldrsb	r3, [r0, r3]
10001d2a:	7b41      	ldrb	r1, [r0, #13]
10001d2c:	2b00      	cmp	r3, #0
10001d2e:	db26      	blt.n	10001d7e <ready_thread+0x5a>
	return !((z_is_thread_prevented_from_running(thread)) != 0U ||
10001d30:	06cb      	lsls	r3, r1, #27
10001d32:	d124      	bne.n	10001d7e <ready_thread+0x5a>
	return node->next != NULL;
10001d34:	6983      	ldr	r3, [r0, #24]
10001d36:	2b00      	cmp	r3, #0
10001d38:	d121      	bne.n	10001d7e <ready_thread+0x5a>
	thread->base.thread_state |= _THREAD_QUEUED;
10001d3a:	2280      	movs	r2, #128	; 0x80
10001d3c:	4252      	negs	r2, r2
10001d3e:	430a      	orrs	r2, r1
10001d40:	7342      	strb	r2, [r0, #13]
	return list->head == list;
10001d42:	4a11      	ldr	r2, [pc, #68]	; (10001d88 <ready_thread+0x64>)
	return sys_dlist_is_empty(list) ? NULL : list->head;
10001d44:	4c11      	ldr	r4, [pc, #68]	; (10001d8c <ready_thread+0x68>)
	return list->head == list;
10001d46:	6991      	ldr	r1, [r2, #24]
	return sys_dlist_is_empty(list) ? NULL : list->head;
10001d48:	42a1      	cmp	r1, r4
10001d4a:	d000      	beq.n	10001d4e <ready_thread+0x2a>
10001d4c:	000b      	movs	r3, r1
	return (node == list->tail) ? NULL : node->next;
10001d4e:	69d1      	ldr	r1, [r2, #28]
	SYS_DLIST_FOR_EACH_CONTAINER(pq, t, base.qnode_dlist) {
10001d50:	2b00      	cmp	r3, #0
10001d52:	d104      	bne.n	10001d5e <ready_thread+0x3a>
	node->next = list;
10001d54:	6004      	str	r4, [r0, #0]
	node->prev = tail;
10001d56:	6041      	str	r1, [r0, #4]
	tail->next = node;
10001d58:	6008      	str	r0, [r1, #0]
	list->tail = node;
10001d5a:	61d0      	str	r0, [r2, #28]
}
10001d5c:	e00c      	b.n	10001d78 <ready_thread+0x54>
	int32_t b1 = thread_1->base.prio;
10001d5e:	250e      	movs	r5, #14
	int32_t b2 = thread_2->base.prio;
10001d60:	260e      	movs	r6, #14
	int32_t b1 = thread_1->base.prio;
10001d62:	5745      	ldrsb	r5, [r0, r5]
	int32_t b2 = thread_2->base.prio;
10001d64:	579e      	ldrsb	r6, [r3, r6]
	if (b1 != b2) {
10001d66:	42b5      	cmp	r5, r6
10001d68:	d00a      	beq.n	10001d80 <ready_thread+0x5c>
		if (z_sched_prio_cmp(thread, t) > 0) {
10001d6a:	42ae      	cmp	r6, r5
10001d6c:	dd08      	ble.n	10001d80 <ready_thread+0x5c>
	sys_dnode_t *const prev = successor->prev;
10001d6e:	685a      	ldr	r2, [r3, #4]
	node->next = successor;
10001d70:	6003      	str	r3, [r0, #0]
	node->prev = prev;
10001d72:	6042      	str	r2, [r0, #4]
	prev->next = node;
10001d74:	6010      	str	r0, [r2, #0]
	successor->prev = node;
10001d76:	6058      	str	r0, [r3, #4]
		update_cache(0);
10001d78:	2000      	movs	r0, #0
10001d7a:	f7ff ff75 	bl	10001c68 <update_cache>
}
10001d7e:	bd70      	pop	{r4, r5, r6, pc}
	return (node == list->tail) ? NULL : node->next;
10001d80:	428b      	cmp	r3, r1
10001d82:	d0e7      	beq.n	10001d54 <ready_thread+0x30>
10001d84:	681b      	ldr	r3, [r3, #0]
10001d86:	e7e3      	b.n	10001d50 <ready_thread+0x2c>
10001d88:	2000018c 	.word	0x2000018c
10001d8c:	200001a4 	.word	0x200001a4

10001d90 <unready_thread>:
	if (z_is_thread_queued(thread)) {
10001d90:	220d      	movs	r2, #13
{
10001d92:	b510      	push	{r4, lr}
	if (z_is_thread_queued(thread)) {
10001d94:	5682      	ldrsb	r2, [r0, r2]
{
10001d96:	0004      	movs	r4, r0
	return (thread->base.thread_state & state) != 0U;
10001d98:	7b43      	ldrb	r3, [r0, #13]
	if (z_is_thread_queued(thread)) {
10001d9a:	2a00      	cmp	r2, #0
10001d9c:	da04      	bge.n	10001da8 <unready_thread+0x18>
	thread->base.thread_state &= ~_THREAD_QUEUED;
10001d9e:	227f      	movs	r2, #127	; 0x7f
10001da0:	4013      	ands	r3, r2
10001da2:	7343      	strb	r3, [r0, #13]
	sys_dlist_remove(&thread->base.qnode_dlist);
10001da4:	f000 fee4 	bl	10002b70 <sys_dlist_remove>
	update_cache(thread == _current);
10001da8:	4b03      	ldr	r3, [pc, #12]	; (10001db8 <unready_thread+0x28>)
10001daa:	6898      	ldr	r0, [r3, #8]
10001dac:	1b00      	subs	r0, r0, r4
10001dae:	4243      	negs	r3, r0
10001db0:	4158      	adcs	r0, r3
10001db2:	f7ff ff59 	bl	10001c68 <update_cache>
}
10001db6:	bd10      	pop	{r4, pc}
10001db8:	2000018c 	.word	0x2000018c

10001dbc <z_time_slice>:
{
10001dbc:	b570      	push	{r4, r5, r6, lr}
	__asm__ volatile("mrs %0, PRIMASK;"
10001dbe:	f3ef 8510 	mrs	r5, PRIMASK
10001dc2:	b672      	cpsid	i
	struct k_thread *curr = _current;
10001dc4:	4a10      	ldr	r2, [pc, #64]	; (10001e08 <z_time_slice+0x4c>)
	if (pending_current == curr) {
10001dc6:	4b11      	ldr	r3, [pc, #68]	; (10001e0c <z_time_slice+0x50>)
	struct k_thread *curr = _current;
10001dc8:	6894      	ldr	r4, [r2, #8]
	if (pending_current == curr) {
10001dca:	6818      	ldr	r0, [r3, #0]
10001dcc:	42a0      	cmp	r0, r4
10001dce:	d107      	bne.n	10001de0 <z_time_slice+0x24>
		z_reset_time_slice(curr);
10001dd0:	f7ff ff24 	bl	10001c1c <z_reset_time_slice>
	if (key != 0U) {
10001dd4:	2d00      	cmp	r5, #0
10001dd6:	d102      	bne.n	10001dde <z_time_slice+0x22>
	__asm__ volatile(
10001dd8:	b662      	cpsie	i
10001dda:	f3bf 8f6f 	isb	sy
}
10001dde:	bd70      	pop	{r4, r5, r6, pc}
	pending_current = NULL;
10001de0:	2100      	movs	r1, #0
10001de2:	6019      	str	r1, [r3, #0]
	if (slice_expired[_current_cpu->id] && sliceable(curr)) {
10001de4:	7c12      	ldrb	r2, [r2, #16]
10001de6:	4b0a      	ldr	r3, [pc, #40]	; (10001e10 <z_time_slice+0x54>)
10001de8:	5c9b      	ldrb	r3, [r3, r2]
10001dea:	428b      	cmp	r3, r1
10001dec:	d0f2      	beq.n	10001dd4 <z_time_slice+0x18>
10001dee:	0020      	movs	r0, r4
10001df0:	f7ff fee4 	bl	10001bbc <sliceable>
10001df4:	2800      	cmp	r0, #0
10001df6:	d0ed      	beq.n	10001dd4 <z_time_slice+0x18>
		if (!z_is_thread_prevented_from_running(curr)) {
10001df8:	7b63      	ldrb	r3, [r4, #13]
10001dfa:	06db      	lsls	r3, r3, #27
10001dfc:	d102      	bne.n	10001e04 <z_time_slice+0x48>
			move_thread_to_end_of_prio_q(curr);
10001dfe:	0020      	movs	r0, r4
10001e00:	f7ff ff54 	bl	10001cac <move_thread_to_end_of_prio_q>
		z_reset_time_slice(curr);
10001e04:	0020      	movs	r0, r4
10001e06:	e7e3      	b.n	10001dd0 <z_time_slice+0x14>
10001e08:	2000018c 	.word	0x2000018c
10001e0c:	200001ac 	.word	0x200001ac
10001e10:	200001c1 	.word	0x200001c1

10001e14 <z_reschedule>:
{
10001e14:	b510      	push	{r4, lr}
	return arch_irq_unlocked(key) && !arch_is_in_isr();
10001e16:	2900      	cmp	r1, #0
10001e18:	d10a      	bne.n	10001e30 <z_reschedule+0x1c>
  __ASM volatile ("MRS %0, ipsr" : "=r" (result) );
10001e1a:	f3ef 8005 	mrs	r0, IPSR
10001e1e:	2800      	cmp	r0, #0
10001e20:	d107      	bne.n	10001e32 <z_reschedule+0x1e>
	return new_thread != _current;
10001e22:	4b06      	ldr	r3, [pc, #24]	; (10001e3c <z_reschedule+0x28>)
	if (resched(key.key) && need_swap()) {
10001e24:	689a      	ldr	r2, [r3, #8]
10001e26:	695b      	ldr	r3, [r3, #20]
10001e28:	429a      	cmp	r2, r3
10001e2a:	d002      	beq.n	10001e32 <z_reschedule+0x1e>
	ret = arch_swap(key);
10001e2c:	f7fe ffd8 	bl	10000de0 <arch_swap>
}
10001e30:	bd10      	pop	{r4, pc}
10001e32:	b662      	cpsie	i
10001e34:	f3bf 8f6f 	isb	sy
10001e38:	e7fa      	b.n	10001e30 <z_reschedule+0x1c>
10001e3a:	46c0      	nop			; (mov r8, r8)
10001e3c:	2000018c 	.word	0x2000018c

10001e40 <z_sched_start>:
{
10001e40:	b510      	push	{r4, lr}
	__asm__ volatile("mrs %0, PRIMASK;"
10001e42:	f3ef 8410 	mrs	r4, PRIMASK
10001e46:	b672      	cpsid	i
	if (z_has_thread_started(thread)) {
10001e48:	2204      	movs	r2, #4
	return (thread->base.thread_state & _THREAD_PRESTART) == 0U;
10001e4a:	7b43      	ldrb	r3, [r0, #13]
10001e4c:	4213      	tst	r3, r2
10001e4e:	d105      	bne.n	10001e5c <z_sched_start+0x1c>
	if (key != 0U) {
10001e50:	2c00      	cmp	r4, #0
10001e52:	d102      	bne.n	10001e5a <z_sched_start+0x1a>
	__asm__ volatile(
10001e54:	b662      	cpsie	i
10001e56:	f3bf 8f6f 	isb	sy
}
10001e5a:	bd10      	pop	{r4, pc}
	thread->base.thread_state &= ~_THREAD_PRESTART;
10001e5c:	4393      	bics	r3, r2
10001e5e:	7343      	strb	r3, [r0, #13]
	ready_thread(thread);
10001e60:	f7ff ff60 	bl	10001d24 <ready_thread>
	z_reschedule(&sched_spinlock, key);
10001e64:	0021      	movs	r1, r4
10001e66:	4802      	ldr	r0, [pc, #8]	; (10001e70 <z_sched_start+0x30>)
10001e68:	f7ff ffd4 	bl	10001e14 <z_reschedule>
10001e6c:	e7f5      	b.n	10001e5a <z_sched_start+0x1a>
10001e6e:	46c0      	nop			; (mov r8, r8)
10001e70:	200001c2 	.word	0x200001c2

10001e74 <z_impl_k_thread_suspend>:
{
10001e74:	b570      	push	{r4, r5, r6, lr}
10001e76:	0004      	movs	r4, r0
}

static inline int z_abort_thread_timeout(struct k_thread *thread)
{
	return z_abort_timeout(&thread->base.timeout);
10001e78:	3018      	adds	r0, #24
10001e7a:	f000 fed2 	bl	10002c22 <z_abort_timeout>
	__asm__ volatile("mrs %0, PRIMASK;"
10001e7e:	f3ef 8610 	mrs	r6, PRIMASK
10001e82:	b672      	cpsid	i
		if (z_is_thread_queued(thread)) {
10001e84:	220d      	movs	r2, #13
10001e86:	56a2      	ldrsb	r2, [r4, r2]
	return (thread->base.thread_state & state) != 0U;
10001e88:	7b63      	ldrb	r3, [r4, #13]
10001e8a:	2a00      	cmp	r2, #0
10001e8c:	da05      	bge.n	10001e9a <z_impl_k_thread_suspend+0x26>
	thread->base.thread_state &= ~_THREAD_QUEUED;
10001e8e:	227f      	movs	r2, #127	; 0x7f
10001e90:	4013      	ands	r3, r2
	sys_dlist_remove(&thread->base.qnode_dlist);
10001e92:	0020      	movs	r0, r4
	thread->base.thread_state &= ~_THREAD_QUEUED;
10001e94:	7363      	strb	r3, [r4, #13]
	sys_dlist_remove(&thread->base.qnode_dlist);
10001e96:	f000 fe6b 	bl	10002b70 <sys_dlist_remove>
	thread->base.thread_state |= _THREAD_SUSPENDED;
10001e9a:	2310      	movs	r3, #16
		update_cache(thread == _current);
10001e9c:	4d0a      	ldr	r5, [pc, #40]	; (10001ec8 <z_impl_k_thread_suspend+0x54>)
10001e9e:	7b62      	ldrb	r2, [r4, #13]
10001ea0:	68a8      	ldr	r0, [r5, #8]
10001ea2:	4313      	orrs	r3, r2
10001ea4:	1b00      	subs	r0, r0, r4
10001ea6:	7363      	strb	r3, [r4, #13]
10001ea8:	4243      	negs	r3, r0
10001eaa:	4158      	adcs	r0, r3
10001eac:	f7ff fedc 	bl	10001c68 <update_cache>
	if (key != 0U) {
10001eb0:	2e00      	cmp	r6, #0
10001eb2:	d102      	bne.n	10001eba <z_impl_k_thread_suspend+0x46>
	__asm__ volatile(
10001eb4:	b662      	cpsie	i
10001eb6:	f3bf 8f6f 	isb	sy
	if (thread == _current) {
10001eba:	68ab      	ldr	r3, [r5, #8]
10001ebc:	42a3      	cmp	r3, r4
10001ebe:	d101      	bne.n	10001ec4 <z_impl_k_thread_suspend+0x50>
		z_reschedule_unlocked();
10001ec0:	f000 fea8 	bl	10002c14 <z_reschedule_unlocked>
}
10001ec4:	bd70      	pop	{r4, r5, r6, pc}
10001ec6:	46c0      	nop			; (mov r8, r8)
10001ec8:	2000018c 	.word	0x2000018c

10001ecc <k_sched_lock>:
	__asm__ volatile("mrs %0, PRIMASK;"
10001ecc:	f3ef 8110 	mrs	r1, PRIMASK
10001ed0:	b672      	cpsid	i
static inline void z_sched_lock(void)
{
	__ASSERT(!arch_is_in_isr(), "");
	__ASSERT(_current->base.sched_locked != 1U, "");

	--_current->base.sched_locked;
10001ed2:	4b05      	ldr	r3, [pc, #20]	; (10001ee8 <k_sched_lock+0x1c>)
10001ed4:	689a      	ldr	r2, [r3, #8]
10001ed6:	7bd3      	ldrb	r3, [r2, #15]
10001ed8:	3b01      	subs	r3, #1
10001eda:	73d3      	strb	r3, [r2, #15]
	if (key != 0U) {
10001edc:	2900      	cmp	r1, #0
10001ede:	d102      	bne.n	10001ee6 <k_sched_lock+0x1a>
	__asm__ volatile(
10001ee0:	b662      	cpsie	i
10001ee2:	f3bf 8f6f 	isb	sy
}
10001ee6:	4770      	bx	lr
10001ee8:	2000018c 	.word	0x2000018c

10001eec <k_sched_unlock>:
{
10001eec:	b510      	push	{r4, lr}
	__asm__ volatile("mrs %0, PRIMASK;"
10001eee:	f3ef 8410 	mrs	r4, PRIMASK
10001ef2:	b672      	cpsid	i
		++_current->base.sched_locked;
10001ef4:	4b07      	ldr	r3, [pc, #28]	; (10001f14 <k_sched_unlock+0x28>)
		update_cache(0);
10001ef6:	2000      	movs	r0, #0
		++_current->base.sched_locked;
10001ef8:	689a      	ldr	r2, [r3, #8]
10001efa:	7bd3      	ldrb	r3, [r2, #15]
10001efc:	3301      	adds	r3, #1
10001efe:	73d3      	strb	r3, [r2, #15]
		update_cache(0);
10001f00:	f7ff feb2 	bl	10001c68 <update_cache>
	if (key != 0U) {
10001f04:	2c00      	cmp	r4, #0
10001f06:	d102      	bne.n	10001f0e <k_sched_unlock+0x22>
	__asm__ volatile(
10001f08:	b662      	cpsie	i
10001f0a:	f3bf 8f6f 	isb	sy
	z_reschedule_unlocked();
10001f0e:	f000 fe81 	bl	10002c14 <z_reschedule_unlocked>
}
10001f12:	bd10      	pop	{r4, pc}
10001f14:	2000018c 	.word	0x2000018c

10001f18 <z_sched_init>:
	list->head = (sys_dnode_t *)list;
10001f18:	4b02      	ldr	r3, [pc, #8]	; (10001f24 <z_sched_init+0xc>)
10001f1a:	4a03      	ldr	r2, [pc, #12]	; (10001f28 <z_sched_init+0x10>)
10001f1c:	619a      	str	r2, [r3, #24]
	list->tail = (sys_dnode_t *)list;
10001f1e:	61da      	str	r2, [r3, #28]
		init_ready_q(&_kernel.cpus[i].ready_q);
	}
#else
	init_ready_q(&_kernel.ready_q);
#endif
}
10001f20:	4770      	bx	lr
10001f22:	46c0      	nop			; (mov r8, r8)
10001f24:	2000018c 	.word	0x2000018c
10001f28:	200001a4 	.word	0x200001a4

10001f2c <z_impl_k_yield>:
	return !(k_is_pre_kernel() || k_is_in_isr() ||
		 z_is_idle_thread_object(_current));
}

void z_impl_k_yield(void)
{
10001f2c:	b5f8      	push	{r3, r4, r5, r6, r7, lr}
	__asm__ volatile("mrs %0, PRIMASK;"
10001f2e:	f3ef 8510 	mrs	r5, PRIMASK
10001f32:	b672      	cpsid	i
	thread->base.thread_state &= ~_THREAD_QUEUED;
10001f34:	227f      	movs	r2, #127	; 0x7f

	k_spinlock_key_t key = k_spin_lock(&sched_spinlock);

	if (!IS_ENABLED(CONFIG_SMP) ||
	    z_is_thread_queued(_current)) {
		dequeue_thread(_current);
10001f36:	4c19      	ldr	r4, [pc, #100]	; (10001f9c <z_impl_k_yield+0x70>)
10001f38:	68a0      	ldr	r0, [r4, #8]
	thread->base.thread_state &= ~_THREAD_QUEUED;
10001f3a:	7b43      	ldrb	r3, [r0, #13]
10001f3c:	4013      	ands	r3, r2
10001f3e:	7343      	strb	r3, [r0, #13]
	sys_dlist_remove(&thread->base.qnode_dlist);
10001f40:	f000 fe16 	bl	10002b70 <sys_dlist_remove>
	thread->base.thread_state |= _THREAD_QUEUED;
10001f44:	2280      	movs	r2, #128	; 0x80
	}
	queue_thread(_current);
10001f46:	68a3      	ldr	r3, [r4, #8]
	thread->base.thread_state |= _THREAD_QUEUED;
10001f48:	4252      	negs	r2, r2
10001f4a:	7b59      	ldrb	r1, [r3, #13]
	return sys_dlist_is_empty(list) ? NULL : list->head;
10001f4c:	4814      	ldr	r0, [pc, #80]	; (10001fa0 <z_impl_k_yield+0x74>)
10001f4e:	430a      	orrs	r2, r1
10001f50:	735a      	strb	r2, [r3, #13]
	return list->head == list;
10001f52:	69a2      	ldr	r2, [r4, #24]
	return sys_dlist_is_empty(list) ? NULL : list->head;
10001f54:	4282      	cmp	r2, r0
10001f56:	d100      	bne.n	10001f5a <z_impl_k_yield+0x2e>
10001f58:	2200      	movs	r2, #0
	return (node == list->tail) ? NULL : node->next;
10001f5a:	69e1      	ldr	r1, [r4, #28]
	SYS_DLIST_FOR_EACH_CONTAINER(pq, t, base.qnode_dlist) {
10001f5c:	2a00      	cmp	r2, #0
10001f5e:	d104      	bne.n	10001f6a <z_impl_k_yield+0x3e>
	node->next = list;
10001f60:	6018      	str	r0, [r3, #0]
	node->prev = tail;
10001f62:	6059      	str	r1, [r3, #4]
	tail->next = node;
10001f64:	600b      	str	r3, [r1, #0]
	list->tail = node;
10001f66:	61e3      	str	r3, [r4, #28]
}
10001f68:	e00c      	b.n	10001f84 <z_impl_k_yield+0x58>
	int32_t b1 = thread_1->base.prio;
10001f6a:	260e      	movs	r6, #14
	int32_t b2 = thread_2->base.prio;
10001f6c:	270e      	movs	r7, #14
	int32_t b1 = thread_1->base.prio;
10001f6e:	579e      	ldrsb	r6, [r3, r6]
	int32_t b2 = thread_2->base.prio;
10001f70:	57d7      	ldrsb	r7, [r2, r7]
	if (b1 != b2) {
10001f72:	42be      	cmp	r6, r7
10001f74:	d00d      	beq.n	10001f92 <z_impl_k_yield+0x66>
		if (z_sched_prio_cmp(thread, t) > 0) {
10001f76:	42b7      	cmp	r7, r6
10001f78:	dd0b      	ble.n	10001f92 <z_impl_k_yield+0x66>
	sys_dnode_t *const prev = successor->prev;
10001f7a:	6851      	ldr	r1, [r2, #4]
	node->next = successor;
10001f7c:	601a      	str	r2, [r3, #0]
	node->prev = prev;
10001f7e:	6059      	str	r1, [r3, #4]
	prev->next = node;
10001f80:	600b      	str	r3, [r1, #0]
	successor->prev = node;
10001f82:	6053      	str	r3, [r2, #4]
	update_cache(1);
10001f84:	2001      	movs	r0, #1
10001f86:	f7ff fe6f 	bl	10001c68 <update_cache>
10001f8a:	0028      	movs	r0, r5
10001f8c:	f7fe ff28 	bl	10000de0 <arch_swap>
	z_swap(&sched_spinlock, key);
}
10001f90:	bdf8      	pop	{r3, r4, r5, r6, r7, pc}
	return (node == list->tail) ? NULL : node->next;
10001f92:	428a      	cmp	r2, r1
10001f94:	d0e4      	beq.n	10001f60 <z_impl_k_yield+0x34>
10001f96:	6812      	ldr	r2, [r2, #0]
10001f98:	e7e0      	b.n	10001f5c <z_impl_k_yield+0x30>
10001f9a:	46c0      	nop			; (mov r8, r8)
10001f9c:	2000018c 	.word	0x2000018c
10001fa0:	200001a4 	.word	0x200001a4

10001fa4 <z_tick_sleep>:
	__ASSERT(!arch_is_in_isr(), "");

	LOG_DBG("thread %p for %lu ticks", _current, (unsigned long)ticks);

	/* wait of 0 ms is treated as a 'yield' */
	if (ticks == 0) {
10001fa4:	0003      	movs	r3, r0
{
10001fa6:	b5f7      	push	{r0, r1, r2, r4, r5, r6, r7, lr}
	if (ticks == 0) {
10001fa8:	430b      	orrs	r3, r1
{
10001faa:	0004      	movs	r4, r0
10001fac:	000d      	movs	r5, r1
	if (ticks == 0) {
10001fae:	2b00      	cmp	r3, #0
10001fb0:	d103      	bne.n	10001fba <z_tick_sleep+0x16>
		(void) arch_syscall_invoke0(K_SYSCALL_K_YIELD);
		return;
	}
#endif
	compiler_barrier();
	z_impl_k_yield();
10001fb2:	f7ff ffbb 	bl	10001f2c <z_impl_k_yield>
		k_yield();
		return 0;
10001fb6:	2000      	movs	r0, #0
		return ticks;
	}
#endif

	return 0;
}
10001fb8:	bdfe      	pop	{r1, r2, r3, r4, r5, r6, r7, pc}
	if (Z_TICK_ABS(ticks) <= 0) {
10001fba:	1c4b      	adds	r3, r1, #1
10001fbc:	db2e      	blt.n	1000201c <z_tick_sleep+0x78>
10001fbe:	1c4b      	adds	r3, r1, #1
10001fc0:	d101      	bne.n	10001fc6 <z_tick_sleep+0x22>
10001fc2:	1c83      	adds	r3, r0, #2
10001fc4:	d32a      	bcc.n	1000201c <z_tick_sleep+0x78>
		expected_wakeup_ticks = ticks + sys_clock_tick_get_32();
10001fc6:	f000 fe3f 	bl	10002c48 <sys_clock_tick_get_32>
10001fca:	1827      	adds	r7, r4, r0
10001fcc:	f3ef 8310 	mrs	r3, PRIMASK
10001fd0:	b672      	cpsid	i
	pending_current = _current;
10001fd2:	4e14      	ldr	r6, [pc, #80]	; (10002024 <z_tick_sleep+0x80>)
10001fd4:	9301      	str	r3, [sp, #4]
10001fd6:	68b0      	ldr	r0, [r6, #8]
10001fd8:	4b13      	ldr	r3, [pc, #76]	; (10002028 <z_tick_sleep+0x84>)
10001fda:	6018      	str	r0, [r3, #0]
	unready_thread(_current);
10001fdc:	f7ff fed8 	bl	10001d90 <unready_thread>
	z_add_thread_timeout(_current, timeout);
10001fe0:	68b0      	ldr	r0, [r6, #8]
	z_add_timeout(&thread->base.timeout, z_thread_timeout, ticks);
10001fe2:	0022      	movs	r2, r4
10001fe4:	002b      	movs	r3, r5
10001fe6:	4911      	ldr	r1, [pc, #68]	; (1000202c <z_tick_sleep+0x88>)
10001fe8:	3018      	adds	r0, #24
10001fea:	f000 f8ff 	bl	100021ec <z_add_timeout>
	thread->base.thread_state |= _THREAD_SUSPENDED;
10001fee:	2310      	movs	r3, #16
	z_mark_thread_as_suspended(_current);
10001ff0:	68b2      	ldr	r2, [r6, #8]
10001ff2:	9801      	ldr	r0, [sp, #4]
10001ff4:	7b51      	ldrb	r1, [r2, #13]
10001ff6:	430b      	orrs	r3, r1
10001ff8:	7353      	strb	r3, [r2, #13]
10001ffa:	f7fe fef1 	bl	10000de0 <arch_swap>
	ticks = (k_ticks_t)expected_wakeup_ticks - sys_clock_tick_get_32();
10001ffe:	f000 fe23 	bl	10002c48 <sys_clock_tick_get_32>
10002002:	2300      	movs	r3, #0
10002004:	003a      	movs	r2, r7
10002006:	0004      	movs	r4, r0
10002008:	001d      	movs	r5, r3
1000200a:	1b12      	subs	r2, r2, r4
1000200c:	41ab      	sbcs	r3, r5
	if (ticks > 0) {
1000200e:	42ab      	cmp	r3, r5
10002010:	dc02      	bgt.n	10002018 <z_tick_sleep+0x74>
10002012:	d1d0      	bne.n	10001fb6 <z_tick_sleep+0x12>
10002014:	42aa      	cmp	r2, r5
10002016:	d0ce      	beq.n	10001fb6 <z_tick_sleep+0x12>
		return ticks;
10002018:	0010      	movs	r0, r2
1000201a:	e7cd      	b.n	10001fb8 <z_tick_sleep+0x14>
		expected_wakeup_ticks = Z_TICK_ABS(ticks);
1000201c:	2702      	movs	r7, #2
1000201e:	427f      	negs	r7, r7
10002020:	1b3f      	subs	r7, r7, r4
10002022:	e7d3      	b.n	10001fcc <z_tick_sleep+0x28>
10002024:	2000018c 	.word	0x2000018c
10002028:	200001ac 	.word	0x200001ac
1000202c:	10002bed 	.word	0x10002bed

10002030 <z_impl_k_sleep>:

int32_t z_impl_k_sleep(k_timeout_t timeout)
{
10002030:	b510      	push	{r4, lr}
10002032:	000b      	movs	r3, r1
10002034:	000c      	movs	r4, r1
	__ASSERT(!arch_is_in_isr(), "");

	SYS_PORT_TRACING_FUNC_ENTER(k_thread, sleep, timeout);

	/* in case of K_FOREVER, we suspend */
	if (K_TIMEOUT_EQ(timeout, K_FOREVER)) {
10002036:	1c42      	adds	r2, r0, #1
10002038:	d107      	bne.n	1000204a <z_impl_k_sleep+0x1a>
1000203a:	3301      	adds	r3, #1
1000203c:	d105      	bne.n	1000204a <z_impl_k_sleep+0x1a>
		k_thread_suspend(_current);
1000203e:	4b07      	ldr	r3, [pc, #28]	; (1000205c <z_impl_k_sleep+0x2c>)
10002040:	6898      	ldr	r0, [r3, #8]
		(void) arch_syscall_invoke1(parm0.x, K_SYSCALL_K_THREAD_SUSPEND);
		return;
	}
#endif
	compiler_barrier();
	z_impl_k_thread_suspend(thread);
10002042:	f7ff ff17 	bl	10001e74 <z_impl_k_thread_suspend>

		SYS_PORT_TRACING_FUNC_EXIT(k_thread, sleep, timeout, (int32_t) K_TICKS_FOREVER);

		return (int32_t) K_TICKS_FOREVER;
10002046:	0020      	movs	r0, r4
	int32_t ret = k_ticks_to_ms_floor64(ticks);

	SYS_PORT_TRACING_FUNC_EXIT(k_thread, sleep, timeout, ret);

	return ret;
}
10002048:	bd10      	pop	{r4, pc}
	ticks = z_tick_sleep(ticks);
1000204a:	0021      	movs	r1, r4
1000204c:	f7ff ffaa 	bl	10001fa4 <z_tick_sleep>
			return t / ((uint64_t)from_hz / to_hz);
10002050:	220a      	movs	r2, #10
10002052:	2300      	movs	r3, #0
	int32_t ret = k_ticks_to_ms_floor64(ticks);
10002054:	17c1      	asrs	r1, r0, #31
10002056:	f7fe f921 	bl	1000029c <__aeabi_uldivmod>
	return ret;
1000205a:	e7f5      	b.n	10002048 <z_impl_k_sleep+0x18>
1000205c:	2000018c 	.word	0x2000018c

10002060 <z_impl_z_current_get>:
	 * local interrupts when reading it.
	 */
	unsigned int k = arch_irq_lock();
#endif

	k_tid_t ret = _current_cpu->current;
10002060:	4b01      	ldr	r3, [pc, #4]	; (10002068 <z_impl_z_current_get+0x8>)

#ifdef CONFIG_SMP
	arch_irq_unlock(k);
#endif
	return ret;
10002062:	6898      	ldr	r0, [r3, #8]
}
10002064:	4770      	bx	lr
10002066:	46c0      	nop			; (mov r8, r8)
10002068:	2000018c 	.word	0x2000018c

1000206c <z_thread_abort>:
#endif
	}
}

void z_thread_abort(struct k_thread *thread)
{
1000206c:	b570      	push	{r4, r5, r6, lr}
1000206e:	0004      	movs	r4, r0
10002070:	f3ef 8610 	mrs	r6, PRIMASK
10002074:	b672      	cpsid	i
	k_spinlock_key_t key = k_spin_lock(&sched_spinlock);

	if ((thread->base.user_options & K_ESSENTIAL) != 0) {
10002076:	7b03      	ldrb	r3, [r0, #12]
10002078:	07db      	lsls	r3, r3, #31
1000207a:	d508      	bpl.n	1000208e <z_thread_abort+0x22>
	if (key != 0U) {
1000207c:	2e00      	cmp	r6, #0
1000207e:	d102      	bne.n	10002086 <z_thread_abort+0x1a>
	__asm__ volatile(
10002080:	b662      	cpsie	i
10002082:	f3bf 8f6f 	isb	sy
		k_spin_unlock(&sched_spinlock, key);
		__ASSERT(false, "aborting essential thread %p", thread);
		k_panic();
10002086:	2004      	movs	r0, #4
10002088:	b662      	cpsie	i
1000208a:	df02      	svc	2
	if (thread == _current && !arch_is_in_isr()) {
		z_swap(&sched_spinlock, key);
		__ASSERT(false, "aborted _current back from dead");
	}
	k_spin_unlock(&sched_spinlock, key);
}
1000208c:	bd70      	pop	{r4, r5, r6, pc}
	if ((thread->base.thread_state & _THREAD_DEAD) != 0U) {
1000208e:	2308      	movs	r3, #8
10002090:	7b42      	ldrb	r2, [r0, #13]
10002092:	421a      	tst	r2, r3
10002094:	d005      	beq.n	100020a2 <z_thread_abort+0x36>
	if (key != 0U) {
10002096:	2e00      	cmp	r6, #0
10002098:	d1f8      	bne.n	1000208c <z_thread_abort+0x20>
	__asm__ volatile(
1000209a:	b662      	cpsie	i
1000209c:	f3bf 8f6f 	isb	sy
100020a0:	e7f4      	b.n	1000208c <z_thread_abort+0x20>
		thread->base.thread_state &= ~_THREAD_ABORTING;
100020a2:	2120      	movs	r1, #32
100020a4:	0010      	movs	r0, r2
100020a6:	4388      	bics	r0, r1
100020a8:	0001      	movs	r1, r0
100020aa:	4319      	orrs	r1, r3
		if (z_is_thread_queued(thread)) {
100020ac:	b248      	sxtb	r0, r1
100020ae:	2800      	cmp	r0, #0
100020b0:	db20      	blt.n	100020f4 <z_thread_abort+0x88>
		thread->base.thread_state &= ~_THREAD_ABORTING;
100020b2:	7361      	strb	r1, [r4, #13]
		if (thread->base.pended_on != NULL) {
100020b4:	68a3      	ldr	r3, [r4, #8]
100020b6:	2b00      	cmp	r3, #0
100020b8:	d002      	beq.n	100020c0 <z_thread_abort+0x54>
			unpend_thread_no_timeout(thread);
100020ba:	0020      	movs	r0, r4
100020bc:	f000 fd60 	bl	10002b80 <unpend_thread_no_timeout>
	return z_abort_timeout(&thread->base.timeout);
100020c0:	0020      	movs	r0, r4
100020c2:	3018      	adds	r0, #24
100020c4:	f000 fdad 	bl	10002c22 <z_abort_timeout>
}

static inline struct k_thread *z_waitq_head(_wait_q_t *w)
{
	return (struct k_thread *)sys_dlist_peek_head(&w->waitq);
100020c8:	0023      	movs	r3, r4
	return list->head == list;
100020ca:	6da5      	ldr	r5, [r4, #88]	; 0x58
100020cc:	3358      	adds	r3, #88	; 0x58
	return sys_dlist_is_empty(list) ? NULL : list->head;
100020ce:	429d      	cmp	r5, r3
100020d0:	d001      	beq.n	100020d6 <z_thread_abort+0x6a>
	while ((thread = z_waitq_head(wait_q)) != NULL) {
100020d2:	2d00      	cmp	r5, #0
100020d4:	d116      	bne.n	10002104 <z_thread_abort+0x98>
		update_cache(1);
100020d6:	2001      	movs	r0, #1
100020d8:	f7ff fdc6 	bl	10001c68 <update_cache>
	if (thread == _current && !arch_is_in_isr()) {
100020dc:	4b10      	ldr	r3, [pc, #64]	; (10002120 <z_thread_abort+0xb4>)
100020de:	689b      	ldr	r3, [r3, #8]
100020e0:	42a3      	cmp	r3, r4
100020e2:	d1d8      	bne.n	10002096 <z_thread_abort+0x2a>
100020e4:	f3ef 8305 	mrs	r3, IPSR
100020e8:	2b00      	cmp	r3, #0
100020ea:	d1d4      	bne.n	10002096 <z_thread_abort+0x2a>
100020ec:	0030      	movs	r0, r6
100020ee:	f7fe fe77 	bl	10000de0 <arch_swap>
	return ret;
100020f2:	e7d0      	b.n	10002096 <z_thread_abort+0x2a>
	thread->base.thread_state &= ~_THREAD_QUEUED;
100020f4:	215f      	movs	r1, #95	; 0x5f
100020f6:	400a      	ands	r2, r1
100020f8:	4313      	orrs	r3, r2
	sys_dlist_remove(&thread->base.qnode_dlist);
100020fa:	0020      	movs	r0, r4
	thread->base.thread_state &= ~_THREAD_QUEUED;
100020fc:	7363      	strb	r3, [r4, #13]
	sys_dlist_remove(&thread->base.qnode_dlist);
100020fe:	f000 fd37 	bl	10002b70 <sys_dlist_remove>
}
10002102:	e7d7      	b.n	100020b4 <z_thread_abort+0x48>
		unpend_thread_no_timeout(thread);
10002104:	0028      	movs	r0, r5
10002106:	f000 fd3b 	bl	10002b80 <unpend_thread_no_timeout>
1000210a:	0028      	movs	r0, r5
1000210c:	3018      	adds	r0, #24
1000210e:	f000 fd88 	bl	10002c22 <z_abort_timeout>
}

static ALWAYS_INLINE void
arch_thread_return_value_set(struct k_thread *thread, unsigned int value)
{
	thread->arch.swap_return_value = value;
10002112:	2300      	movs	r3, #0
		ready_thread(thread);
10002114:	0028      	movs	r0, r5
10002116:	66eb      	str	r3, [r5, #108]	; 0x6c
10002118:	f7ff fe04 	bl	10001d24 <ready_thread>
1000211c:	e7d4      	b.n	100020c8 <z_thread_abort+0x5c>
1000211e:	46c0      	nop			; (mov r8, r8)
10002120:	2000018c 	.word	0x2000018c

10002124 <z_data_copy>:
 * @brief Copy the data section from ROM to RAM
 *
 * This routine copies the data section from ROM to RAM.
 */
void z_data_copy(void)
{
10002124:	b510      	push	{r4, lr}
	z_early_memcpy(&__data_region_start, &__data_region_load_start,
		       __data_region_end - __data_region_start);
10002126:	4806      	ldr	r0, [pc, #24]	; (10002140 <z_data_copy+0x1c>)
10002128:	4a06      	ldr	r2, [pc, #24]	; (10002144 <z_data_copy+0x20>)
	z_early_memcpy(&__data_region_start, &__data_region_load_start,
1000212a:	4907      	ldr	r1, [pc, #28]	; (10002148 <z_data_copy+0x24>)
		       __data_region_end - __data_region_start);
1000212c:	1a12      	subs	r2, r2, r0
	z_early_memcpy(&__data_region_start, &__data_region_load_start,
1000212e:	f000 fd14 	bl	10002b5a <z_early_memcpy>
#ifdef CONFIG_ARCH_HAS_RAMFUNC_SUPPORT
	z_early_memcpy(&__ramfunc_start, &__ramfunc_load_start,
10002132:	4a06      	ldr	r2, [pc, #24]	; (1000214c <z_data_copy+0x28>)
10002134:	4906      	ldr	r1, [pc, #24]	; (10002150 <z_data_copy+0x2c>)
10002136:	4807      	ldr	r0, [pc, #28]	; (10002154 <z_data_copy+0x30>)
10002138:	f000 fd0f 	bl	10002b5a <z_early_memcpy>
#else
	z_early_memcpy(&_app_smem_start, &_app_smem_rom_start,
		       _app_smem_end - _app_smem_start);
#endif /* CONFIG_STACK_CANARIES */
#endif /* CONFIG_USERSPACE */
}
1000213c:	bd10      	pop	{r4, pc}
1000213e:	46c0      	nop			; (mov r8, r8)
10002140:	20000000 	.word	0x20000000
10002144:	2000002e 	.word	0x2000002e
10002148:	100030a0 	.word	0x100030a0
1000214c:	00000000 	.word	0x00000000
10002150:	100030a0 	.word	0x100030a0
10002154:	20000000 	.word	0x20000000

10002158 <elapsed>:
	sys_dlist_remove(&t->node);
}

static int32_t elapsed(void)
{
	return announce_remaining == 0 ? sys_clock_elapsed() : 0U;
10002158:	2000      	movs	r0, #0
{
1000215a:	b510      	push	{r4, lr}
	return announce_remaining == 0 ? sys_clock_elapsed() : 0U;
1000215c:	4b03      	ldr	r3, [pc, #12]	; (1000216c <elapsed+0x14>)
1000215e:	681b      	ldr	r3, [r3, #0]
10002160:	4283      	cmp	r3, r0
10002162:	d101      	bne.n	10002168 <elapsed+0x10>
10002164:	f7ff f940 	bl	100013e8 <sys_clock_elapsed>
}
10002168:	bd10      	pop	{r4, pc}
1000216a:	46c0      	nop			; (mov r8, r8)
1000216c:	200001b8 	.word	0x200001b8

10002170 <next_timeout>:

static int32_t next_timeout(void)
{
10002170:	b570      	push	{r4, r5, r6, lr}
	return list->head == list;
10002172:	4b0e      	ldr	r3, [pc, #56]	; (100021ac <next_timeout+0x3c>)
10002174:	681e      	ldr	r6, [r3, #0]
	return sys_dlist_is_empty(list) ? NULL : list->head;
10002176:	429e      	cmp	r6, r3
10002178:	d103      	bne.n	10002182 <next_timeout+0x12>
	struct _timeout *to = first();
	int32_t ticks_elapsed = elapsed();
1000217a:	f7ff ffed 	bl	10002158 <elapsed>
	int32_t ret;

	if ((to == NULL) ||
	    ((int64_t)(to->dticks - ticks_elapsed) > (int64_t)INT_MAX)) {
		ret = MAX_WAIT;
1000217e:	480c      	ldr	r0, [pc, #48]	; (100021b0 <next_timeout+0x40>)
	} else {
		ret = MAX(0, to->dticks - ticks_elapsed);
	}

	return ret;
}
10002180:	bd70      	pop	{r4, r5, r6, pc}
	int32_t ticks_elapsed = elapsed();
10002182:	f7ff ffe9 	bl	10002158 <elapsed>
	if ((to == NULL) ||
10002186:	2e00      	cmp	r6, #0
10002188:	d0f9      	beq.n	1000217e <next_timeout+0xe>
	    ((int64_t)(to->dticks - ticks_elapsed) > (int64_t)INT_MAX)) {
1000218a:	6932      	ldr	r2, [r6, #16]
1000218c:	6973      	ldr	r3, [r6, #20]
1000218e:	0004      	movs	r4, r0
10002190:	17c5      	asrs	r5, r0, #31
10002192:	1b12      	subs	r2, r2, r4
10002194:	41ab      	sbcs	r3, r5
	if ((to == NULL) ||
10002196:	2b00      	cmp	r3, #0
10002198:	dcf1      	bgt.n	1000217e <next_timeout+0xe>
1000219a:	d103      	bne.n	100021a4 <next_timeout+0x34>
1000219c:	2180      	movs	r1, #128	; 0x80
1000219e:	0609      	lsls	r1, r1, #24
100021a0:	428a      	cmp	r2, r1
100021a2:	d2ec      	bcs.n	1000217e <next_timeout+0xe>
		ret = MAX(0, to->dticks - ticks_elapsed);
100021a4:	43d8      	mvns	r0, r3
100021a6:	17c0      	asrs	r0, r0, #31
100021a8:	4010      	ands	r0, r2
	return ret;
100021aa:	e7e9      	b.n	10002180 <next_timeout+0x10>
100021ac:	20000020 	.word	0x20000020
100021b0:	7fffffff 	.word	0x7fffffff

100021b4 <remove_timeout>:
{
100021b4:	b530      	push	{r4, r5, lr}
	return (node != NULL) ? sys_dlist_peek_next_no_check(list, node) : NULL;
100021b6:	2800      	cmp	r0, #0
100021b8:	d00e      	beq.n	100021d8 <remove_timeout+0x24>
	return (node == list->tail) ? NULL : node->next;
100021ba:	4b0b      	ldr	r3, [pc, #44]	; (100021e8 <remove_timeout+0x34>)
100021bc:	685b      	ldr	r3, [r3, #4]
100021be:	4298      	cmp	r0, r3
100021c0:	d00a      	beq.n	100021d8 <remove_timeout+0x24>
100021c2:	6801      	ldr	r1, [r0, #0]
	if (next(t) != NULL) {
100021c4:	2900      	cmp	r1, #0
100021c6:	d007      	beq.n	100021d8 <remove_timeout+0x24>
		next(t)->dticks += t->dticks;
100021c8:	690a      	ldr	r2, [r1, #16]
100021ca:	694b      	ldr	r3, [r1, #20]
100021cc:	6904      	ldr	r4, [r0, #16]
100021ce:	6945      	ldr	r5, [r0, #20]
100021d0:	1912      	adds	r2, r2, r4
100021d2:	416b      	adcs	r3, r5
100021d4:	610a      	str	r2, [r1, #16]
100021d6:	614b      	str	r3, [r1, #20]
 */

static inline void sys_dlist_remove(sys_dnode_t *node)
{
	sys_dnode_t *const prev = node->prev;
	sys_dnode_t *const next = node->next;
100021d8:	6803      	ldr	r3, [r0, #0]
	sys_dnode_t *const prev = node->prev;
100021da:	6842      	ldr	r2, [r0, #4]

	prev->next = next;
100021dc:	6013      	str	r3, [r2, #0]
	next->prev = prev;
100021de:	605a      	str	r2, [r3, #4]
	node->next = NULL;
100021e0:	2300      	movs	r3, #0
100021e2:	6003      	str	r3, [r0, #0]
	node->prev = NULL;
100021e4:	6043      	str	r3, [r0, #4]
}
100021e6:	bd30      	pop	{r4, r5, pc}
100021e8:	20000020 	.word	0x20000020

100021ec <z_add_timeout>:

void z_add_timeout(struct _timeout *to, _timeout_func_t fn,
		   k_timeout_t timeout)
{
100021ec:	b5f7      	push	{r0, r1, r2, r4, r5, r6, r7, lr}
100021ee:	0004      	movs	r4, r0
100021f0:	0016      	movs	r6, r2
100021f2:	001f      	movs	r7, r3
	if (K_TIMEOUT_EQ(timeout, K_FOREVER)) {
100021f4:	1c53      	adds	r3, r2, #1
100021f6:	d101      	bne.n	100021fc <z_add_timeout+0x10>
100021f8:	1c7b      	adds	r3, r7, #1
100021fa:	d057      	beq.n	100022ac <z_add_timeout+0xc0>
#ifdef CONFIG_KERNEL_COHERENCE
	__ASSERT_NO_MSG(arch_mem_coherent(to));
#endif

	__ASSERT(!sys_dnode_is_linked(&to->node), "");
	to->fn = fn;
100021fc:	60a1      	str	r1, [r4, #8]
	__asm__ volatile("mrs %0, PRIMASK;"
100021fe:	f3ef 8310 	mrs	r3, PRIMASK
10002202:	b672      	cpsid	i
10002204:	9301      	str	r3, [sp, #4]

	LOCKED(&timeout_lock) {
		struct _timeout *t;

		if (IS_ENABLED(CONFIG_TIMEOUT_64BIT) &&
10002206:	2f00      	cmp	r7, #0
10002208:	da23      	bge.n	10002252 <z_add_timeout+0x66>
1000220a:	1c7b      	adds	r3, r7, #1
1000220c:	d101      	bne.n	10002212 <z_add_timeout+0x26>
1000220e:	1cb3      	adds	r3, r6, #2
10002210:	d81f      	bhi.n	10002252 <z_add_timeout+0x66>
		    Z_TICK_ABS(timeout.ticks) >= 0) {
			k_ticks_t ticks = Z_TICK_ABS(timeout.ticks) - curr_tick;
10002212:	4b2b      	ldr	r3, [pc, #172]	; (100022c0 <z_add_timeout+0xd4>)
10002214:	6818      	ldr	r0, [r3, #0]
10002216:	6859      	ldr	r1, [r3, #4]
10002218:	2202      	movs	r2, #2
1000221a:	4252      	negs	r2, r2
1000221c:	17d3      	asrs	r3, r2, #31
1000221e:	1a12      	subs	r2, r2, r0
10002220:	418b      	sbcs	r3, r1
10002222:	1b92      	subs	r2, r2, r6
10002224:	41bb      	sbcs	r3, r7

			to->dticks = MAX(1, ticks);
10002226:	2b00      	cmp	r3, #0
10002228:	dc04      	bgt.n	10002234 <z_add_timeout+0x48>
1000222a:	d101      	bne.n	10002230 <z_add_timeout+0x44>
1000222c:	2a00      	cmp	r2, #0
1000222e:	d101      	bne.n	10002234 <z_add_timeout+0x48>
10002230:	2201      	movs	r2, #1
10002232:	2300      	movs	r3, #0
	return list->head == list;
10002234:	4f23      	ldr	r7, [pc, #140]	; (100022c4 <z_add_timeout+0xd8>)
10002236:	6122      	str	r2, [r4, #16]
10002238:	6163      	str	r3, [r4, #20]
1000223a:	683d      	ldr	r5, [r7, #0]
	return sys_dlist_is_empty(list) ? NULL : list->head;
1000223c:	42bd      	cmp	r5, r7
1000223e:	d100      	bne.n	10002242 <z_add_timeout+0x56>
10002240:	2500      	movs	r5, #0
	return (node == list->tail) ? NULL : node->next;
10002242:	687e      	ldr	r6, [r7, #4]
		} else {
			to->dticks = timeout.ticks + 1 + elapsed();
		}

		for (t = first(); t != NULL; t = next(t)) {
10002244:	2d00      	cmp	r5, #0
10002246:	d10f      	bne.n	10002268 <z_add_timeout+0x7c>
	node->next = list;
10002248:	6027      	str	r7, [r4, #0]
	node->prev = tail;
1000224a:	6066      	str	r6, [r4, #4]
	tail->next = node;
1000224c:	6034      	str	r4, [r6, #0]
	list->tail = node;
1000224e:	607c      	str	r4, [r7, #4]
}
10002250:	e01c      	b.n	1000228c <z_add_timeout+0xa0>
			to->dticks = timeout.ticks + 1 + elapsed();
10002252:	f7ff ff81 	bl	10002158 <elapsed>
10002256:	2201      	movs	r2, #1
10002258:	2300      	movs	r3, #0
1000225a:	1992      	adds	r2, r2, r6
1000225c:	417b      	adcs	r3, r7
1000225e:	0006      	movs	r6, r0
10002260:	17c7      	asrs	r7, r0, #31
10002262:	1992      	adds	r2, r2, r6
10002264:	417b      	adcs	r3, r7
10002266:	e7e5      	b.n	10002234 <z_add_timeout+0x48>
			if (t->dticks > to->dticks) {
10002268:	6928      	ldr	r0, [r5, #16]
1000226a:	6969      	ldr	r1, [r5, #20]
1000226c:	6922      	ldr	r2, [r4, #16]
1000226e:	6963      	ldr	r3, [r4, #20]
10002270:	4299      	cmp	r1, r3
10002272:	dc02      	bgt.n	1000227a <z_add_timeout+0x8e>
10002274:	d11b      	bne.n	100022ae <z_add_timeout+0xc2>
10002276:	4290      	cmp	r0, r2
10002278:	d919      	bls.n	100022ae <z_add_timeout+0xc2>
				t->dticks -= to->dticks;
1000227a:	1a80      	subs	r0, r0, r2
1000227c:	4199      	sbcs	r1, r3
	sys_dnode_t *const prev = successor->prev;
1000227e:	686b      	ldr	r3, [r5, #4]
10002280:	6128      	str	r0, [r5, #16]
10002282:	6169      	str	r1, [r5, #20]
	node->prev = prev;
10002284:	6063      	str	r3, [r4, #4]
	node->next = successor;
10002286:	6025      	str	r5, [r4, #0]
	prev->next = node;
10002288:	601c      	str	r4, [r3, #0]
	successor->prev = node;
1000228a:	606c      	str	r4, [r5, #4]
	return list->head == list;
1000228c:	683b      	ldr	r3, [r7, #0]
	return sys_dlist_is_empty(list) ? NULL : list->head;
1000228e:	42bb      	cmp	r3, r7
10002290:	d006      	beq.n	100022a0 <z_add_timeout+0xb4>

		if (t == NULL) {
			sys_dlist_append(&timeout_list, &to->node);
		}

		if (to == first()) {
10002292:	429c      	cmp	r4, r3
10002294:	d104      	bne.n	100022a0 <z_add_timeout+0xb4>
			sys_clock_set_timeout(next_timeout(), false);
10002296:	f7ff ff6b 	bl	10002170 <next_timeout>
1000229a:	2100      	movs	r1, #0
1000229c:	f7ff f82c 	bl	100012f8 <sys_clock_set_timeout>
	if (key != 0U) {
100022a0:	9b01      	ldr	r3, [sp, #4]
100022a2:	2b00      	cmp	r3, #0
100022a4:	d102      	bne.n	100022ac <z_add_timeout+0xc0>
	__asm__ volatile(
100022a6:	b662      	cpsie	i
100022a8:	f3bf 8f6f 	isb	sy
		}
	}
}
100022ac:	bdf7      	pop	{r0, r1, r2, r4, r5, r6, r7, pc}
			to->dticks -= t->dticks;
100022ae:	1a12      	subs	r2, r2, r0
100022b0:	418b      	sbcs	r3, r1
100022b2:	6122      	str	r2, [r4, #16]
100022b4:	6163      	str	r3, [r4, #20]
	return (node == list->tail) ? NULL : node->next;
100022b6:	42b5      	cmp	r5, r6
100022b8:	d0c6      	beq.n	10002248 <z_add_timeout+0x5c>
100022ba:	682d      	ldr	r5, [r5, #0]
100022bc:	e7c2      	b.n	10002244 <z_add_timeout+0x58>
100022be:	46c0      	nop			; (mov r8, r8)
100022c0:	20000128 	.word	0x20000128
100022c4:	20000020 	.word	0x20000020

100022c8 <sys_clock_announce>:
	}
	return ret;
}

void sys_clock_announce(int32_t ticks)
{
100022c8:	b5f0      	push	{r4, r5, r6, r7, lr}
100022ca:	b085      	sub	sp, #20
	__asm__ volatile("mrs %0, PRIMASK;"
100022cc:	f3ef 8310 	mrs	r3, PRIMASK
100022d0:	b672      	cpsid	i

	/* Note that we need to use the underlying arch-specific lock
	 * implementation.  The "irq_lock()" API in SMP context is
	 * actually a wrapper for a global spinlock!
	 */
	k.key = arch_irq_lock();
100022d2:	9302      	str	r3, [sp, #8]
		announce_remaining += ticks;
		k_spin_unlock(&timeout_lock, key);
		return;
	}

	announce_remaining = ticks;
100022d4:	4b30      	ldr	r3, [pc, #192]	; (10002398 <sys_clock_announce+0xd0>)
100022d6:	6018      	str	r0, [r3, #0]
	return list->head == list;
100022d8:	4b30      	ldr	r3, [pc, #192]	; (1000239c <sys_clock_announce+0xd4>)
100022da:	681c      	ldr	r4, [r3, #0]
	return sys_dlist_is_empty(list) ? NULL : list->head;
100022dc:	429c      	cmp	r4, r3
100022de:	d100      	bne.n	100022e2 <sys_clock_announce+0x1a>
100022e0:	2400      	movs	r4, #0
	for (t = first();
	     (t != NULL) && (t->dticks <= announce_remaining);
	     t = first()) {
		int dt = t->dticks;

		curr_tick += dt;
100022e2:	4b2f      	ldr	r3, [pc, #188]	; (100023a0 <sys_clock_announce+0xd8>)
	     (t != NULL) && (t->dticks <= announce_remaining);
100022e4:	4d2c      	ldr	r5, [pc, #176]	; (10002398 <sys_clock_announce+0xd0>)
		curr_tick += dt;
100022e6:	9303      	str	r3, [sp, #12]
100022e8:	6818      	ldr	r0, [r3, #0]
100022ea:	6859      	ldr	r1, [r3, #4]
	     (t != NULL) && (t->dticks <= announce_remaining);
100022ec:	682b      	ldr	r3, [r5, #0]
100022ee:	469c      	mov	ip, r3
100022f0:	2c00      	cmp	r4, #0
100022f2:	d039      	beq.n	10002368 <sys_clock_announce+0xa0>
100022f4:	6962      	ldr	r2, [r4, #20]
100022f6:	6926      	ldr	r6, [r4, #16]
100022f8:	17db      	asrs	r3, r3, #31
100022fa:	429a      	cmp	r2, r3
100022fc:	dc02      	bgt.n	10002304 <sys_clock_announce+0x3c>
100022fe:	d10a      	bne.n	10002316 <sys_clock_announce+0x4e>
10002300:	4566      	cmp	r6, ip
10002302:	d908      	bls.n	10002316 <sys_clock_announce+0x4e>
		key = k_spin_lock(&timeout_lock);
		announce_remaining -= dt;
	}

	if (t != NULL) {
		t->dticks -= announce_remaining;
10002304:	001f      	movs	r7, r3
10002306:	6922      	ldr	r2, [r4, #16]
10002308:	6963      	ldr	r3, [r4, #20]
1000230a:	4666      	mov	r6, ip
1000230c:	1b92      	subs	r2, r2, r6
1000230e:	41bb      	sbcs	r3, r7
10002310:	6122      	str	r2, [r4, #16]
10002312:	6163      	str	r3, [r4, #20]
10002314:	e028      	b.n	10002368 <sys_clock_announce+0xa0>
		curr_tick += dt;
10002316:	17f3      	asrs	r3, r6, #31
10002318:	9600      	str	r6, [sp, #0]
1000231a:	9301      	str	r3, [sp, #4]
1000231c:	9a00      	ldr	r2, [sp, #0]
1000231e:	9b01      	ldr	r3, [sp, #4]
10002320:	1880      	adds	r0, r0, r2
10002322:	4159      	adcs	r1, r3
		t->dticks = 0;
10002324:	2300      	movs	r3, #0
10002326:	2200      	movs	r2, #0
		curr_tick += dt;
10002328:	4f1d      	ldr	r7, [pc, #116]	; (100023a0 <sys_clock_announce+0xd8>)
		t->dticks = 0;
1000232a:	6122      	str	r2, [r4, #16]
1000232c:	6163      	str	r3, [r4, #20]
		curr_tick += dt;
1000232e:	6038      	str	r0, [r7, #0]
10002330:	6079      	str	r1, [r7, #4]
		remove_timeout(t);
10002332:	0020      	movs	r0, r4
10002334:	f7ff ff3e 	bl	100021b4 <remove_timeout>
	if (key != 0U) {
10002338:	9b02      	ldr	r3, [sp, #8]
1000233a:	2b00      	cmp	r3, #0
1000233c:	d102      	bne.n	10002344 <sys_clock_announce+0x7c>
	__asm__ volatile(
1000233e:	b662      	cpsie	i
10002340:	f3bf 8f6f 	isb	sy
		t->fn(t);
10002344:	0020      	movs	r0, r4
10002346:	68a3      	ldr	r3, [r4, #8]
10002348:	4798      	blx	r3
	__asm__ volatile("mrs %0, PRIMASK;"
1000234a:	f3ef 8310 	mrs	r3, PRIMASK
1000234e:	b672      	cpsid	i
10002350:	9302      	str	r3, [sp, #8]
		announce_remaining -= dt;
10002352:	4b11      	ldr	r3, [pc, #68]	; (10002398 <sys_clock_announce+0xd0>)
10002354:	681a      	ldr	r2, [r3, #0]
10002356:	1b92      	subs	r2, r2, r6
10002358:	601a      	str	r2, [r3, #0]
	return list->head == list;
1000235a:	4b10      	ldr	r3, [pc, #64]	; (1000239c <sys_clock_announce+0xd4>)
1000235c:	4694      	mov	ip, r2
1000235e:	681c      	ldr	r4, [r3, #0]
	return sys_dlist_is_empty(list) ? NULL : list->head;
10002360:	429c      	cmp	r4, r3
10002362:	d1be      	bne.n	100022e2 <sys_clock_announce+0x1a>
		curr_tick += dt;
10002364:	6838      	ldr	r0, [r7, #0]
10002366:	6879      	ldr	r1, [r7, #4]
	}

	curr_tick += announce_remaining;
10002368:	4662      	mov	r2, ip
1000236a:	17d3      	asrs	r3, r2, #31
1000236c:	1812      	adds	r2, r2, r0
1000236e:	414b      	adcs	r3, r1
	announce_remaining = 0;
10002370:	2400      	movs	r4, #0
	curr_tick += announce_remaining;
10002372:	9903      	ldr	r1, [sp, #12]
	announce_remaining = 0;
10002374:	602c      	str	r4, [r5, #0]
	curr_tick += announce_remaining;
10002376:	600a      	str	r2, [r1, #0]
10002378:	604b      	str	r3, [r1, #4]

	sys_clock_set_timeout(next_timeout(), false);
1000237a:	f7ff fef9 	bl	10002170 <next_timeout>
1000237e:	0021      	movs	r1, r4
10002380:	f7fe ffba 	bl	100012f8 <sys_clock_set_timeout>
	if (key != 0U) {
10002384:	9b02      	ldr	r3, [sp, #8]
10002386:	42a3      	cmp	r3, r4
10002388:	d102      	bne.n	10002390 <sys_clock_announce+0xc8>
	__asm__ volatile(
1000238a:	b662      	cpsie	i
1000238c:	f3bf 8f6f 	isb	sy

	k_spin_unlock(&timeout_lock, key);

#ifdef CONFIG_TIMESLICING
	z_time_slice();
10002390:	f7ff fd14 	bl	10001dbc <z_time_slice>
#endif
}
10002394:	b005      	add	sp, #20
10002396:	bdf0      	pop	{r4, r5, r6, r7, pc}
10002398:	200001b8 	.word	0x200001b8
1000239c:	20000020 	.word	0x20000020
100023a0:	20000128 	.word	0x20000128

100023a4 <sys_clock_tick_get>:

int64_t sys_clock_tick_get(void)
{
100023a4:	b510      	push	{r4, lr}
	__asm__ volatile("mrs %0, PRIMASK;"
100023a6:	f3ef 8410 	mrs	r4, PRIMASK
100023aa:	b672      	cpsid	i
	uint64_t t = 0U;

	LOCKED(&timeout_lock) {
		t = curr_tick + elapsed();
100023ac:	f7ff fed4 	bl	10002158 <elapsed>
100023b0:	0002      	movs	r2, r0
100023b2:	4906      	ldr	r1, [pc, #24]	; (100023cc <sys_clock_tick_get+0x28>)
100023b4:	17c3      	asrs	r3, r0, #31
100023b6:	6808      	ldr	r0, [r1, #0]
100023b8:	6849      	ldr	r1, [r1, #4]
100023ba:	1880      	adds	r0, r0, r2
100023bc:	4159      	adcs	r1, r3
	if (key != 0U) {
100023be:	2c00      	cmp	r4, #0
100023c0:	d102      	bne.n	100023c8 <sys_clock_tick_get+0x24>
	__asm__ volatile(
100023c2:	b662      	cpsie	i
100023c4:	f3bf 8f6f 	isb	sy
	}
	return t;
}
100023c8:	bd10      	pop	{r4, pc}
100023ca:	46c0      	nop			; (mov r8, r8)
100023cc:	20000128 	.word	0x20000128

100023d0 <boot_banner>:
#else
#define BANNER_VERSION KERNEL_VERSION_STRING
#endif

void boot_banner(void)
{
100023d0:	b510      	push	{r4, lr}
	printk("***** delaying boot " DELAY_STR "ms (per build configuration) *****\n");
	k_busy_wait(CONFIG_BOOT_DELAY * USEC_PER_MSEC);
#endif /* defined(CONFIG_BOOT_DELAY) && (CONFIG_BOOT_DELAY > 0) */

#if CONFIG_BOOT_BANNER
	printk("*** Booting Zephyr OS build " BANNER_VERSION BANNER_POSTFIX " ***\n");
100023d2:	4802      	ldr	r0, [pc, #8]	; (100023dc <boot_banner+0xc>)
100023d4:	f000 f820 	bl	10002418 <printk>
#endif /* CONFIG_BOOT_BANNER */
}
100023d8:	bd10      	pop	{r4, pc}
100023da:	46c0      	nop			; (mov r8, r8)
100023dc:	1000305d 	.word	0x1000305d

100023e0 <_OffsetAbsSyms>:

#include <gen_offset.h>

#include "offsets_aarch32.c"

GEN_ABS_SYM_END
100023e0:	4770      	bx	lr

100023e2 <gpio_pin_configure_dt>:
{
100023e2:	b5f8      	push	{r3, r4, r5, r6, r7, lr}
100023e4:	0003      	movs	r3, r0
100023e6:	000c      	movs	r4, r1
				  spec->dt_flags | extra_flags);
100023e8:	88da      	ldrh	r2, [r3, #6]
	return gpio_pin_configure(spec->port,
100023ea:	6800      	ldr	r0, [r0, #0]
				  spec->pin,
100023ec:	7919      	ldrb	r1, [r3, #4]
	return gpio_pin_configure(spec->port,
100023ee:	4322      	orrs	r2, r4
		data->invert |= (gpio_port_pins_t)BIT(pin);
100023f0:	2701      	movs	r7, #1
100023f2:	003e      	movs	r6, r7
	const struct gpio_driver_api *api =
100023f4:	6883      	ldr	r3, [r0, #8]
		data->invert |= (gpio_port_pins_t)BIT(pin);
100023f6:	408e      	lsls	r6, r1
	const struct gpio_driver_api *api =
100023f8:	469c      	mov	ip, r3
	struct gpio_driver_data *data =
100023fa:	6903      	ldr	r3, [r0, #16]
	if ((flags & GPIO_ACTIVE_LOW) != 0) {
100023fc:	681d      	ldr	r5, [r3, #0]
		data->invert &= ~(gpio_port_pins_t)BIT(pin);
100023fe:	002c      	movs	r4, r5
10002400:	43b4      	bics	r4, r6
	if ((flags & GPIO_ACTIVE_LOW) != 0) {
10002402:	423a      	tst	r2, r7
10002404:	d001      	beq.n	1000240a <gpio_pin_configure_dt+0x28>
		data->invert |= (gpio_port_pins_t)BIT(pin);
10002406:	0034      	movs	r4, r6
10002408:	432c      	orrs	r4, r5
1000240a:	601c      	str	r4, [r3, #0]
	return api->pin_configure(port, pin, flags);
1000240c:	4663      	mov	r3, ip
1000240e:	681b      	ldr	r3, [r3, #0]
10002410:	4798      	blx	r3
}
10002412:	bdf8      	pop	{r3, r4, r5, r6, r7, pc}

10002414 <arch_printk_char_out>:
}
10002414:	2000      	movs	r0, #0
10002416:	4770      	bx	lr

10002418 <printk>:
 *
 * @param fmt formatted string to output
 */

void printk(const char *fmt, ...)
{
10002418:	b40f      	push	{r0, r1, r2, r3}
1000241a:	b507      	push	{r0, r1, r2, lr}
1000241c:	a904      	add	r1, sp, #16
1000241e:	c901      	ldmia	r1!, {r0}
	va_list ap;

	va_start(ap, fmt);
10002420:	9101      	str	r1, [sp, #4]

	vprintk(fmt, ap);
10002422:	f7fe f8e1 	bl	100005e8 <vprintk>

	va_end(ap);
}
10002426:	b003      	add	sp, #12
10002428:	bc08      	pop	{r3}
1000242a:	b004      	add	sp, #16
1000242c:	4718      	bx	r3

1000242e <z_thread_entry>:
 * This routine does not return, and is marked as such so the compiler won't
 * generate preamble code that is only used by functions that actually return.
 */
FUNC_NORETURN void z_thread_entry(k_thread_entry_t entry,
				 void *p1, void *p2, void *p3)
{
1000242e:	b510      	push	{r4, lr}
10002430:	0004      	movs	r4, r0
10002432:	0008      	movs	r0, r1
10002434:	0011      	movs	r1, r2
10002436:	001a      	movs	r2, r3
#ifdef CONFIG_THREAD_LOCAL_STORAGE
	z_tls_current = z_current_get();
#endif
	entry(p1, p2, p3);
10002438:	47a0      	blx	r4
	return z_impl_z_current_get();
1000243a:	f7ff fe11 	bl	10002060 <z_impl_z_current_get>
	z_impl_k_thread_abort(thread);
1000243e:	f7fe fde7 	bl	10001010 <z_impl_k_thread_abort>

10002442 <encode_uint>:
{
10002442:	b5f0      	push	{r4, r5, r6, r7, lr}
10002444:	b085      	sub	sp, #20
10002446:	9001      	str	r0, [sp, #4]
10002448:	9303      	str	r3, [sp, #12]
	bool upcase = isupper((int)conv->specifier) != 0;
1000244a:	78d3      	ldrb	r3, [r2, #3]
{
1000244c:	0015      	movs	r5, r2
	return (int)(((unsigned)(a)-(unsigned)'A') < 26U);
1000244e:	001a      	movs	r2, r3
10002450:	3a41      	subs	r2, #65	; 0x41
10002452:	000f      	movs	r7, r1
	switch (specifier) {
10002454:	2408      	movs	r4, #8
10002456:	9202      	str	r2, [sp, #8]
10002458:	2b6f      	cmp	r3, #111	; 0x6f
1000245a:	d00a      	beq.n	10002472 <encode_uint+0x30>
1000245c:	d804      	bhi.n	10002468 <encode_uint+0x26>
		return 16;
1000245e:	1924      	adds	r4, r4, r4
	switch (specifier) {
10002460:	2b58      	cmp	r3, #88	; 0x58
10002462:	d006      	beq.n	10002472 <encode_uint+0x30>
		return 10;
10002464:	3c06      	subs	r4, #6
10002466:	e004      	b.n	10002472 <encode_uint+0x30>
	switch (specifier) {
10002468:	2208      	movs	r2, #8
		return 16;
1000246a:	2410      	movs	r4, #16
	switch (specifier) {
1000246c:	4393      	bics	r3, r2
1000246e:	2b70      	cmp	r3, #112	; 0x70
10002470:	d1f8      	bne.n	10002464 <encode_uint+0x22>
	char *bp = bps + (bpe - bps);
10002472:	9e0a      	ldr	r6, [sp, #40]	; 0x28
		unsigned int lsv = (unsigned int)(value % radix);
10002474:	0022      	movs	r2, r4
10002476:	2300      	movs	r3, #0
10002478:	0039      	movs	r1, r7
1000247a:	9801      	ldr	r0, [sp, #4]
1000247c:	f7fd ff0e 	bl	1000029c <__aeabi_uldivmod>
		*--bp = (lsv <= 9) ? ('0' + lsv)
10002480:	0013      	movs	r3, r2
10002482:	468c      	mov	ip, r1
10002484:	b2d2      	uxtb	r2, r2
10002486:	2b09      	cmp	r3, #9
10002488:	d81a      	bhi.n	100024c0 <encode_uint+0x7e>
1000248a:	3230      	adds	r2, #48	; 0x30
1000248c:	b2d3      	uxtb	r3, r2
1000248e:	3e01      	subs	r6, #1
10002490:	7033      	strb	r3, [r6, #0]
	} while ((value != 0) && (bps < bp));
10002492:	2300      	movs	r3, #0
10002494:	42bb      	cmp	r3, r7
10002496:	d102      	bne.n	1000249e <encode_uint+0x5c>
10002498:	9b01      	ldr	r3, [sp, #4]
1000249a:	429c      	cmp	r4, r3
1000249c:	d802      	bhi.n	100024a4 <encode_uint+0x62>
1000249e:	9b03      	ldr	r3, [sp, #12]
100024a0:	429e      	cmp	r6, r3
100024a2:	d80a      	bhi.n	100024ba <encode_uint+0x78>
	if (conv->flag_hash) {
100024a4:	782b      	ldrb	r3, [r5, #0]
100024a6:	069b      	lsls	r3, r3, #26
100024a8:	d504      	bpl.n	100024b4 <encode_uint+0x72>
		if (radix == 8) {
100024aa:	2c08      	cmp	r4, #8
100024ac:	d110      	bne.n	100024d0 <encode_uint+0x8e>
			conv->altform_0 = true;
100024ae:	78ab      	ldrb	r3, [r5, #2]
100024b0:	4323      	orrs	r3, r4
100024b2:	70ab      	strb	r3, [r5, #2]
}
100024b4:	0030      	movs	r0, r6
100024b6:	b005      	add	sp, #20
100024b8:	bdf0      	pop	{r4, r5, r6, r7, pc}
		value /= radix;
100024ba:	4667      	mov	r7, ip
100024bc:	9001      	str	r0, [sp, #4]
100024be:	e7d9      	b.n	10002474 <encode_uint+0x32>
		*--bp = (lsv <= 9) ? ('0' + lsv)
100024c0:	0013      	movs	r3, r2
100024c2:	9902      	ldr	r1, [sp, #8]
100024c4:	3357      	adds	r3, #87	; 0x57
100024c6:	b2db      	uxtb	r3, r3
100024c8:	2919      	cmp	r1, #25
100024ca:	d8e0      	bhi.n	1000248e <encode_uint+0x4c>
100024cc:	3237      	adds	r2, #55	; 0x37
100024ce:	e7dd      	b.n	1000248c <encode_uint+0x4a>
		} else if (radix == 16) {
100024d0:	2c10      	cmp	r4, #16
100024d2:	d1ef      	bne.n	100024b4 <encode_uint+0x72>
			conv->altform_0c = true;
100024d4:	78ab      	ldrb	r3, [r5, #2]
100024d6:	431c      	orrs	r4, r3
100024d8:	70ac      	strb	r4, [r5, #2]
	return bp;
100024da:	e7eb      	b.n	100024b4 <encode_uint+0x72>

100024dc <outs>:
{
100024dc:	b5f7      	push	{r0, r1, r2, r4, r5, r6, r7, lr}
100024de:	0007      	movs	r7, r0
100024e0:	0015      	movs	r5, r2
100024e2:	001e      	movs	r6, r3
	while ((sp < ep) || ((ep == NULL) && *sp)) {
100024e4:	0014      	movs	r4, r2
{
100024e6:	9101      	str	r1, [sp, #4]
	while ((sp < ep) || ((ep == NULL) && *sp)) {
100024e8:	42a6      	cmp	r6, r4
100024ea:	d806      	bhi.n	100024fa <outs+0x1e>
100024ec:	2e00      	cmp	r6, #0
100024ee:	d001      	beq.n	100024f4 <outs+0x18>
	return (int)count;
100024f0:	1b60      	subs	r0, r4, r5
100024f2:	e008      	b.n	10002506 <outs+0x2a>
	while ((sp < ep) || ((ep == NULL) && *sp)) {
100024f4:	7823      	ldrb	r3, [r4, #0]
100024f6:	2b00      	cmp	r3, #0
100024f8:	d0fa      	beq.n	100024f0 <outs+0x14>
		int rc = out((int)*sp++, ctx);
100024fa:	7820      	ldrb	r0, [r4, #0]
100024fc:	9901      	ldr	r1, [sp, #4]
100024fe:	47b8      	blx	r7
		if (rc < 0) {
10002500:	3401      	adds	r4, #1
10002502:	2800      	cmp	r0, #0
10002504:	daf0      	bge.n	100024e8 <outs+0xc>
}
10002506:	bdfe      	pop	{r1, r2, r3, r4, r5, r6, r7, pc}

10002508 <_ConfigAbsSyms>:
GEN_ABSOLUTE_SYM_KCONFIG(CONFIG_BUILD_OUTPUT_STRIP_PATHS, 1);
GEN_ABSOLUTE_SYM_KCONFIG(CONFIG_WARN_DEPRECATED, 1);
GEN_ABSOLUTE_SYM_KCONFIG(CONFIG_ENFORCE_ZEPHYR_STDINT, 1);
GEN_ABSOLUTE_SYM_KCONFIG(CONFIG_COMPAT_INCLUDES, 1);

GEN_ABS_SYM_END
10002508:	4770      	bx	lr

1000250a <z_arm_fatal_error>:
	LOG_ERR("Faulting instruction address (r15/pc): 0x%08x",
		esf->basic.pc);
}

void z_arm_fatal_error(unsigned int reason, const z_arch_esf_t *esf)
{
1000250a:	b510      	push	{r4, lr}

	if (esf != NULL) {
		esf_dump(esf);
	}
	z_fatal_error(reason, esf);
1000250c:	f000 fb0b 	bl	10002b26 <z_fatal_error>
}
10002510:	bd10      	pop	{r4, pc}

10002512 <z_do_kernel_oops>:
 *
 * @param esf exception frame
 * @param callee_regs Callee-saved registers (R4-R11)
 */
void z_do_kernel_oops(const z_arch_esf_t *esf, _callee_saved_t *callee_regs)
{
10002512:	b510      	push	{r4, lr}
10002514:	0001      	movs	r1, r0
	z_fatal_error(reason, esf);
10002516:	6800      	ldr	r0, [r0, #0]
10002518:	f000 fb05 	bl	10002b26 <z_fatal_error>
	esf_copy.extra_info = (struct __extra_esf_info) { 0 };
#endif /* CONFIG_ARMV7_M_ARMV8_M_MAINLINE */

	z_arm_fatal_error(reason, &esf_copy);
#endif /* CONFIG_EXTRA_EXCEPTION_INFO */
}
1000251c:	bd10      	pop	{r4, pc}

1000251e <z_irq_spurious>:
 * Installed in all _sw_isr_table slots at boot time. Throws an error if
 * called.
 *
 */
void z_irq_spurious(const void *unused)
{
1000251e:	b510      	push	{r4, lr}
	ARG_UNUSED(unused);

	z_arm_fatal_error(K_ERR_SPURIOUS_IRQ, NULL);
10002520:	2100      	movs	r1, #0
10002522:	2001      	movs	r0, #1
10002524:	f7ff fff1 	bl	1000250a <z_arm_fatal_error>
}
10002528:	bd10      	pop	{r4, pc}

1000252a <z_arm_nmi>:
 * Simply call what is installed in 'static void(*handler)(void)'.
 *
 */

void z_arm_nmi(void)
{
1000252a:	b510      	push	{r4, lr}
	handler();
1000252c:	f7fe fc40 	bl	10000db0 <z_SysNmiOnReset>
	z_arm_int_exit();
10002530:	f7fe fcea 	bl	10000f08 <z_arm_exc_exit>
}
10002534:	bd10      	pop	{r4, pc}

10002536 <z_arm_fault_init>:
	SCB->CCR |= SCB_CCR_STKOFHFNMIGN_Msk;
#endif /* CONFIG_BUILTIN_STACK_GUARD */
#ifdef CONFIG_TRAP_UNALIGNED_ACCESS
	SCB->CCR |= SCB_CCR_UNALIGN_TRP_Msk;
#endif /* CONFIG_TRAP_UNALIGNED_ACCESS */
}
10002536:	4770      	bx	lr

10002538 <strlen>:
 *
 * @return number of bytes in string <s>
 */

size_t strlen(const char *s)
{
10002538:	0003      	movs	r3, r0
	size_t n = 0;
1000253a:	2000      	movs	r0, #0

	while (*s != '\0') {
1000253c:	5c1a      	ldrb	r2, [r3, r0]
1000253e:	2a00      	cmp	r2, #0
10002540:	d100      	bne.n	10002544 <strlen+0xc>
		s++;
		n++;
	}

	return n;
}
10002542:	4770      	bx	lr
		n++;
10002544:	3001      	adds	r0, #1
10002546:	e7f9      	b.n	1000253c <strlen+0x4>

10002548 <strnlen>:
 *
 * @return number of bytes in fixed-size string <s>
 */

size_t strnlen(const char *s, size_t maxlen)
{
10002548:	0003      	movs	r3, r0
	size_t n = 0;
1000254a:	2000      	movs	r0, #0

	while (*s != '\0' && n < maxlen) {
1000254c:	5c1a      	ldrb	r2, [r3, r0]
1000254e:	2a00      	cmp	r2, #0
10002550:	d001      	beq.n	10002556 <strnlen+0xe>
10002552:	4288      	cmp	r0, r1
10002554:	d100      	bne.n	10002558 <strnlen+0x10>
		s++;
		n++;
	}

	return n;
}
10002556:	4770      	bx	lr
		n++;
10002558:	3001      	adds	r0, #1
1000255a:	e7f7      	b.n	1000254c <strnlen+0x4>

1000255c <memcpy>:
	}
#endif

	/* do byte-sized copying until finished */

	while (n > 0) {
1000255c:	2300      	movs	r3, #0
{
1000255e:	b510      	push	{r4, lr}
	while (n > 0) {
10002560:	429a      	cmp	r2, r3
10002562:	d100      	bne.n	10002566 <memcpy+0xa>
		*(d_byte++) = *(s_byte++);
		n--;
	}

	return d;
}
10002564:	bd10      	pop	{r4, pc}
		*(d_byte++) = *(s_byte++);
10002566:	5ccc      	ldrb	r4, [r1, r3]
10002568:	54c4      	strb	r4, [r0, r3]
		n--;
1000256a:	3301      	adds	r3, #1
1000256c:	e7f8      	b.n	10002560 <memcpy+0x4>

1000256e <memset>:
void *memset(void *buf, int c, size_t n)
{
	/* do byte-sized initialization until word-aligned or finished */

	unsigned char *d_byte = (unsigned char *)buf;
	unsigned char c_byte = (unsigned char)c;
1000256e:	0003      	movs	r3, r0
10002570:	b2c9      	uxtb	r1, r1
	/* do byte-sized initialization until finished */

	d_byte = (unsigned char *)d_word;
#endif

	while (n > 0) {
10002572:	1882      	adds	r2, r0, r2
10002574:	4293      	cmp	r3, r2
10002576:	d100      	bne.n	1000257a <memset+0xc>
		*(d_byte++) = c_byte;
		n--;
	}

	return buf;
}
10002578:	4770      	bx	lr
		*(d_byte++) = c_byte;
1000257a:	7019      	strb	r1, [r3, #0]
		n--;
1000257c:	3301      	adds	r3, #1
1000257e:	e7f9      	b.n	10002574 <memset+0x6>

10002580 <_stdout_hook_default>:
	return EOF;
10002580:	2001      	movs	r0, #1
}
10002582:	4240      	negs	r0, r0
10002584:	4770      	bx	lr

10002586 <gpio_rpi_port_get_raw>:
 *  \ingroup hardware_gpio
 *
 * \return Bitmask of raw GPIO values, as bits 0-29
 */
static inline uint32_t gpio_get_all(void) {
    return sio_hw->gpio_in;
10002586:	23d0      	movs	r3, #208	; 0xd0
10002588:	061b      	lsls	r3, r3, #24
1000258a:	685b      	ldr	r3, [r3, #4]
}
1000258c:	2000      	movs	r0, #0
	*value = gpio_get_all();
1000258e:	600b      	str	r3, [r1, #0]
}
10002590:	4770      	bx	lr

10002592 <gpio_rpi_port_set_bits_raw>:
{
10002592:	000a      	movs	r2, r1
10002594:	b510      	push	{r4, lr}
	struct gpio_rpi_data *data = port->data;
10002596:	6903      	ldr	r3, [r0, #16]
	gpio_set_mask(pins & ~data->single_ended_mask);
10002598:	0010      	movs	r0, r2
1000259a:	6919      	ldr	r1, [r3, #16]
1000259c:	4388      	bics	r0, r1
1000259e:	0001      	movs	r1, r0
 *  \ingroup hardware_gpio
 *
 * \param mask Bitmask of GPIO values to set, as bits 0-29
 */
static inline void gpio_set_mask(uint32_t mask) {
    sio_hw->gpio_set = mask;
100025a0:	20d0      	movs	r0, #208	; 0xd0
100025a2:	0600      	lsls	r0, r0, #24
100025a4:	6141      	str	r1, [r0, #20]
	gpio_set_dir_in_masked(pins & data->single_ended_mask & data->open_drain_mask);
100025a6:	691c      	ldr	r4, [r3, #16]
100025a8:	6959      	ldr	r1, [r3, #20]
100025aa:	4021      	ands	r1, r4
100025ac:	4011      	ands	r1, r2
 *  \ingroup hardware_gpio
 *
 * \param mask Bitmask of GPIO to set to input, as bits 0-29
 */
static inline void gpio_set_dir_in_masked(uint32_t mask) {
    sio_hw->gpio_oe_clr = mask;
100025ae:	6281      	str	r1, [r0, #40]	; 0x28
	gpio_set_dir_out_masked(pins & data->single_ended_mask & ~data->open_drain_mask);
100025b0:	6919      	ldr	r1, [r3, #16]
100025b2:	695b      	ldr	r3, [r3, #20]
100025b4:	4011      	ands	r1, r2
100025b6:	4399      	bics	r1, r3
    sio_hw->gpio_oe_set = mask;
100025b8:	6241      	str	r1, [r0, #36]	; 0x24
}
100025ba:	2000      	movs	r0, #0
100025bc:	bd10      	pop	{r4, pc}

100025be <gpio_rpi_port_clear_bits_raw>:
{
100025be:	000a      	movs	r2, r1
100025c0:	b510      	push	{r4, lr}
	struct gpio_rpi_data *data = port->data;
100025c2:	6903      	ldr	r3, [r0, #16]
	gpio_clr_mask(pins & ~data->single_ended_mask);
100025c4:	0010      	movs	r0, r2
100025c6:	6919      	ldr	r1, [r3, #16]
100025c8:	4388      	bics	r0, r1
100025ca:	0001      	movs	r1, r0
    sio_hw->gpio_clr = mask;
100025cc:	20d0      	movs	r0, #208	; 0xd0
100025ce:	0600      	lsls	r0, r0, #24
100025d0:	6181      	str	r1, [r0, #24]
	gpio_set_dir_out_masked(pins & data->single_ended_mask & data->open_drain_mask);
100025d2:	691c      	ldr	r4, [r3, #16]
100025d4:	6959      	ldr	r1, [r3, #20]
100025d6:	4021      	ands	r1, r4
100025d8:	4011      	ands	r1, r2
    sio_hw->gpio_oe_set = mask;
100025da:	6241      	str	r1, [r0, #36]	; 0x24
	gpio_set_dir_in_masked(pins & data->single_ended_mask & ~data->open_drain_mask);
100025dc:	6919      	ldr	r1, [r3, #16]
100025de:	695b      	ldr	r3, [r3, #20]
100025e0:	4011      	ands	r1, r2
100025e2:	4399      	bics	r1, r3
    sio_hw->gpio_oe_clr = mask;
100025e4:	6281      	str	r1, [r0, #40]	; 0x28
}
100025e6:	2000      	movs	r0, #0
100025e8:	bd10      	pop	{r4, pc}

100025ea <gpio_rpi_port_toggle_bits>:
	struct gpio_rpi_data *data = port->data;
100025ea:	6903      	ldr	r3, [r0, #16]
	gpio_xor_mask(pins & ~data->single_ended_mask);
100025ec:	0008      	movs	r0, r1
100025ee:	691a      	ldr	r2, [r3, #16]
100025f0:	4390      	bics	r0, r2
    sio_hw->gpio_togl = mask;
100025f2:	22d0      	movs	r2, #208	; 0xd0
100025f4:	0612      	lsls	r2, r2, #24
100025f6:	61d0      	str	r0, [r2, #28]
	sio_hw->gpio_oe_togl = (pins & data->single_ended_mask);
100025f8:	691b      	ldr	r3, [r3, #16]
}
100025fa:	2000      	movs	r0, #0
	sio_hw->gpio_oe_togl = (pins & data->single_ended_mask);
100025fc:	400b      	ands	r3, r1
100025fe:	62d3      	str	r3, [r2, #44]	; 0x2c
}
10002600:	4770      	bx	lr

10002602 <gpio_rpi_manage_callback>:
{
10002602:	b510      	push	{r4, lr}
	struct gpio_rpi_data *data = dev->data;
10002604:	6903      	ldr	r3, [r0, #16]
 *
 * @return A pointer on the first node of the list (or NULL if none)
 */
static inline sys_snode_t *sys_slist_peek_head(sys_slist_t *list)
{
	return list->head;
10002606:	6858      	ldr	r0, [r3, #4]
	if (!sys_slist_is_empty(callbacks)) {
10002608:	2800      	cmp	r0, #0
1000260a:	d021      	beq.n	10002650 <gpio_rpi_manage_callback+0x4e>
 */
static inline bool sys_slist_find_and_remove(sys_slist_t *list,
					     sys_snode_t *node);

/** @} */
Z_GENLIST_FIND_AND_REMOVE(slist, snode)
1000260c:	4288      	cmp	r0, r1
1000260e:	d11b      	bne.n	10002648 <gpio_rpi_manage_callback+0x46>
	return node->next;
10002610:	6808      	ldr	r0, [r1, #0]
Z_GENLIST_REMOVE(slist, snode)
10002612:	689c      	ldr	r4, [r3, #8]
	list->head = node;
10002614:	6058      	str	r0, [r3, #4]
Z_GENLIST_REMOVE(slist, snode)
10002616:	42a1      	cmp	r1, r4
10002618:	d100      	bne.n	1000261c <gpio_rpi_manage_callback+0x1a>
	list->tail = node;
1000261a:	6098      	str	r0, [r3, #8]
	parent->next = child;
1000261c:	2000      	movs	r0, #0
1000261e:	6008      	str	r0, [r1, #0]
	if (set) {
10002620:	4282      	cmp	r2, r0
10002622:	d006      	beq.n	10002632 <gpio_rpi_manage_callback+0x30>
	return list->head;
10002624:	685a      	ldr	r2, [r3, #4]
	parent->next = child;
10002626:	600a      	str	r2, [r1, #0]
Z_GENLIST_PREPEND(slist, snode)
10002628:	689a      	ldr	r2, [r3, #8]
	list->head = node;
1000262a:	6059      	str	r1, [r3, #4]
Z_GENLIST_PREPEND(slist, snode)
1000262c:	2a00      	cmp	r2, #0
1000262e:	d100      	bne.n	10002632 <gpio_rpi_manage_callback+0x30>
	list->tail = node;
10002630:	6099      	str	r1, [r3, #8]
	return 0;
10002632:	2000      	movs	r0, #0
	return gpio_manage_callback(&data->callbacks, callback, set);
10002634:	e010      	b.n	10002658 <gpio_rpi_manage_callback+0x56>
Z_GENLIST_FIND_AND_REMOVE(slist, snode)
10002636:	4281      	cmp	r1, r0
10002638:	d106      	bne.n	10002648 <gpio_rpi_manage_callback+0x46>
	return node->next;
1000263a:	6808      	ldr	r0, [r1, #0]
	parent->next = child;
1000263c:	6020      	str	r0, [r4, #0]
Z_GENLIST_REMOVE(slist, snode)
1000263e:	6898      	ldr	r0, [r3, #8]
10002640:	4281      	cmp	r1, r0
10002642:	d1eb      	bne.n	1000261c <gpio_rpi_manage_callback+0x1a>
	list->tail = node;
10002644:	609c      	str	r4, [r3, #8]
}
10002646:	e7e9      	b.n	1000261c <gpio_rpi_manage_callback+0x1a>
	return node->next;
10002648:	0004      	movs	r4, r0
1000264a:	6800      	ldr	r0, [r0, #0]
Z_GENLIST_FIND_AND_REMOVE(slist, snode)
1000264c:	2800      	cmp	r0, #0
1000264e:	d1f2      	bne.n	10002636 <gpio_rpi_manage_callback+0x34>
			if (!set) {
10002650:	2a00      	cmp	r2, #0
10002652:	d1e7      	bne.n	10002624 <gpio_rpi_manage_callback+0x22>
				return -EINVAL;
10002654:	2016      	movs	r0, #22
10002656:	4240      	negs	r0, r0
}
10002658:	bd10      	pop	{r4, pc}

1000265a <gpio_rpi_bank_init>:

static int gpio_rpi_bank_init(const struct device *dev)
{
1000265a:	b510      	push	{r4, lr}
	const struct gpio_rpi_config *config = dev->config;

	config->bank_config_func();
1000265c:	6843      	ldr	r3, [r0, #4]
1000265e:	685b      	ldr	r3, [r3, #4]
10002660:	4798      	blx	r3
	return 0;
}
10002662:	2000      	movs	r0, #0
10002664:	bd10      	pop	{r4, pc}

10002666 <gpio_rpi_pin_interrupt_configure>:
{
10002666:	b5f7      	push	{r0, r1, r2, r4, r5, r6, r7, lr}
10002668:	000d      	movs	r5, r1
	struct gpio_rpi_data *data = dev->data;
1000266a:	6907      	ldr	r7, [r0, #16]
{
1000266c:	0016      	movs	r6, r2
	gpio_set_irq_enabled(pin, ALL_EVENTS, false);
1000266e:	210f      	movs	r1, #15
10002670:	2200      	movs	r2, #0
10002672:	0028      	movs	r0, r5
{
10002674:	001c      	movs	r4, r3
	gpio_set_irq_enabled(pin, ALL_EVENTS, false);
10002676:	f7ff f8ab 	bl	100017d0 <gpio_set_irq_enabled>
	WRITE_BIT(data->int_enabled_mask, pin, mode != GPIO_INT_DISABLE);
1000267a:	2201      	movs	r2, #1
1000267c:	0013      	movs	r3, r2
1000267e:	40ab      	lsls	r3, r5
10002680:	9301      	str	r3, [sp, #4]
	if (mode != GPIO_INT_DISABLE) {
10002682:	2380      	movs	r3, #128	; 0x80
10002684:	039b      	lsls	r3, r3, #14
10002686:	429e      	cmp	r6, r3
10002688:	d105      	bne.n	10002696 <gpio_rpi_pin_interrupt_configure+0x30>
	WRITE_BIT(data->int_enabled_mask, pin, mode != GPIO_INT_DISABLE);
1000268a:	68fb      	ldr	r3, [r7, #12]
1000268c:	9a01      	ldr	r2, [sp, #4]
1000268e:	4393      	bics	r3, r2
}
10002690:	2000      	movs	r0, #0
	WRITE_BIT(data->int_enabled_mask, pin, mode != GPIO_INT_DISABLE);
10002692:	60fb      	str	r3, [r7, #12]
}
10002694:	bdfe      	pop	{r1, r2, r3, r4, r5, r6, r7, pc}
			if (trig & GPIO_INT_HIGH_1) {
10002696:	2380      	movs	r3, #128	; 0x80
			if (trig & GPIO_INT_LOW_0) {
10002698:	0e61      	lsrs	r1, r4, #25
			if (trig & GPIO_INT_HIGH_1) {
1000269a:	04db      	lsls	r3, r3, #19
1000269c:	4023      	ands	r3, r4
			if (trig & GPIO_INT_LOW_0) {
1000269e:	4011      	ands	r1, r2
		if (mode & GPIO_INT_EDGE) {
100026a0:	01f6      	lsls	r6, r6, #7
100026a2:	d50d      	bpl.n	100026c0 <gpio_rpi_pin_interrupt_configure+0x5a>
			if (trig & GPIO_INT_LOW_0) {
100026a4:	0089      	lsls	r1, r1, #2
			if (trig & GPIO_INT_HIGH_1) {
100026a6:	2b00      	cmp	r3, #0
100026a8:	d001      	beq.n	100026ae <gpio_rpi_pin_interrupt_configure+0x48>
				events |= GPIO_IRQ_EDGE_RISE;
100026aa:	2308      	movs	r3, #8
				events |= GPIO_IRQ_LEVEL_HIGH;
100026ac:	4319      	orrs	r1, r3
		gpio_set_irq_enabled(pin, events, true);
100026ae:	2201      	movs	r2, #1
100026b0:	0028      	movs	r0, r5
100026b2:	f7ff f88d 	bl	100017d0 <gpio_set_irq_enabled>
	WRITE_BIT(data->int_enabled_mask, pin, mode != GPIO_INT_DISABLE);
100026b6:	68fb      	ldr	r3, [r7, #12]
100026b8:	9a01      	ldr	r2, [sp, #4]
100026ba:	431a      	orrs	r2, r3
100026bc:	0013      	movs	r3, r2
100026be:	e7e7      	b.n	10002690 <gpio_rpi_pin_interrupt_configure+0x2a>
			if (trig & GPIO_INT_HIGH_1) {
100026c0:	2b00      	cmp	r3, #0
100026c2:	d0f4      	beq.n	100026ae <gpio_rpi_pin_interrupt_configure+0x48>
				events |= GPIO_IRQ_LEVEL_HIGH;
100026c4:	2302      	movs	r3, #2
100026c6:	e7f1      	b.n	100026ac <gpio_rpi_pin_interrupt_configure+0x46>

100026c8 <bank_0_config_func>:
				&gpio_rpi_##idx##_data,				\
				&gpio_rpi_##idx##_config,			\
				POST_KERNEL, CONFIG_GPIO_INIT_PRIORITY,		\
				&gpio_rpi_driver_api);

DT_INST_FOREACH_STATUS_OKAY(GPIO_RPI_INIT)
100026c8:	b510      	push	{r4, lr}
100026ca:	2200      	movs	r2, #0
100026cc:	2103      	movs	r1, #3
100026ce:	200d      	movs	r0, #13
100026d0:	f7fe fb44 	bl	10000d5c <z_arm_irq_priority_set>
100026d4:	200d      	movs	r0, #13
100026d6:	f7fe fb35 	bl	10000d44 <arch_irq_enable>
100026da:	bd10      	pop	{r4, pc}

100026dc <gpio_rpi_port_set_masked_raw>:
{
100026dc:	b530      	push	{r4, r5, lr}
	struct gpio_rpi_data *data = port->data;
100026de:	6904      	ldr	r4, [r0, #16]
    sio_hw->gpio_togl = (sio_hw->gpio_out ^ value) & mask;
100026e0:	20d0      	movs	r0, #208	; 0xd0
100026e2:	0600      	lsls	r0, r0, #24
100026e4:	6903      	ldr	r3, [r0, #16]
	gpio_put_masked(mask & ~data->single_ended_mask, value);
100026e6:	6925      	ldr	r5, [r4, #16]
100026e8:	4053      	eors	r3, r2
100026ea:	400b      	ands	r3, r1
100026ec:	43ab      	bics	r3, r5
 * corresponding bit in "value", leaving other pins unchanged.
 * E.g. gpio_set_dir_masked(0x3, 0x2); -> set pin 0 to input, pin 1 to output,
 * simultaneously.
 */
static inline void gpio_set_dir_masked(uint32_t mask, uint32_t value) {
    sio_hw->gpio_oe_togl = (sio_hw->gpio_oe ^ value) & mask;
100026ee:	000d      	movs	r5, r1
    sio_hw->gpio_togl = (sio_hw->gpio_out ^ value) & mask;
100026f0:	61c3      	str	r3, [r0, #28]
    sio_hw->gpio_oe_togl = (sio_hw->gpio_oe ^ value) & mask;
100026f2:	6a03      	ldr	r3, [r0, #32]
100026f4:	4053      	eors	r3, r2
100026f6:	439d      	bics	r5, r3
100026f8:	002b      	movs	r3, r5
100026fa:	6925      	ldr	r5, [r4, #16]
100026fc:	401d      	ands	r5, r3
100026fe:	6963      	ldr	r3, [r4, #20]
10002700:	402b      	ands	r3, r5
10002702:	62c3      	str	r3, [r0, #44]	; 0x2c
10002704:	6a03      	ldr	r3, [r0, #32]
10002706:	405a      	eors	r2, r3
10002708:	400a      	ands	r2, r1
1000270a:	6921      	ldr	r1, [r4, #16]
	gpio_set_dir_masked(mask & data->single_ended_mask & ~data->open_drain_mask, value);
1000270c:	6963      	ldr	r3, [r4, #20]
1000270e:	4011      	ands	r1, r2
10002710:	4399      	bics	r1, r3
10002712:	62c1      	str	r1, [r0, #44]	; 0x2c
}
10002714:	2000      	movs	r0, #0
10002716:	bd30      	pop	{r4, r5, pc}

10002718 <gpio_rpi_configure>:
{
10002718:	b5f8      	push	{r3, r4, r5, r6, r7, lr}
1000271a:	0015      	movs	r5, r2
1000271c:	000f      	movs	r7, r1
	gpio_set_pulls(pin,
1000271e:	2401      	movs	r4, #1
10002720:	0952      	lsrs	r2, r2, #5
10002722:	0929      	lsrs	r1, r5, #4
	struct gpio_rpi_data *data = dev->data;
10002724:	6906      	ldr	r6, [r0, #16]
	gpio_set_pulls(pin,
10002726:	4021      	ands	r1, r4
10002728:	0038      	movs	r0, r7
1000272a:	4022      	ands	r2, r4
1000272c:	f7ff f806 	bl	1000173c <gpio_set_pulls>
	gpio_set_function(pin, GPIO_FUNC_SIO);
10002730:	2105      	movs	r1, #5
10002732:	0038      	movs	r0, r7
10002734:	f7fe ffec 	bl	10001710 <gpio_set_function>
	if (flags & GPIO_OUTPUT) {
10002738:	03ab      	lsls	r3, r5, #14
1000273a:	d525      	bpl.n	10002788 <gpio_rpi_configure+0x70>
			data->single_ended_mask |= BIT(pin);
1000273c:	40bc      	lsls	r4, r7
1000273e:	6932      	ldr	r2, [r6, #16]
		if (flags & GPIO_SINGLE_ENDED) {
10002740:	07a9      	lsls	r1, r5, #30
10002742:	d515      	bpl.n	10002770 <gpio_rpi_configure+0x58>
			data->single_ended_mask |= BIT(pin);
10002744:	4322      	orrs	r2, r4
10002746:	6132      	str	r2, [r6, #16]
			if (flags & GPIO_LINE_OPEN_DRAIN) {
10002748:	22d0      	movs	r2, #208	; 0xd0
				data->open_drain_mask |= BIT(pin);
1000274a:	6971      	ldr	r1, [r6, #20]
1000274c:	0612      	lsls	r2, r2, #24
			if (flags & GPIO_LINE_OPEN_DRAIN) {
1000274e:	0768      	lsls	r0, r5, #29
10002750:	d507      	bpl.n	10002762 <gpio_rpi_configure+0x4a>
				data->open_drain_mask |= BIT(pin);
10002752:	4321      	orrs	r1, r4
10002754:	6171      	str	r1, [r6, #20]
    sio_hw->gpio_clr = mask;
10002756:	6194      	str	r4, [r2, #24]
 * \param gpio GPIO number
 * \param out true for out, false for in
 */
static inline void gpio_set_dir(uint gpio, bool out) {
    uint32_t mask = 1ul << gpio;
    if (out)
10002758:	036d      	lsls	r5, r5, #13
1000275a:	d507      	bpl.n	1000276c <gpio_rpi_configure+0x54>
    sio_hw->gpio_oe_set = mask;
1000275c:	6254      	str	r4, [r2, #36]	; 0x24
}
1000275e:	2000      	movs	r0, #0
10002760:	bdf8      	pop	{r3, r4, r5, r6, r7, pc}
				data->open_drain_mask &= ~(BIT(pin));
10002762:	43a1      	bics	r1, r4
10002764:	6171      	str	r1, [r6, #20]
    sio_hw->gpio_set = mask;
10002766:	6154      	str	r4, [r2, #20]
    if (out)
10002768:	032d      	lsls	r5, r5, #12
1000276a:	d4f7      	bmi.n	1000275c <gpio_rpi_configure+0x44>
    sio_hw->gpio_oe_clr = mask;
1000276c:	6294      	str	r4, [r2, #40]	; 0x28
}
1000276e:	e7f6      	b.n	1000275e <gpio_rpi_configure+0x46>
			data->single_ended_mask &= ~(BIT(pin));
10002770:	43a2      	bics	r2, r4
10002772:	6132      	str	r2, [r6, #16]
			if (flags & GPIO_OUTPUT_INIT_HIGH) {
10002774:	22d0      	movs	r2, #208	; 0xd0
10002776:	0612      	lsls	r2, r2, #24
10002778:	0329      	lsls	r1, r5, #12
1000277a:	d501      	bpl.n	10002780 <gpio_rpi_configure+0x68>
    sio_hw->gpio_set = mask;
1000277c:	6154      	str	r4, [r2, #20]
}
1000277e:	e7ed      	b.n	1000275c <gpio_rpi_configure+0x44>
			} else if (flags & GPIO_OUTPUT_INIT_LOW) {
10002780:	036d      	lsls	r5, r5, #13
10002782:	d5eb      	bpl.n	1000275c <gpio_rpi_configure+0x44>
    sio_hw->gpio_clr = mask;
10002784:	6194      	str	r4, [r2, #24]
}
10002786:	e7e9      	b.n	1000275c <gpio_rpi_configure+0x44>
	} else if (flags & GPIO_INPUT) {
10002788:	03ed      	lsls	r5, r5, #15
1000278a:	d5e8      	bpl.n	1000275e <gpio_rpi_configure+0x46>
    sio_hw->gpio_oe_clr = mask;
1000278c:	22d0      	movs	r2, #208	; 0xd0
    uint32_t mask = 1ul << gpio;
1000278e:	40bc      	lsls	r4, r7
    sio_hw->gpio_oe_clr = mask;
10002790:	0612      	lsls	r2, r2, #24
10002792:	e7eb      	b.n	1000276c <gpio_rpi_configure+0x54>

10002794 <pinctrl_lookup_state>:

#include <zephyr/drivers/pinctrl.h>

int pinctrl_lookup_state(const struct pinctrl_dev_config *config, uint8_t id,
			 const struct pinctrl_state **state)
{
10002794:	b530      	push	{r4, r5, lr}
	*state = &config->states[0];
10002796:	6803      	ldr	r3, [r0, #0]
10002798:	6013      	str	r3, [r2, #0]
	while (*state < &config->states[config->state_cnt]) {
1000279a:	7905      	ldrb	r5, [r0, #4]
1000279c:	6804      	ldr	r4, [r0, #0]
1000279e:	00ed      	lsls	r5, r5, #3
100027a0:	1964      	adds	r4, r4, r5
100027a2:	42a3      	cmp	r3, r4
100027a4:	d302      	bcc.n	100027ac <pinctrl_lookup_state+0x18>
		}

		(*state)++;
	}

	return -ENOENT;
100027a6:	2002      	movs	r0, #2
100027a8:	4240      	negs	r0, r0
}
100027aa:	bd30      	pop	{r4, r5, pc}
		if (id == (*state)->id) {
100027ac:	795c      	ldrb	r4, [r3, #5]
100027ae:	428c      	cmp	r4, r1
100027b0:	d001      	beq.n	100027b6 <pinctrl_lookup_state+0x22>
		(*state)++;
100027b2:	3308      	adds	r3, #8
100027b4:	e7f0      	b.n	10002798 <pinctrl_lookup_state+0x4>
			return 0;
100027b6:	2000      	movs	r0, #0
100027b8:	e7f7      	b.n	100027aa <pinctrl_lookup_state+0x16>

100027ba <pinctrl_configure_pins>:
	gpio_set_input_enabled(pin->pin_num, pin->input_enable);
}

int pinctrl_configure_pins(const pinctrl_soc_pin_t *pins, uint8_t pin_cnt,
			   uintptr_t reg)
{
100027ba:	b5f8      	push	{r3, r4, r5, r6, r7, lr}
100027bc:	0004      	movs	r4, r0
				GPIO_SLEW_RATE_FAST : GPIO_SLEW_RATE_SLOW));
100027be:	2601      	movs	r6, #1
100027c0:	008d      	lsls	r5, r1, #2
100027c2:	1945      	adds	r5, r0, r5
	ARG_UNUSED(reg);

	for (uint8_t i = 0U; i < pin_cnt; i++) {
100027c4:	42ac      	cmp	r4, r5
100027c6:	d101      	bne.n	100027cc <pinctrl_configure_pins+0x12>
		pinctrl_configure_pin(pins++);
	}

	return 0;
}
100027c8:	2000      	movs	r0, #0
100027ca:	bdf8      	pop	{r3, r4, r5, r6, r7, pc}
	gpio_init(pin->pin_num);
100027cc:	7820      	ldrb	r0, [r4, #0]
		pinctrl_configure_pin(pins++);
100027ce:	1d27      	adds	r7, r4, #4
	gpio_init(pin->pin_num);
100027d0:	06c0      	lsls	r0, r0, #27
100027d2:	0ec0      	lsrs	r0, r0, #27
100027d4:	f000 f987 	bl	10002ae6 <gpio_init>
	gpio_set_function(pin->pin_num, pin->alt_func);
100027d8:	8821      	ldrh	r1, [r4, #0]
100027da:	7820      	ldrb	r0, [r4, #0]
100027dc:	05c9      	lsls	r1, r1, #23
100027de:	06c0      	lsls	r0, r0, #27
100027e0:	0f09      	lsrs	r1, r1, #28
100027e2:	0ec0      	lsrs	r0, r0, #27
100027e4:	f7fe ff94 	bl	10001710 <gpio_set_function>
	gpio_set_pulls(pin->pin_num, pin->pullup, pin->pulldown);
100027e8:	7861      	ldrb	r1, [r4, #1]
100027ea:	7820      	ldrb	r0, [r4, #0]
100027ec:	09ca      	lsrs	r2, r1, #7
100027ee:	06c0      	lsls	r0, r0, #27
100027f0:	0649      	lsls	r1, r1, #25
100027f2:	0fc9      	lsrs	r1, r1, #31
100027f4:	0ec0      	lsrs	r0, r0, #27
100027f6:	f7fe ffa1 	bl	1000173c <gpio_set_pulls>
	gpio_set_drive_strength(pin->pin_num, pin->drive_strength);
100027fa:	7861      	ldrb	r1, [r4, #1]
100027fc:	7820      	ldrb	r0, [r4, #0]
100027fe:	06c9      	lsls	r1, r1, #27
10002800:	06c0      	lsls	r0, r0, #27
10002802:	0f09      	lsrs	r1, r1, #28
10002804:	0ec0      	lsrs	r0, r0, #27
10002806:	f7fe ffc7 	bl	10001798 <gpio_set_drive_strength>
				GPIO_SLEW_RATE_FAST : GPIO_SLEW_RATE_SLOW));
1000280a:	7861      	ldrb	r1, [r4, #1]
	gpio_set_slew_rate(pin->pin_num, (pin->slew_rate ?
1000280c:	7820      	ldrb	r0, [r4, #0]
				GPIO_SLEW_RATE_FAST : GPIO_SLEW_RATE_SLOW));
1000280e:	0949      	lsrs	r1, r1, #5
	gpio_set_slew_rate(pin->pin_num, (pin->slew_rate ?
10002810:	06c0      	lsls	r0, r0, #27
10002812:	4031      	ands	r1, r6
10002814:	0ec0      	lsrs	r0, r0, #27
10002816:	f7fe ffb1 	bl	1000177c <gpio_set_slew_rate>
	gpio_set_input_hysteresis_enabled(pin->pin_num, pin->schmitt_enable);
1000281a:	78a1      	ldrb	r1, [r4, #2]
1000281c:	7820      	ldrb	r0, [r4, #0]
1000281e:	0789      	lsls	r1, r1, #30
10002820:	06c0      	lsls	r0, r0, #27
10002822:	0fc9      	lsrs	r1, r1, #31
10002824:	0ec0      	lsrs	r0, r0, #27
10002826:	f7fe ff9b 	bl	10001760 <gpio_set_input_hysteresis_enabled>
	gpio_set_input_enabled(pin->pin_num, pin->input_enable);
1000282a:	78a1      	ldrb	r1, [r4, #2]
1000282c:	7820      	ldrb	r0, [r4, #0]
1000282e:	07c9      	lsls	r1, r1, #31
10002830:	06c0      	lsls	r0, r0, #27
10002832:	0fc9      	lsrs	r1, r1, #31
10002834:	0ec0      	lsrs	r0, r0, #27
10002836:	f7fe ffed 	bl	10001814 <gpio_set_input_enabled>
		pinctrl_configure_pin(pins++);
1000283a:	003c      	movs	r4, r7
1000283c:	e7c2      	b.n	100027c4 <pinctrl_configure_pins+0xa>

1000283e <reset_rpi_init>:
static int reset_rpi_init(const struct device *dev)
{
	DEVICE_MMIO_MAP(dev, K_MEM_CACHE_NONE);

	return 0;
}
1000283e:	2000      	movs	r0, #0
10002840:	4770      	bx	lr

10002842 <reset_rpi_read_register.isra.0>:
	uint32_t base_address = config->base_address;
10002842:	6883      	ldr	r3, [r0, #8]
	switch (config->reg_width) {
10002844:	7900      	ldrb	r0, [r0, #4]
10002846:	2802      	cmp	r0, #2
10002848:	d009      	beq.n	1000285e <reset_rpi_read_register.isra.0+0x1c>
1000284a:	2804      	cmp	r0, #4
1000284c:	d00b      	beq.n	10002866 <reset_rpi_read_register.isra.0+0x24>
1000284e:	2801      	cmp	r0, #1
10002850:	d10c      	bne.n	1000286c <reset_rpi_read_register.isra.0+0x2a>
		*value = sys_read8(base_address + offset);
10002852:	18c9      	adds	r1, r1, r3
extern "C" {
#endif

static ALWAYS_INLINE uint8_t sys_read8(mem_addr_t addr)
{
	return *(volatile uint8_t *)addr;
10002854:	780b      	ldrb	r3, [r1, #0]
10002856:	b2db      	uxtb	r3, r3
	return 0;
10002858:	2000      	movs	r0, #0
		*value = sys_read16(base_address + offset);
1000285a:	6013      	str	r3, [r2, #0]
}
1000285c:	4770      	bx	lr
		*value = sys_read16(base_address + offset);
1000285e:	18c9      	adds	r1, r1, r3
	*(volatile uint8_t *)addr = data;
}

static ALWAYS_INLINE uint16_t sys_read16(mem_addr_t addr)
{
	return *(volatile uint16_t *)addr;
10002860:	880b      	ldrh	r3, [r1, #0]
10002862:	b29b      	uxth	r3, r3
		break;
10002864:	e7f8      	b.n	10002858 <reset_rpi_read_register.isra.0+0x16>
		*value = sys_read32(base_address + offset);
10002866:	18c9      	adds	r1, r1, r3
	*(volatile uint16_t *)addr = data;
}

static ALWAYS_INLINE uint32_t sys_read32(mem_addr_t addr)
{
	return *(volatile uint32_t *)addr;
10002868:	680b      	ldr	r3, [r1, #0]
		break;
1000286a:	e7f5      	b.n	10002858 <reset_rpi_read_register.isra.0+0x16>
	switch (config->reg_width) {
1000286c:	2016      	movs	r0, #22
1000286e:	4240      	negs	r0, r0
10002870:	e7f4      	b.n	1000285c <reset_rpi_read_register.isra.0+0x1a>

10002872 <reset_rpi_update>:
{
10002872:	0003      	movs	r3, r0
10002874:	b5f0      	push	{r4, r5, r6, r7, lr}
10002876:	b085      	sub	sp, #20
	const struct reset_rpi_config *config = dev->config;
10002878:	685f      	ldr	r7, [r3, #4]
{
1000287a:	9201      	str	r2, [sp, #4]
	offset = id / (config->reg_width * CHAR_BIT);
1000287c:	793e      	ldrb	r6, [r7, #4]
{
1000287e:	0008      	movs	r0, r1
	offset = id / (config->reg_width * CHAR_BIT);
10002880:	00f1      	lsls	r1, r6, #3
10002882:	f7fd fce1 	bl	10000248 <__aeabi_uidivmod>
	ret = reset_rpi_read_register(dev, offset, &value);
10002886:	aa03      	add	r2, sp, #12
10002888:	0004      	movs	r4, r0
1000288a:	000d      	movs	r5, r1
1000288c:	b281      	uxth	r1, r0
1000288e:	0038      	movs	r0, r7
10002890:	f7ff ffd7 	bl	10002842 <reset_rpi_read_register.isra.0>
	if (ret) {
10002894:	2800      	cmp	r0, #0
10002896:	d117      	bne.n	100028c8 <reset_rpi_update+0x56>
		value |= BIT(regbit);
10002898:	2201      	movs	r2, #1
1000289a:	9903      	ldr	r1, [sp, #12]
1000289c:	b2ed      	uxtb	r5, r5
1000289e:	40aa      	lsls	r2, r5
		value &= ~BIT(regbit);
100028a0:	000b      	movs	r3, r1
		value |= BIT(regbit);
100028a2:	4694      	mov	ip, r2
		value &= ~BIT(regbit);
100028a4:	4393      	bics	r3, r2
	if (assert ^ config->active_low) {
100028a6:	797d      	ldrb	r5, [r7, #5]
100028a8:	9a01      	ldr	r2, [sp, #4]
100028aa:	4295      	cmp	r5, r2
100028ac:	d001      	beq.n	100028b2 <reset_rpi_update+0x40>
		value |= BIT(regbit);
100028ae:	4663      	mov	r3, ip
100028b0:	430b      	orrs	r3, r1
	uint32_t base_address = config->base_address;
100028b2:	68ba      	ldr	r2, [r7, #8]
	switch (config->reg_width) {
100028b4:	2e02      	cmp	r6, #2
100028b6:	d009      	beq.n	100028cc <reset_rpi_update+0x5a>
100028b8:	2e04      	cmp	r6, #4
100028ba:	d00c      	beq.n	100028d6 <reset_rpi_update+0x64>
100028bc:	2e01      	cmp	r6, #1
100028be:	d10e      	bne.n	100028de <reset_rpi_update+0x6c>
		sys_write8(value, base_address + offset);
100028c0:	b2a4      	uxth	r4, r4
100028c2:	b2db      	uxtb	r3, r3
100028c4:	18a4      	adds	r4, r4, r2
	*(volatile uint8_t *)addr = data;
100028c6:	7023      	strb	r3, [r4, #0]
}
100028c8:	b005      	add	sp, #20
100028ca:	bdf0      	pop	{r4, r5, r6, r7, pc}
		sys_write16(value, base_address + offset);
100028cc:	b2a4      	uxth	r4, r4
100028ce:	b29b      	uxth	r3, r3
100028d0:	18a4      	adds	r4, r4, r2
	*(volatile uint16_t *)addr = data;
100028d2:	8023      	strh	r3, [r4, #0]
}
100028d4:	e7f8      	b.n	100028c8 <reset_rpi_update+0x56>
		sys_write32(value, base_address + offset);
100028d6:	b2a4      	uxth	r4, r4
100028d8:	18a4      	adds	r4, r4, r2
}

static ALWAYS_INLINE void sys_write32(uint32_t data, mem_addr_t addr)
{
	*(volatile uint32_t *)addr = data;
100028da:	6023      	str	r3, [r4, #0]
}
100028dc:	e7f4      	b.n	100028c8 <reset_rpi_update+0x56>
	switch (config->reg_width) {
100028de:	2016      	movs	r0, #22
100028e0:	4240      	negs	r0, r0
100028e2:	e7f1      	b.n	100028c8 <reset_rpi_update+0x56>

100028e4 <reset_rpi_line_assert>:
{
100028e4:	b510      	push	{r4, lr}
	return reset_rpi_update(dev, id, 1);
100028e6:	2201      	movs	r2, #1
100028e8:	f7ff ffc3 	bl	10002872 <reset_rpi_update>
}
100028ec:	bd10      	pop	{r4, pc}

100028ee <reset_rpi_line_deassert>:
{
100028ee:	b510      	push	{r4, lr}
	return reset_rpi_update(dev, id, 0);
100028f0:	2200      	movs	r2, #0
100028f2:	f7ff ffbe 	bl	10002872 <reset_rpi_update>
}
100028f6:	bd10      	pop	{r4, pc}

100028f8 <reset_rpi_line_toggle>:
{
100028f8:	b570      	push	{r4, r5, r6, lr}
100028fa:	0004      	movs	r4, r0
100028fc:	000d      	movs	r5, r1
	ret = reset_rpi_line_assert(dev, id);
100028fe:	f7ff fff1 	bl	100028e4 <reset_rpi_line_assert>
	if (ret) {
10002902:	2800      	cmp	r0, #0
10002904:	d103      	bne.n	1000290e <reset_rpi_line_toggle+0x16>
	return reset_rpi_line_deassert(dev, id);
10002906:	0029      	movs	r1, r5
10002908:	0020      	movs	r0, r4
1000290a:	f7ff fff0 	bl	100028ee <reset_rpi_line_deassert>
}
1000290e:	bd70      	pop	{r4, r5, r6, pc}

10002910 <reset_rpi_status>:
{
10002910:	0003      	movs	r3, r0
10002912:	b573      	push	{r0, r1, r4, r5, r6, lr}
	const struct reset_rpi_config *config = dev->config;
10002914:	685e      	ldr	r6, [r3, #4]
{
10002916:	0008      	movs	r0, r1
	offset = id / (config->reg_width * CHAR_BIT);
10002918:	7931      	ldrb	r1, [r6, #4]
{
1000291a:	0014      	movs	r4, r2
	offset = id / (config->reg_width * CHAR_BIT);
1000291c:	00c9      	lsls	r1, r1, #3
1000291e:	f7fd fc93 	bl	10000248 <__aeabi_uidivmod>
	ret = reset_rpi_read_register(dev, offset, &value);
10002922:	aa01      	add	r2, sp, #4
10002924:	000d      	movs	r5, r1
10002926:	b281      	uxth	r1, r0
10002928:	0030      	movs	r0, r6
1000292a:	f7ff ff8a 	bl	10002842 <reset_rpi_read_register.isra.0>
	if (ret) {
1000292e:	2800      	cmp	r0, #0
10002930:	d109      	bne.n	10002946 <reset_rpi_status+0x36>
	*status = !(value & BIT(regbit)) ^ !config->active_low;
10002932:	9b01      	ldr	r3, [sp, #4]
10002934:	b2ed      	uxtb	r5, r5
10002936:	40eb      	lsrs	r3, r5
10002938:	2201      	movs	r2, #1
1000293a:	439a      	bics	r2, r3
1000293c:	7973      	ldrb	r3, [r6, #5]
1000293e:	4259      	negs	r1, r3
10002940:	414b      	adcs	r3, r1
10002942:	4053      	eors	r3, r2
10002944:	7023      	strb	r3, [r4, #0]
}
10002946:	bd76      	pop	{r1, r2, r4, r5, r6, pc}

10002948 <uart_rpi_poll_in>:
{
10002948:	b510      	push	{r4, lr}
	uart_hw_t * const uart_hw = config->uart_regs;
1000294a:	6843      	ldr	r3, [r0, #4]
	if (uart_hw->fr & UART_UARTFR_RXFE_BITS) {
1000294c:	2210      	movs	r2, #16
	uart_hw_t * const uart_hw = config->uart_regs;
1000294e:	685b      	ldr	r3, [r3, #4]
	if (uart_hw->fr & UART_UARTFR_RXFE_BITS) {
10002950:	699c      	ldr	r4, [r3, #24]
10002952:	0020      	movs	r0, r4
10002954:	4010      	ands	r0, r2
10002956:	4214      	tst	r4, r2
10002958:	d102      	bne.n	10002960 <uart_rpi_poll_in+0x18>
	*c = (unsigned char)uart_hw->dr;
1000295a:	681b      	ldr	r3, [r3, #0]
1000295c:	700b      	strb	r3, [r1, #0]
}
1000295e:	bd10      	pop	{r4, pc}
		return -1;
10002960:	2001      	movs	r0, #1
10002962:	4240      	negs	r0, r0
10002964:	e7fb      	b.n	1000295e <uart_rpi_poll_in+0x16>

10002966 <uart_rpi_poll_out>:
	while (uart_hw->fr & UART_UARTFR_TXFF_BITS) {
10002966:	2220      	movs	r2, #32
	uart_hw_t * const uart_hw = config->uart_regs;
10002968:	6843      	ldr	r3, [r0, #4]
1000296a:	685b      	ldr	r3, [r3, #4]
	while (uart_hw->fr & UART_UARTFR_TXFF_BITS) {
1000296c:	6998      	ldr	r0, [r3, #24]
1000296e:	4210      	tst	r0, r2
10002970:	d1fc      	bne.n	1000296c <uart_rpi_poll_out+0x6>
	uart_hw->dr = c;
10002972:	6019      	str	r1, [r3, #0]
}
10002974:	4770      	bx	lr

10002976 <uart_rpi_err_check>:
	uart_hw_t * const uart_hw = config->uart_regs;
10002976:	6843      	ldr	r3, [r0, #4]
10002978:	685b      	ldr	r3, [r3, #4]
	uint32_t data_reg = uart_hw->dr;
1000297a:	681b      	ldr	r3, [r3, #0]
	if (data_reg & UART_UARTDR_OE_BITS) {
1000297c:	0518      	lsls	r0, r3, #20
1000297e:	0fc0      	lsrs	r0, r0, #31
	if (data_reg & UART_UARTDR_BE_BITS) {
10002980:	055a      	lsls	r2, r3, #21
10002982:	d501      	bpl.n	10002988 <uart_rpi_err_check+0x12>
		errors |= UART_BREAK;
10002984:	2208      	movs	r2, #8
10002986:	4310      	orrs	r0, r2
	if (data_reg & UART_UARTDR_PE_BITS) {
10002988:	059a      	lsls	r2, r3, #22
1000298a:	d501      	bpl.n	10002990 <uart_rpi_err_check+0x1a>
		errors |= UART_ERROR_PARITY;
1000298c:	2202      	movs	r2, #2
1000298e:	4310      	orrs	r0, r2
	if (data_reg & UART_UARTDR_FE_BITS) {
10002990:	05db      	lsls	r3, r3, #23
10002992:	d501      	bpl.n	10002998 <uart_rpi_err_check+0x22>
		errors |= UART_ERROR_FRAMING;
10002994:	2304      	movs	r3, #4
10002996:	4318      	orrs	r0, r3
}
10002998:	4770      	bx	lr

1000299a <uart_rpi_fifo_fill>:
{
1000299a:	b530      	push	{r4, r5, lr}
	while (!(uart_hw->fr & UART_UARTFR_TXFF_BITS) && (len - tx_len) > 0) {
1000299c:	2520      	movs	r5, #32
	uart_hw_t * const uart_hw = config->uart_regs;
1000299e:	6843      	ldr	r3, [r0, #4]
	while (!(uart_hw->fr & UART_UARTFR_TXFF_BITS) && (len - tx_len) > 0) {
100029a0:	2000      	movs	r0, #0
	uart_hw_t * const uart_hw = config->uart_regs;
100029a2:	685b      	ldr	r3, [r3, #4]
	while (!(uart_hw->fr & UART_UARTFR_TXFF_BITS) && (len - tx_len) > 0) {
100029a4:	699c      	ldr	r4, [r3, #24]
100029a6:	422c      	tst	r4, r5
100029a8:	d102      	bne.n	100029b0 <uart_rpi_fifo_fill+0x16>
100029aa:	1a14      	subs	r4, r2, r0
100029ac:	2c00      	cmp	r4, #0
100029ae:	dc00      	bgt.n	100029b2 <uart_rpi_fifo_fill+0x18>
}
100029b0:	bd30      	pop	{r4, r5, pc}
		uart_hw->dr = tx_data[tx_len++];
100029b2:	5c0c      	ldrb	r4, [r1, r0]
100029b4:	3001      	adds	r0, #1
100029b6:	601c      	str	r4, [r3, #0]
100029b8:	e7f4      	b.n	100029a4 <uart_rpi_fifo_fill+0xa>

100029ba <uart_rpi_fifo_read>:
{
100029ba:	b530      	push	{r4, r5, lr}
	while (!(uart_hw->fr & UART_UARTFR_RXFE_BITS) && (len - rx_len) > 0) {
100029bc:	2510      	movs	r5, #16
	uart_hw_t * const uart_hw = config->uart_regs;
100029be:	6843      	ldr	r3, [r0, #4]
	while (!(uart_hw->fr & UART_UARTFR_RXFE_BITS) && (len - rx_len) > 0) {
100029c0:	2000      	movs	r0, #0
	uart_hw_t * const uart_hw = config->uart_regs;
100029c2:	685b      	ldr	r3, [r3, #4]
	while (!(uart_hw->fr & UART_UARTFR_RXFE_BITS) && (len - rx_len) > 0) {
100029c4:	699c      	ldr	r4, [r3, #24]
100029c6:	422c      	tst	r4, r5
100029c8:	d102      	bne.n	100029d0 <uart_rpi_fifo_read+0x16>
100029ca:	1a14      	subs	r4, r2, r0
100029cc:	2c00      	cmp	r4, #0
100029ce:	dc00      	bgt.n	100029d2 <uart_rpi_fifo_read+0x18>
}
100029d0:	bd30      	pop	{r4, r5, pc}
		rx_data[rx_len++] = (uint8_t)uart_hw->dr;
100029d2:	681c      	ldr	r4, [r3, #0]
100029d4:	540c      	strb	r4, [r1, r0]
100029d6:	3001      	adds	r0, #1
100029d8:	e7f4      	b.n	100029c4 <uart_rpi_fifo_read+0xa>

100029da <uart_rpi_irq_tx_enable>:
	uart_hw->imsc |= UART_UARTIMSC_TXIM_BITS;
100029da:	2220      	movs	r2, #32
	uart_hw_t * const uart_hw = config->uart_regs;
100029dc:	6843      	ldr	r3, [r0, #4]
100029de:	685b      	ldr	r3, [r3, #4]
	uart_hw->imsc |= UART_UARTIMSC_TXIM_BITS;
100029e0:	6b99      	ldr	r1, [r3, #56]	; 0x38
100029e2:	430a      	orrs	r2, r1
	uart_hw->ifls &= ~UART_UARTIFLS_TXIFLSEL_BITS;
100029e4:	2107      	movs	r1, #7
	uart_hw->imsc |= UART_UARTIMSC_TXIM_BITS;
100029e6:	639a      	str	r2, [r3, #56]	; 0x38
	uart_hw->ifls &= ~UART_UARTIFLS_TXIFLSEL_BITS;
100029e8:	6b5a      	ldr	r2, [r3, #52]	; 0x34
100029ea:	438a      	bics	r2, r1
100029ec:	635a      	str	r2, [r3, #52]	; 0x34
}
100029ee:	4770      	bx	lr

100029f0 <uart_rpi_irq_tx_disable>:
	uart_hw->imsc &= ~UART_UARTIMSC_TXIM_BITS;
100029f0:	2120      	movs	r1, #32
	uart_hw_t * const uart_hw = config->uart_regs;
100029f2:	6843      	ldr	r3, [r0, #4]
100029f4:	685a      	ldr	r2, [r3, #4]
	uart_hw->imsc &= ~UART_UARTIMSC_TXIM_BITS;
100029f6:	6b93      	ldr	r3, [r2, #56]	; 0x38
100029f8:	438b      	bics	r3, r1
100029fa:	6393      	str	r3, [r2, #56]	; 0x38
}
100029fc:	4770      	bx	lr

100029fe <uart_rpi_irq_tx_ready>:
	uart_hw_t * const uart_hw = config->uart_regs;
100029fe:	6843      	ldr	r3, [r0, #4]
10002a00:	685b      	ldr	r3, [r3, #4]
	return (uart_hw->mis & UART_UARTMIS_TXMIS_BITS) == UART_UARTMIS_TXMIS_BITS;
10002a02:	6c18      	ldr	r0, [r3, #64]	; 0x40
10002a04:	0680      	lsls	r0, r0, #26
10002a06:	0fc0      	lsrs	r0, r0, #31
}
10002a08:	4770      	bx	lr

10002a0a <uart_rpi_irq_rx_enable>:
	uart_hw->imsc |= UART_UARTIMSC_RXIM_BITS;
10002a0a:	2210      	movs	r2, #16
	uart_hw_t * const uart_hw = config->uart_regs;
10002a0c:	6843      	ldr	r3, [r0, #4]
10002a0e:	685b      	ldr	r3, [r3, #4]
	uart_hw->imsc |= UART_UARTIMSC_RXIM_BITS;
10002a10:	6b99      	ldr	r1, [r3, #56]	; 0x38
10002a12:	430a      	orrs	r2, r1
	uart_hw->ifls &= ~UART_UARTIFLS_RXIFLSEL_BITS;
10002a14:	2138      	movs	r1, #56	; 0x38
	uart_hw->imsc |= UART_UARTIMSC_RXIM_BITS;
10002a16:	639a      	str	r2, [r3, #56]	; 0x38
	uart_hw->ifls &= ~UART_UARTIFLS_RXIFLSEL_BITS;
10002a18:	6b5a      	ldr	r2, [r3, #52]	; 0x34
10002a1a:	438a      	bics	r2, r1
10002a1c:	635a      	str	r2, [r3, #52]	; 0x34
}
10002a1e:	4770      	bx	lr

10002a20 <uart_rpi_irq_rx_disable>:
	uart_hw->imsc &= ~UART_UARTIMSC_RXIM_BITS;
10002a20:	2110      	movs	r1, #16
	uart_hw_t * const uart_hw = config->uart_regs;
10002a22:	6843      	ldr	r3, [r0, #4]
10002a24:	685a      	ldr	r2, [r3, #4]
	uart_hw->imsc &= ~UART_UARTIMSC_RXIM_BITS;
10002a26:	6b93      	ldr	r3, [r2, #56]	; 0x38
10002a28:	438b      	bics	r3, r1
10002a2a:	6393      	str	r3, [r2, #56]	; 0x38
}
10002a2c:	4770      	bx	lr

10002a2e <uart_rpi_irq_tx_complete>:
	uart_hw_t * const uart_hw = config->uart_regs;
10002a2e:	6843      	ldr	r3, [r0, #4]
10002a30:	685b      	ldr	r3, [r3, #4]
	return !!(uart_hw->fr & UART_UARTFR_TXFE_BITS);
10002a32:	6998      	ldr	r0, [r3, #24]
10002a34:	0600      	lsls	r0, r0, #24
10002a36:	0fc0      	lsrs	r0, r0, #31
}
10002a38:	4770      	bx	lr

10002a3a <uart_rpi_irq_rx_ready>:
	uart_hw_t * const uart_hw = config->uart_regs;
10002a3a:	6843      	ldr	r3, [r0, #4]
10002a3c:	685b      	ldr	r3, [r3, #4]
	return (uart_hw->mis & UART_UARTMIS_RXMIS_BITS) == UART_UARTMIS_RXMIS_BITS;
10002a3e:	6c18      	ldr	r0, [r3, #64]	; 0x40
10002a40:	06c0      	lsls	r0, r0, #27
10002a42:	0fc0      	lsrs	r0, r0, #31
}
10002a44:	4770      	bx	lr

10002a46 <uart_rpi_irq_err_enable>:
	uart_hw_t * const uart_hw = config->uart_regs;
10002a46:	6843      	ldr	r3, [r0, #4]
10002a48:	685a      	ldr	r2, [r3, #4]
	uart_hw->imsc |= (UART_UARTIMSC_OEIM_BITS |
10002a4a:	23f8      	movs	r3, #248	; 0xf8
10002a4c:	6b91      	ldr	r1, [r2, #56]	; 0x38
10002a4e:	00db      	lsls	r3, r3, #3
10002a50:	430b      	orrs	r3, r1
10002a52:	6393      	str	r3, [r2, #56]	; 0x38
}
10002a54:	4770      	bx	lr

10002a56 <uart_rpi_irq_is_pending>:

static int uart_rpi_irq_is_pending(const struct device *dev)
{
10002a56:	b510      	push	{r4, lr}
10002a58:	0004      	movs	r4, r0
	return !!(uart_rpi_irq_rx_ready(dev) || uart_rpi_irq_tx_ready(dev));
10002a5a:	f7ff ffee 	bl	10002a3a <uart_rpi_irq_rx_ready>
10002a5e:	0003      	movs	r3, r0
10002a60:	2001      	movs	r0, #1
10002a62:	2b00      	cmp	r3, #0
10002a64:	d104      	bne.n	10002a70 <uart_rpi_irq_is_pending+0x1a>
10002a66:	0020      	movs	r0, r4
10002a68:	f7ff ffc9 	bl	100029fe <uart_rpi_irq_tx_ready>
10002a6c:	1e43      	subs	r3, r0, #1
10002a6e:	4198      	sbcs	r0, r3
}
10002a70:	bd10      	pop	{r4, pc}

10002a72 <uart_rpi_irq_update>:

static int uart_rpi_irq_update(const struct device *dev)
{
	return 1;
}
10002a72:	2001      	movs	r0, #1
10002a74:	4770      	bx	lr

10002a76 <uart_rpi_irq_callback_set>:

static void uart_rpi_irq_callback_set(const struct device *dev,
				      uart_irq_callback_user_data_t cb,
				      void *cb_data)
{
	struct uart_rpi_data * const data = dev->data;
10002a76:	6903      	ldr	r3, [r0, #16]

	data->irq_cb = cb;
10002a78:	6099      	str	r1, [r3, #8]
	data->irq_cb_data = cb_data;
10002a7a:	60da      	str	r2, [r3, #12]
}
10002a7c:	4770      	bx	lr

10002a7e <uart_rpi_isr>:

static void uart_rpi_isr(const struct device *dev)
{
10002a7e:	b510      	push	{r4, lr}
	struct uart_rpi_data * const data = dev->data;
10002a80:	6902      	ldr	r2, [r0, #16]

	if (data->irq_cb) {
10002a82:	6893      	ldr	r3, [r2, #8]
10002a84:	2b00      	cmp	r3, #0
10002a86:	d001      	beq.n	10002a8c <uart_rpi_isr+0xe>
		data->irq_cb(dev, data->irq_cb_data);
10002a88:	68d1      	ldr	r1, [r2, #12]
10002a8a:	4798      	blx	r3
	}
}
10002a8c:	bd10      	pop	{r4, pc}

10002a8e <uart_rpi_config_get>:
{
10002a8e:	0003      	movs	r3, r0
10002a90:	b510      	push	{r4, lr}
10002a92:	0008      	movs	r0, r1
	memcpy(cfg, &data->uart_config, sizeof(struct uart_config));
10002a94:	2208      	movs	r2, #8
10002a96:	6919      	ldr	r1, [r3, #16]
10002a98:	f7ff fd60 	bl	1000255c <memcpy>
}
10002a9c:	2000      	movs	r0, #0
10002a9e:	bd10      	pop	{r4, pc}

10002aa0 <uart0_rpi_irq_config_func>:
			    NULL, &uart##idx##_rpi_data,			\
			    &uart##idx##_rpi_config, PRE_KERNEL_1,		\
			    CONFIG_SERIAL_INIT_PRIORITY,			\
			    &uart_rpi_driver_api);				\

DT_INST_FOREACH_STATUS_OKAY(RPI_UART_INIT)
10002aa0:	b510      	push	{r4, lr}
10002aa2:	2200      	movs	r2, #0
10002aa4:	2103      	movs	r1, #3
10002aa6:	2014      	movs	r0, #20
10002aa8:	f7fe f958 	bl	10000d5c <z_arm_irq_priority_set>
10002aac:	2014      	movs	r0, #20
10002aae:	f7fe f949 	bl	10000d44 <arch_irq_enable>
10002ab2:	bd10      	pop	{r4, pc}

10002ab4 <uart_rpi_configure>:
{
10002ab4:	b570      	push	{r4, r5, r6, lr}
	uart_inst_t * const uart_inst = config->uart_dev;
10002ab6:	6843      	ldr	r3, [r0, #4]
{
10002ab8:	0006      	movs	r6, r0
10002aba:	000c      	movs	r4, r1
	struct uart_rpi_data *data = dev->data;
10002abc:	6905      	ldr	r5, [r0, #16]
	baudrate = uart_set_baudrate(uart_inst, cfg->baudrate);
10002abe:	6809      	ldr	r1, [r1, #0]
10002ac0:	6818      	ldr	r0, [r3, #0]
10002ac2:	f7fe feb5 	bl	10001830 <uart_set_baudrate>
	if (baudrate == 0) {
10002ac6:	2800      	cmp	r0, #0
10002ac8:	d102      	bne.n	10002ad0 <uart_rpi_configure+0x1c>
		return -EINVAL;
10002aca:	2016      	movs	r0, #22
10002acc:	4240      	negs	r0, r0
}
10002ace:	bd70      	pop	{r4, r5, r6, pc}
	if (uart_rpi_set_format(dev, cfg) != 0) {
10002ad0:	79a3      	ldrb	r3, [r4, #6]
10002ad2:	7962      	ldrb	r2, [r4, #5]
10002ad4:	7921      	ldrb	r1, [r4, #4]
10002ad6:	6870      	ldr	r0, [r6, #4]
10002ad8:	f7fe fb4c 	bl	10001174 <uart_rpi_set_format.isra.0>
10002adc:	2800      	cmp	r0, #0
10002ade:	d1f4      	bne.n	10002aca <uart_rpi_configure+0x16>
	data->uart_config = *cfg;
10002ae0:	cc06      	ldmia	r4!, {r1, r2}
10002ae2:	c506      	stmia	r5!, {r1, r2}
	return 0;
10002ae4:	e7f3      	b.n	10002ace <uart_rpi_configure+0x1a>

10002ae6 <gpio_init>:

void gpio_init(uint gpio) {
    sio_hw->gpio_oe_clr = 1ul << gpio;
10002ae6:	2301      	movs	r3, #1
10002ae8:	22d0      	movs	r2, #208	; 0xd0
10002aea:	4083      	lsls	r3, r0
void gpio_init(uint gpio) {
10002aec:	b510      	push	{r4, lr}
    sio_hw->gpio_oe_clr = 1ul << gpio;
10002aee:	0612      	lsls	r2, r2, #24
10002af0:	6293      	str	r3, [r2, #40]	; 0x28
    sio_hw->gpio_clr = 1ul << gpio;
    gpio_set_function(gpio, GPIO_FUNC_SIO);
10002af2:	2105      	movs	r1, #5
    sio_hw->gpio_clr = 1ul << gpio;
10002af4:	6193      	str	r3, [r2, #24]
    gpio_set_function(gpio, GPIO_FUNC_SIO);
10002af6:	f7fe fe0b 	bl	10001710 <gpio_set_function>
}
10002afa:	bd10      	pop	{r4, pc}

10002afc <z_device_state_init>:

	while (dev < __device_end) {
		z_object_init(dev);
		++dev;
	}
}
10002afc:	4770      	bx	lr

10002afe <z_device_is_ready>:
{
	/*
	 * if an invalid device pointer is passed as argument, this call
	 * reports the `device` as not ready for usage.
	 */
	if (dev == NULL) {
10002afe:	2800      	cmp	r0, #0
10002b00:	d009      	beq.n	10002b16 <z_device_is_ready+0x18>
		return false;
	}

	return dev->state->initialized && (dev->state->init_res == 0U);
10002b02:	2301      	movs	r3, #1
10002b04:	68c2      	ldr	r2, [r0, #12]
10002b06:	2000      	movs	r0, #0
10002b08:	7851      	ldrb	r1, [r2, #1]
10002b0a:	4219      	tst	r1, r3
10002b0c:	d002      	beq.n	10002b14 <z_device_is_ready+0x16>
10002b0e:	7810      	ldrb	r0, [r2, #0]
10002b10:	4242      	negs	r2, r0
10002b12:	4150      	adcs	r0, r2
10002b14:	4018      	ands	r0, r3
}
10002b16:	4770      	bx	lr

10002b18 <arch_system_halt>:
	__asm__ volatile("mrs %0, PRIMASK;"
10002b18:	f3ef 8310 	mrs	r3, PRIMASK
10002b1c:	b672      	cpsid	i
	/* TODO: What's the best way to totally halt the system if SMP
	 * is enabled?
	 */

	(void)arch_irq_lock();
	for (;;) {
10002b1e:	e7fe      	b.n	10002b1e <arch_system_halt+0x6>

10002b20 <k_sys_fatal_error_handler>:
/* LCOV_EXCL_STOP */

/* LCOV_EXCL_START */
__weak void k_sys_fatal_error_handler(unsigned int reason,
				      const z_arch_esf_t *esf)
{
10002b20:	b510      	push	{r4, lr}
	ARG_UNUSED(esf);

	LOG_PANIC();
	LOG_ERR("Halting system");
	arch_system_halt(reason);
10002b22:	f7ff fff9 	bl	10002b18 <arch_system_halt>

10002b26 <z_fatal_error>:
	return 0;
#endif
}

void z_fatal_error(unsigned int reason, const z_arch_esf_t *esf)
{
10002b26:	b5f8      	push	{r3, r4, r5, r6, r7, lr}
10002b28:	0005      	movs	r5, r0
10002b2a:	000e      	movs	r6, r1
10002b2c:	f3ef 8710 	mrs	r7, PRIMASK
10002b30:	b672      	cpsid	i
	return z_impl_z_current_get();
10002b32:	f7ff fa95 	bl	10002060 <z_impl_z_current_get>

#ifndef CONFIG_XTENSA
	coredump(reason, esf, thread);
#endif

	k_sys_fatal_error_handler(reason, esf);
10002b36:	0031      	movs	r1, r6
10002b38:	0004      	movs	r4, r0
10002b3a:	0028      	movs	r0, r5
10002b3c:	f7ff fff0 	bl	10002b20 <k_sys_fatal_error_handler>
	if (key != 0U) {
10002b40:	2f00      	cmp	r7, #0
10002b42:	d102      	bne.n	10002b4a <z_fatal_error+0x24>
	__asm__ volatile(
10002b44:	b662      	cpsie	i
10002b46:	f3bf 8f6f 	isb	sy
	z_impl_k_thread_abort(thread);
10002b4a:	0020      	movs	r0, r4
10002b4c:	f7fe fa60 	bl	10001010 <z_impl_k_thread_abort>
	arch_irq_unlock(key);

	if (IS_ENABLED(CONFIG_MULTITHREADING)) {
		k_thread_abort(thread);
	}
}
10002b50:	bdf8      	pop	{r3, r4, r5, r6, r7, pc}

10002b52 <z_early_memset>:
{
10002b52:	b510      	push	{r4, lr}
	(void) memset(dst, c, n);
10002b54:	f7ff fd0b 	bl	1000256e <memset>
}
10002b58:	bd10      	pop	{r4, pc}

10002b5a <z_early_memcpy>:
{
10002b5a:	b510      	push	{r4, lr}
	(void) memcpy(dst, src, n);
10002b5c:	f7ff fcfe 	bl	1000255c <memcpy>
}
10002b60:	bd10      	pop	{r4, pc}

10002b62 <idle>:
#endif	/* CONFIG_PM */
	sys_clock_idle_exit();
}

void idle(void *unused1, void *unused2, void *unused3)
{
10002b62:	b510      	push	{r4, lr}
	__asm__ volatile("mrs %0, PRIMASK;"
10002b64:	f3ef 8310 	mrs	r3, PRIMASK
10002b68:	b672      	cpsid	i
 * @note In some architectures, before returning, the function unmasks interrupts
 * unconditionally.
 */
static inline void k_cpu_idle(void)
{
	arch_cpu_idle();
10002b6a:	f7fe f8e3 	bl	10000d34 <arch_cpu_idle>
10002b6e:	e7f9      	b.n	10002b64 <idle+0x2>

10002b70 <sys_dlist_remove>:
	sys_dnode_t *const next = node->next;
10002b70:	6803      	ldr	r3, [r0, #0]
	sys_dnode_t *const prev = node->prev;
10002b72:	6842      	ldr	r2, [r0, #4]
	prev->next = next;
10002b74:	6013      	str	r3, [r2, #0]
	next->prev = prev;
10002b76:	605a      	str	r2, [r3, #4]
	node->next = NULL;
10002b78:	2300      	movs	r3, #0
10002b7a:	6003      	str	r3, [r0, #0]
	node->prev = NULL;
10002b7c:	6043      	str	r3, [r0, #4]
	sys_dnode_init(node);
}
10002b7e:	4770      	bx	lr

10002b80 <unpend_thread_no_timeout>:
{
10002b80:	b510      	push	{r4, lr}
10002b82:	0004      	movs	r4, r0
	sys_dlist_remove(&thread->base.qnode_dlist);
10002b84:	f7ff fff4 	bl	10002b70 <sys_dlist_remove>
	thread->base.thread_state &= ~_THREAD_PENDING;
10002b88:	2202      	movs	r2, #2
10002b8a:	7b63      	ldrb	r3, [r4, #13]
10002b8c:	4393      	bics	r3, r2
10002b8e:	7363      	strb	r3, [r4, #13]
	thread->base.pended_on = NULL;
10002b90:	2300      	movs	r3, #0
10002b92:	60a3      	str	r3, [r4, #8]
}
10002b94:	bd10      	pop	{r4, pc}

10002b96 <z_ready_thread>:
{
10002b96:	b510      	push	{r4, lr}
10002b98:	f3ef 8410 	mrs	r4, PRIMASK
10002b9c:	b672      	cpsid	i
			ready_thread(thread);
10002b9e:	f7ff f8c1 	bl	10001d24 <ready_thread>
	if (key != 0U) {
10002ba2:	2c00      	cmp	r4, #0
10002ba4:	d102      	bne.n	10002bac <z_ready_thread+0x16>
	__asm__ volatile(
10002ba6:	b662      	cpsie	i
10002ba8:	f3bf 8f6f 	isb	sy
}
10002bac:	bd10      	pop	{r4, pc}

10002bae <z_sched_wake_thread>:
{
10002bae:	b570      	push	{r4, r5, r6, lr}
10002bb0:	0004      	movs	r4, r0
10002bb2:	000e      	movs	r6, r1
	__asm__ volatile("mrs %0, PRIMASK;"
10002bb4:	f3ef 8510 	mrs	r5, PRIMASK
10002bb8:	b672      	cpsid	i
		if (!killed) {
10002bba:	2328      	movs	r3, #40	; 0x28
10002bbc:	7b42      	ldrb	r2, [r0, #13]
10002bbe:	421a      	tst	r2, r3
10002bc0:	d10e      	bne.n	10002be0 <z_sched_wake_thread+0x32>
			if (thread->base.pended_on != NULL) {
10002bc2:	6883      	ldr	r3, [r0, #8]
10002bc4:	2b00      	cmp	r3, #0
10002bc6:	d001      	beq.n	10002bcc <z_sched_wake_thread+0x1e>
				unpend_thread_no_timeout(thread);
10002bc8:	f7ff ffda 	bl	10002b80 <unpend_thread_no_timeout>
	thread->base.thread_state &= ~_THREAD_PRESTART;
10002bcc:	2204      	movs	r2, #4
10002bce:	7b63      	ldrb	r3, [r4, #13]
			if (is_timeout) {
10002bd0:	2e00      	cmp	r6, #0
10002bd2:	d000      	beq.n	10002bd6 <z_sched_wake_thread+0x28>
	thread->base.thread_state &= ~_THREAD_SUSPENDED;
10002bd4:	2214      	movs	r2, #20
10002bd6:	4393      	bics	r3, r2
			ready_thread(thread);
10002bd8:	0020      	movs	r0, r4
	thread->base.thread_state &= ~_THREAD_PRESTART;
10002bda:	7363      	strb	r3, [r4, #13]
10002bdc:	f7ff f8a2 	bl	10001d24 <ready_thread>
	if (key != 0U) {
10002be0:	2d00      	cmp	r5, #0
10002be2:	d102      	bne.n	10002bea <z_sched_wake_thread+0x3c>
	__asm__ volatile(
10002be4:	b662      	cpsie	i
10002be6:	f3bf 8f6f 	isb	sy
}
10002bea:	bd70      	pop	{r4, r5, r6, pc}

10002bec <z_thread_timeout>:
{
10002bec:	b510      	push	{r4, lr}
	z_sched_wake_thread(thread, true);
10002bee:	2101      	movs	r1, #1
	struct k_thread *thread = CONTAINER_OF(timeout,
10002bf0:	3818      	subs	r0, #24
	z_sched_wake_thread(thread, true);
10002bf2:	f7ff ffdc 	bl	10002bae <z_sched_wake_thread>
}
10002bf6:	bd10      	pop	{r4, pc}

10002bf8 <z_reschedule_irqlock>:
{
10002bf8:	b510      	push	{r4, lr}
	return arch_irq_unlocked(key) && !arch_is_in_isr();
10002bfa:	2800      	cmp	r0, #0
10002bfc:	d105      	bne.n	10002c0a <z_reschedule_irqlock+0x12>
10002bfe:	f3ef 8005 	mrs	r0, IPSR
10002c02:	2800      	cmp	r0, #0
10002c04:	d102      	bne.n	10002c0c <z_reschedule_irqlock+0x14>
	ret = arch_swap(key);
10002c06:	f7fe f8eb 	bl	10000de0 <arch_swap>
}
10002c0a:	bd10      	pop	{r4, pc}
10002c0c:	b662      	cpsie	i
10002c0e:	f3bf 8f6f 	isb	sy
10002c12:	e7fa      	b.n	10002c0a <z_reschedule_irqlock+0x12>

10002c14 <z_reschedule_unlocked>:
{
10002c14:	b510      	push	{r4, lr}
	__asm__ volatile("mrs %0, PRIMASK;"
10002c16:	f3ef 8010 	mrs	r0, PRIMASK
10002c1a:	b672      	cpsid	i
	(void) z_reschedule_irqlock(arch_irq_lock());
10002c1c:	f7ff ffec 	bl	10002bf8 <z_reschedule_irqlock>
}
10002c20:	bd10      	pop	{r4, pc}

10002c22 <z_abort_timeout>:
{
10002c22:	b510      	push	{r4, lr}
10002c24:	f3ef 8410 	mrs	r4, PRIMASK
10002c28:	b672      	cpsid	i
		if (sys_dnode_is_linked(&to->node)) {
10002c2a:	6803      	ldr	r3, [r0, #0]
10002c2c:	2b00      	cmp	r3, #0
10002c2e:	d008      	beq.n	10002c42 <z_abort_timeout+0x20>
			remove_timeout(to);
10002c30:	f7ff fac0 	bl	100021b4 <remove_timeout>
			ret = 0;
10002c34:	2000      	movs	r0, #0
	if (key != 0U) {
10002c36:	2c00      	cmp	r4, #0
10002c38:	d102      	bne.n	10002c40 <z_abort_timeout+0x1e>
	__asm__ volatile(
10002c3a:	b662      	cpsie	i
10002c3c:	f3bf 8f6f 	isb	sy
}
10002c40:	bd10      	pop	{r4, pc}
	int ret = -EINVAL;
10002c42:	2016      	movs	r0, #22
10002c44:	4240      	negs	r0, r0
10002c46:	e7f6      	b.n	10002c36 <z_abort_timeout+0x14>

10002c48 <sys_clock_tick_get_32>:

uint32_t sys_clock_tick_get_32(void)
{
10002c48:	b510      	push	{r4, lr}
#ifdef CONFIG_TICKLESS_KERNEL
	return (uint32_t)sys_clock_tick_get();
10002c4a:	f7ff fbab 	bl	100023a4 <sys_clock_tick_get>
#else
	return (uint32_t)curr_tick;
#endif
}
10002c4e:	bd10      	pop	{r4, pc}
