
zephyr.elf:     file format elf32-littlearm


Disassembly of section .boot2:

10000000 <.boot2>:
10000000:	4b32b500 	.word	0x4b32b500
10000004:	60582021 	.word	0x60582021
10000008:	21026898 	.word	0x21026898
1000000c:	60984388 	.word	0x60984388
10000010:	611860d8 	.word	0x611860d8
10000014:	4b2e6158 	.word	0x4b2e6158
10000018:	60992100 	.word	0x60992100
1000001c:	61592104 	.word	0x61592104
10000020:	22f02101 	.word	0x22f02101
10000024:	492b5099 	.word	0x492b5099
10000028:	21016019 	.word	0x21016019
1000002c:	20356099 	.word	0x20356099
10000030:	f844f000 	.word	0xf844f000
10000034:	42902202 	.word	0x42902202
10000038:	2106d014 	.word	0x2106d014
1000003c:	f0006619 	.word	0xf0006619
10000040:	6e19f834 	.word	0x6e19f834
10000044:	66192101 	.word	0x66192101
10000048:	66182000 	.word	0x66182000
1000004c:	f000661a 	.word	0xf000661a
10000050:	6e19f82c 	.word	0x6e19f82c
10000054:	6e196e19 	.word	0x6e196e19
10000058:	f0002005 	.word	0xf0002005
1000005c:	2101f82f 	.word	0x2101f82f
10000060:	d1f94208 	.word	0xd1f94208
10000064:	60992100 	.word	0x60992100
10000068:	6019491b 	.word	0x6019491b
1000006c:	60592100 	.word	0x60592100
10000070:	481b491a 	.word	0x481b491a
10000074:	21016001 	.word	0x21016001
10000078:	21eb6099 	.word	0x21eb6099
1000007c:	21a06619 	.word	0x21a06619
10000080:	f0006619 	.word	0xf0006619
10000084:	2100f812 	.word	0x2100f812
10000088:	49166099 	.word	0x49166099
1000008c:	60014814 	.word	0x60014814
10000090:	60992101 	.word	0x60992101
10000094:	2800bc01 	.word	0x2800bc01
10000098:	4700d000 	.word	0x4700d000
1000009c:	49134812 	.word	0x49134812
100000a0:	c8036008 	.word	0xc8036008
100000a4:	8808f380 	.word	0x8808f380
100000a8:	b5034708 	.word	0xb5034708
100000ac:	20046a99 	.word	0x20046a99
100000b0:	d0fb4201 	.word	0xd0fb4201
100000b4:	42012001 	.word	0x42012001
100000b8:	bd03d1f8 	.word	0xbd03d1f8
100000bc:	6618b502 	.word	0x6618b502
100000c0:	f7ff6618 	.word	0xf7ff6618
100000c4:	6e18fff2 	.word	0x6e18fff2
100000c8:	bd026e18 	.word	0xbd026e18
100000cc:	40020000 	.word	0x40020000
100000d0:	18000000 	.word	0x18000000
100000d4:	00070000 	.word	0x00070000
100000d8:	005f0300 	.word	0x005f0300
100000dc:	00002221 	.word	0x00002221
100000e0:	180000f4 	.word	0x180000f4
100000e4:	a0002022 	.word	0xa0002022
100000e8:	10000100 	.word	0x10000100
100000ec:	e000ed08 	.word	0xe000ed08
	...
100000fc:	d58f0b07 	.word	0xd58f0b07

Disassembly of section rom_start:

10000100 <_vector_table>:
10000100:	20000fa0 10003a41 1000597f 100039fd     ... A:...Y...9..
	...
1000012c:	10003839 00000000 00000000 100037d9     98...........7..
1000013c:	1000428d                                .B..

10000140 <_irq_vector_table>:
10000140:	100038a9 100038a9 100038a9 100038a9     .8...8...8...8..
10000150:	100038a9 100038a9 100038a9 100038a9     .8...8...8...8..
10000160:	100038a9 100038a9 100038a9 100038a9     .8...8...8...8..
10000170:	100038a9 100038a9 100038a9 100038a9     .8...8...8...8..
10000180:	100038a9 100038a9 100038a9 100038a9     .8...8...8...8..
10000190:	100038a9 100038a9 100038a9 100038a9     .8...8...8...8..
100001a0:	100038a9 100038a9                       .8...8..

Disassembly of section text:

100001a8 <__gnu_thumb1_case_uqi>:
100001a8:	b402      	push	{r1}
100001aa:	4671      	mov	r1, lr
100001ac:	0849      	lsrs	r1, r1, #1
100001ae:	0049      	lsls	r1, r1, #1
100001b0:	5c09      	ldrb	r1, [r1, r0]
100001b2:	0049      	lsls	r1, r1, #1
100001b4:	448e      	add	lr, r1
100001b6:	bc02      	pop	{r1}
100001b8:	4770      	bx	lr
100001ba:	46c0      	nop			; (mov r8, r8)

100001bc <__gnu_thumb1_case_shi>:
100001bc:	b403      	push	{r0, r1}
100001be:	4671      	mov	r1, lr
100001c0:	0849      	lsrs	r1, r1, #1
100001c2:	0040      	lsls	r0, r0, #1
100001c4:	0049      	lsls	r1, r1, #1
100001c6:	5e09      	ldrsh	r1, [r1, r0]
100001c8:	0049      	lsls	r1, r1, #1
100001ca:	448e      	add	lr, r1
100001cc:	bc03      	pop	{r0, r1}
100001ce:	4770      	bx	lr

100001d0 <__udivsi3>:
100001d0:	2900      	cmp	r1, #0
100001d2:	d034      	beq.n	1000023e <.udivsi3_skip_div0_test+0x6a>

100001d4 <.udivsi3_skip_div0_test>:
100001d4:	2301      	movs	r3, #1
100001d6:	2200      	movs	r2, #0
100001d8:	b410      	push	{r4}
100001da:	4288      	cmp	r0, r1
100001dc:	d32c      	bcc.n	10000238 <.udivsi3_skip_div0_test+0x64>
100001de:	2401      	movs	r4, #1
100001e0:	0724      	lsls	r4, r4, #28
100001e2:	42a1      	cmp	r1, r4
100001e4:	d204      	bcs.n	100001f0 <.udivsi3_skip_div0_test+0x1c>
100001e6:	4281      	cmp	r1, r0
100001e8:	d202      	bcs.n	100001f0 <.udivsi3_skip_div0_test+0x1c>
100001ea:	0109      	lsls	r1, r1, #4
100001ec:	011b      	lsls	r3, r3, #4
100001ee:	e7f8      	b.n	100001e2 <.udivsi3_skip_div0_test+0xe>
100001f0:	00e4      	lsls	r4, r4, #3
100001f2:	42a1      	cmp	r1, r4
100001f4:	d204      	bcs.n	10000200 <.udivsi3_skip_div0_test+0x2c>
100001f6:	4281      	cmp	r1, r0
100001f8:	d202      	bcs.n	10000200 <.udivsi3_skip_div0_test+0x2c>
100001fa:	0049      	lsls	r1, r1, #1
100001fc:	005b      	lsls	r3, r3, #1
100001fe:	e7f8      	b.n	100001f2 <.udivsi3_skip_div0_test+0x1e>
10000200:	4288      	cmp	r0, r1
10000202:	d301      	bcc.n	10000208 <.udivsi3_skip_div0_test+0x34>
10000204:	1a40      	subs	r0, r0, r1
10000206:	431a      	orrs	r2, r3
10000208:	084c      	lsrs	r4, r1, #1
1000020a:	42a0      	cmp	r0, r4
1000020c:	d302      	bcc.n	10000214 <.udivsi3_skip_div0_test+0x40>
1000020e:	1b00      	subs	r0, r0, r4
10000210:	085c      	lsrs	r4, r3, #1
10000212:	4322      	orrs	r2, r4
10000214:	088c      	lsrs	r4, r1, #2
10000216:	42a0      	cmp	r0, r4
10000218:	d302      	bcc.n	10000220 <.udivsi3_skip_div0_test+0x4c>
1000021a:	1b00      	subs	r0, r0, r4
1000021c:	089c      	lsrs	r4, r3, #2
1000021e:	4322      	orrs	r2, r4
10000220:	08cc      	lsrs	r4, r1, #3
10000222:	42a0      	cmp	r0, r4
10000224:	d302      	bcc.n	1000022c <.udivsi3_skip_div0_test+0x58>
10000226:	1b00      	subs	r0, r0, r4
10000228:	08dc      	lsrs	r4, r3, #3
1000022a:	4322      	orrs	r2, r4
1000022c:	2800      	cmp	r0, #0
1000022e:	d003      	beq.n	10000238 <.udivsi3_skip_div0_test+0x64>
10000230:	091b      	lsrs	r3, r3, #4
10000232:	d001      	beq.n	10000238 <.udivsi3_skip_div0_test+0x64>
10000234:	0909      	lsrs	r1, r1, #4
10000236:	e7e3      	b.n	10000200 <.udivsi3_skip_div0_test+0x2c>
10000238:	0010      	movs	r0, r2
1000023a:	bc10      	pop	{r4}
1000023c:	4770      	bx	lr
1000023e:	b501      	push	{r0, lr}
10000240:	2000      	movs	r0, #0
10000242:	f000 f85f 	bl	10000304 <__aeabi_idiv0>
10000246:	bd02      	pop	{r1, pc}

10000248 <__aeabi_uidivmod>:
10000248:	2900      	cmp	r1, #0
1000024a:	d0f8      	beq.n	1000023e <.udivsi3_skip_div0_test+0x6a>
1000024c:	b503      	push	{r0, r1, lr}
1000024e:	f7ff ffc1 	bl	100001d4 <.udivsi3_skip_div0_test>
10000252:	bc0e      	pop	{r1, r2, r3}
10000254:	4342      	muls	r2, r0
10000256:	1a89      	subs	r1, r1, r2
10000258:	4718      	bx	r3
1000025a:	46c0      	nop			; (mov r8, r8)

1000025c <__divsi3>:
1000025c:	2900      	cmp	r1, #0
1000025e:	d041      	beq.n	100002e4 <.divsi3_skip_div0_test+0x84>

10000260 <.divsi3_skip_div0_test>:
10000260:	b410      	push	{r4}
10000262:	0004      	movs	r4, r0
10000264:	404c      	eors	r4, r1
10000266:	46a4      	mov	ip, r4
10000268:	2301      	movs	r3, #1
1000026a:	2200      	movs	r2, #0
1000026c:	2900      	cmp	r1, #0
1000026e:	d500      	bpl.n	10000272 <.divsi3_skip_div0_test+0x12>
10000270:	4249      	negs	r1, r1
10000272:	2800      	cmp	r0, #0
10000274:	d500      	bpl.n	10000278 <.divsi3_skip_div0_test+0x18>
10000276:	4240      	negs	r0, r0
10000278:	4288      	cmp	r0, r1
1000027a:	d32c      	bcc.n	100002d6 <.divsi3_skip_div0_test+0x76>
1000027c:	2401      	movs	r4, #1
1000027e:	0724      	lsls	r4, r4, #28
10000280:	42a1      	cmp	r1, r4
10000282:	d204      	bcs.n	1000028e <.divsi3_skip_div0_test+0x2e>
10000284:	4281      	cmp	r1, r0
10000286:	d202      	bcs.n	1000028e <.divsi3_skip_div0_test+0x2e>
10000288:	0109      	lsls	r1, r1, #4
1000028a:	011b      	lsls	r3, r3, #4
1000028c:	e7f8      	b.n	10000280 <.divsi3_skip_div0_test+0x20>
1000028e:	00e4      	lsls	r4, r4, #3
10000290:	42a1      	cmp	r1, r4
10000292:	d204      	bcs.n	1000029e <.divsi3_skip_div0_test+0x3e>
10000294:	4281      	cmp	r1, r0
10000296:	d202      	bcs.n	1000029e <.divsi3_skip_div0_test+0x3e>
10000298:	0049      	lsls	r1, r1, #1
1000029a:	005b      	lsls	r3, r3, #1
1000029c:	e7f8      	b.n	10000290 <.divsi3_skip_div0_test+0x30>
1000029e:	4288      	cmp	r0, r1
100002a0:	d301      	bcc.n	100002a6 <.divsi3_skip_div0_test+0x46>
100002a2:	1a40      	subs	r0, r0, r1
100002a4:	431a      	orrs	r2, r3
100002a6:	084c      	lsrs	r4, r1, #1
100002a8:	42a0      	cmp	r0, r4
100002aa:	d302      	bcc.n	100002b2 <.divsi3_skip_div0_test+0x52>
100002ac:	1b00      	subs	r0, r0, r4
100002ae:	085c      	lsrs	r4, r3, #1
100002b0:	4322      	orrs	r2, r4
100002b2:	088c      	lsrs	r4, r1, #2
100002b4:	42a0      	cmp	r0, r4
100002b6:	d302      	bcc.n	100002be <.divsi3_skip_div0_test+0x5e>
100002b8:	1b00      	subs	r0, r0, r4
100002ba:	089c      	lsrs	r4, r3, #2
100002bc:	4322      	orrs	r2, r4
100002be:	08cc      	lsrs	r4, r1, #3
100002c0:	42a0      	cmp	r0, r4
100002c2:	d302      	bcc.n	100002ca <.divsi3_skip_div0_test+0x6a>
100002c4:	1b00      	subs	r0, r0, r4
100002c6:	08dc      	lsrs	r4, r3, #3
100002c8:	4322      	orrs	r2, r4
100002ca:	2800      	cmp	r0, #0
100002cc:	d003      	beq.n	100002d6 <.divsi3_skip_div0_test+0x76>
100002ce:	091b      	lsrs	r3, r3, #4
100002d0:	d001      	beq.n	100002d6 <.divsi3_skip_div0_test+0x76>
100002d2:	0909      	lsrs	r1, r1, #4
100002d4:	e7e3      	b.n	1000029e <.divsi3_skip_div0_test+0x3e>
100002d6:	0010      	movs	r0, r2
100002d8:	4664      	mov	r4, ip
100002da:	2c00      	cmp	r4, #0
100002dc:	d500      	bpl.n	100002e0 <.divsi3_skip_div0_test+0x80>
100002de:	4240      	negs	r0, r0
100002e0:	bc10      	pop	{r4}
100002e2:	4770      	bx	lr
100002e4:	b501      	push	{r0, lr}
100002e6:	2000      	movs	r0, #0
100002e8:	f000 f80c 	bl	10000304 <__aeabi_idiv0>
100002ec:	bd02      	pop	{r1, pc}
100002ee:	46c0      	nop			; (mov r8, r8)

100002f0 <__aeabi_idivmod>:
100002f0:	2900      	cmp	r1, #0
100002f2:	d0f7      	beq.n	100002e4 <.divsi3_skip_div0_test+0x84>
100002f4:	b503      	push	{r0, r1, lr}
100002f6:	f7ff ffb3 	bl	10000260 <.divsi3_skip_div0_test>
100002fa:	bc0e      	pop	{r1, r2, r3}
100002fc:	4342      	muls	r2, r0
100002fe:	1a89      	subs	r1, r1, r2
10000300:	4718      	bx	r3
10000302:	46c0      	nop			; (mov r8, r8)

10000304 <__aeabi_idiv0>:
10000304:	4770      	bx	lr
10000306:	46c0      	nop			; (mov r8, r8)

10000308 <__aeabi_cdrcmple>:
10000308:	4684      	mov	ip, r0
1000030a:	0010      	movs	r0, r2
1000030c:	4662      	mov	r2, ip
1000030e:	468c      	mov	ip, r1
10000310:	0019      	movs	r1, r3
10000312:	4663      	mov	r3, ip
10000314:	e000      	b.n	10000318 <__aeabi_cdcmpeq>
10000316:	46c0      	nop			; (mov r8, r8)

10000318 <__aeabi_cdcmpeq>:
10000318:	b51f      	push	{r0, r1, r2, r3, r4, lr}
1000031a:	f000 ffff 	bl	1000131c <__ledf2>
1000031e:	2800      	cmp	r0, #0
10000320:	d401      	bmi.n	10000326 <__aeabi_cdcmpeq+0xe>
10000322:	2100      	movs	r1, #0
10000324:	42c8      	cmn	r0, r1
10000326:	bd1f      	pop	{r0, r1, r2, r3, r4, pc}

10000328 <__aeabi_dcmpeq>:
10000328:	b510      	push	{r4, lr}
1000032a:	f000 ff3f 	bl	100011ac <__eqdf2>
1000032e:	4240      	negs	r0, r0
10000330:	3001      	adds	r0, #1
10000332:	bd10      	pop	{r4, pc}

10000334 <__aeabi_dcmplt>:
10000334:	b510      	push	{r4, lr}
10000336:	f000 fff1 	bl	1000131c <__ledf2>
1000033a:	2800      	cmp	r0, #0
1000033c:	db01      	blt.n	10000342 <__aeabi_dcmplt+0xe>
1000033e:	2000      	movs	r0, #0
10000340:	bd10      	pop	{r4, pc}
10000342:	2001      	movs	r0, #1
10000344:	bd10      	pop	{r4, pc}
10000346:	46c0      	nop			; (mov r8, r8)

10000348 <__aeabi_dcmple>:
10000348:	b510      	push	{r4, lr}
1000034a:	f000 ffe7 	bl	1000131c <__ledf2>
1000034e:	2800      	cmp	r0, #0
10000350:	dd01      	ble.n	10000356 <__aeabi_dcmple+0xe>
10000352:	2000      	movs	r0, #0
10000354:	bd10      	pop	{r4, pc}
10000356:	2001      	movs	r0, #1
10000358:	bd10      	pop	{r4, pc}
1000035a:	46c0      	nop			; (mov r8, r8)

1000035c <__aeabi_dcmpgt>:
1000035c:	b510      	push	{r4, lr}
1000035e:	f000 ff67 	bl	10001230 <__gedf2>
10000362:	2800      	cmp	r0, #0
10000364:	dc01      	bgt.n	1000036a <__aeabi_dcmpgt+0xe>
10000366:	2000      	movs	r0, #0
10000368:	bd10      	pop	{r4, pc}
1000036a:	2001      	movs	r0, #1
1000036c:	bd10      	pop	{r4, pc}
1000036e:	46c0      	nop			; (mov r8, r8)

10000370 <__aeabi_dcmpge>:
10000370:	b510      	push	{r4, lr}
10000372:	f000 ff5d 	bl	10001230 <__gedf2>
10000376:	2800      	cmp	r0, #0
10000378:	da01      	bge.n	1000037e <__aeabi_dcmpge+0xe>
1000037a:	2000      	movs	r0, #0
1000037c:	bd10      	pop	{r4, pc}
1000037e:	2001      	movs	r0, #1
10000380:	bd10      	pop	{r4, pc}
10000382:	46c0      	nop			; (mov r8, r8)

10000384 <__clzsi2>:
10000384:	211c      	movs	r1, #28
10000386:	2301      	movs	r3, #1
10000388:	041b      	lsls	r3, r3, #16
1000038a:	4298      	cmp	r0, r3
1000038c:	d301      	bcc.n	10000392 <__clzsi2+0xe>
1000038e:	0c00      	lsrs	r0, r0, #16
10000390:	3910      	subs	r1, #16
10000392:	0a1b      	lsrs	r3, r3, #8
10000394:	4298      	cmp	r0, r3
10000396:	d301      	bcc.n	1000039c <__clzsi2+0x18>
10000398:	0a00      	lsrs	r0, r0, #8
1000039a:	3908      	subs	r1, #8
1000039c:	091b      	lsrs	r3, r3, #4
1000039e:	4298      	cmp	r0, r3
100003a0:	d301      	bcc.n	100003a6 <__clzsi2+0x22>
100003a2:	0900      	lsrs	r0, r0, #4
100003a4:	3904      	subs	r1, #4
100003a6:	a202      	add	r2, pc, #8	; (adr r2, 100003b0 <__clzsi2+0x2c>)
100003a8:	5c10      	ldrb	r0, [r2, r0]
100003aa:	1840      	adds	r0, r0, r1
100003ac:	4770      	bx	lr
100003ae:	46c0      	nop			; (mov r8, r8)
100003b0:	02020304 	.word	0x02020304
100003b4:	01010101 	.word	0x01010101
	...

100003c0 <__ctzsi2>:
100003c0:	4241      	negs	r1, r0
100003c2:	4008      	ands	r0, r1
100003c4:	211c      	movs	r1, #28
100003c6:	2301      	movs	r3, #1
100003c8:	041b      	lsls	r3, r3, #16
100003ca:	4298      	cmp	r0, r3
100003cc:	d301      	bcc.n	100003d2 <__ctzsi2+0x12>
100003ce:	0c00      	lsrs	r0, r0, #16
100003d0:	3910      	subs	r1, #16
100003d2:	0a1b      	lsrs	r3, r3, #8
100003d4:	4298      	cmp	r0, r3
100003d6:	d301      	bcc.n	100003dc <__ctzsi2+0x1c>
100003d8:	0a00      	lsrs	r0, r0, #8
100003da:	3908      	subs	r1, #8
100003dc:	091b      	lsrs	r3, r3, #4
100003de:	4298      	cmp	r0, r3
100003e0:	d301      	bcc.n	100003e6 <__ctzsi2+0x26>
100003e2:	0900      	lsrs	r0, r0, #4
100003e4:	3904      	subs	r1, #4
100003e6:	a202      	add	r2, pc, #8	; (adr r2, 100003f0 <__ctzsi2+0x30>)
100003e8:	5c10      	ldrb	r0, [r2, r0]
100003ea:	1a40      	subs	r0, r0, r1
100003ec:	4770      	bx	lr
100003ee:	46c0      	nop			; (mov r8, r8)
100003f0:	1d1d1c1b 	.word	0x1d1d1c1b
100003f4:	1e1e1e1e 	.word	0x1e1e1e1e
100003f8:	1f1f1f1f 	.word	0x1f1f1f1f
100003fc:	1f1f1f1f 	.word	0x1f1f1f1f

10000400 <__aeabi_uldivmod>:
10000400:	2b00      	cmp	r3, #0
10000402:	d111      	bne.n	10000428 <__aeabi_uldivmod+0x28>
10000404:	2a00      	cmp	r2, #0
10000406:	d10f      	bne.n	10000428 <__aeabi_uldivmod+0x28>
10000408:	2900      	cmp	r1, #0
1000040a:	d100      	bne.n	1000040e <__aeabi_uldivmod+0xe>
1000040c:	2800      	cmp	r0, #0
1000040e:	d002      	beq.n	10000416 <__aeabi_uldivmod+0x16>
10000410:	2100      	movs	r1, #0
10000412:	43c9      	mvns	r1, r1
10000414:	0008      	movs	r0, r1
10000416:	b407      	push	{r0, r1, r2}
10000418:	4802      	ldr	r0, [pc, #8]	; (10000424 <__aeabi_uldivmod+0x24>)
1000041a:	a102      	add	r1, pc, #8	; (adr r1, 10000424 <__aeabi_uldivmod+0x24>)
1000041c:	1840      	adds	r0, r0, r1
1000041e:	9002      	str	r0, [sp, #8]
10000420:	bd03      	pop	{r0, r1, pc}
10000422:	46c0      	nop			; (mov r8, r8)
10000424:	fffffee1 	.word	0xfffffee1
10000428:	b403      	push	{r0, r1}
1000042a:	4668      	mov	r0, sp
1000042c:	b501      	push	{r0, lr}
1000042e:	9802      	ldr	r0, [sp, #8]
10000430:	f001 feb3 	bl	1000219a <__udivmoddi4>
10000434:	9b01      	ldr	r3, [sp, #4]
10000436:	469e      	mov	lr, r3
10000438:	b002      	add	sp, #8
1000043a:	bc0c      	pop	{r2, r3}
1000043c:	4770      	bx	lr
1000043e:	46c0      	nop			; (mov r8, r8)

10000440 <__aeabi_f2ulz>:
10000440:	b5d0      	push	{r4, r6, r7, lr}
10000442:	f001 fd41 	bl	10001ec8 <__aeabi_f2d>
10000446:	2200      	movs	r2, #0
10000448:	4b0b      	ldr	r3, [pc, #44]	; (10000478 <__aeabi_f2ulz+0x38>)
1000044a:	0006      	movs	r6, r0
1000044c:	000f      	movs	r7, r1
1000044e:	f000 ffdd 	bl	1000140c <__aeabi_dmul>
10000452:	f001 fe2b 	bl	100020ac <__aeabi_d2uiz>
10000456:	0004      	movs	r4, r0
10000458:	f001 fd16 	bl	10001e88 <__aeabi_ui2d>
1000045c:	2200      	movs	r2, #0
1000045e:	4b07      	ldr	r3, [pc, #28]	; (1000047c <__aeabi_f2ulz+0x3c>)
10000460:	f000 ffd4 	bl	1000140c <__aeabi_dmul>
10000464:	0002      	movs	r2, r0
10000466:	000b      	movs	r3, r1
10000468:	0030      	movs	r0, r6
1000046a:	0039      	movs	r1, r7
1000046c:	f001 f9f8 	bl	10001860 <__aeabi_dsub>
10000470:	f001 fe1c 	bl	100020ac <__aeabi_d2uiz>
10000474:	0021      	movs	r1, r4
10000476:	bdd0      	pop	{r4, r6, r7, pc}
10000478:	3df00000 	.word	0x3df00000
1000047c:	41f00000 	.word	0x41f00000

10000480 <__aeabi_fadd>:
10000480:	024a      	lsls	r2, r1, #9
10000482:	b5f8      	push	{r3, r4, r5, r6, r7, lr}
10000484:	0243      	lsls	r3, r0, #9
10000486:	0044      	lsls	r4, r0, #1
10000488:	0fc5      	lsrs	r5, r0, #31
1000048a:	0a50      	lsrs	r0, r2, #9
1000048c:	4684      	mov	ip, r0
1000048e:	0048      	lsls	r0, r1, #1
10000490:	0e24      	lsrs	r4, r4, #24
10000492:	0e00      	lsrs	r0, r0, #24
10000494:	0a5f      	lsrs	r7, r3, #9
10000496:	0fc9      	lsrs	r1, r1, #31
10000498:	099b      	lsrs	r3, r3, #6
1000049a:	0992      	lsrs	r2, r2, #6
1000049c:	1a26      	subs	r6, r4, r0
1000049e:	428d      	cmp	r5, r1
100004a0:	d000      	beq.n	100004a4 <__aeabi_fadd+0x24>
100004a2:	e09e      	b.n	100005e2 <__aeabi_fadd+0x162>
100004a4:	2e00      	cmp	r6, #0
100004a6:	dd42      	ble.n	1000052e <__aeabi_fadd+0xae>
100004a8:	2180      	movs	r1, #128	; 0x80
100004aa:	04c9      	lsls	r1, r1, #19
100004ac:	2800      	cmp	r0, #0
100004ae:	d11e      	bne.n	100004ee <__aeabi_fadd+0x6e>
100004b0:	2a00      	cmp	r2, #0
100004b2:	d00a      	beq.n	100004ca <__aeabi_fadd+0x4a>
100004b4:	1e66      	subs	r6, r4, #1
100004b6:	2c01      	cmp	r4, #1
100004b8:	d105      	bne.n	100004c6 <__aeabi_fadd+0x46>
100004ba:	189b      	adds	r3, r3, r2
100004bc:	3401      	adds	r4, #1
100004be:	420b      	tst	r3, r1
100004c0:	d146      	bne.n	10000550 <__aeabi_fadd+0xd0>
100004c2:	3c01      	subs	r4, #1
100004c4:	e001      	b.n	100004ca <__aeabi_fadd+0x4a>
100004c6:	2cff      	cmp	r4, #255	; 0xff
100004c8:	d114      	bne.n	100004f4 <__aeabi_fadd+0x74>
100004ca:	075a      	lsls	r2, r3, #29
100004cc:	d004      	beq.n	100004d8 <__aeabi_fadd+0x58>
100004ce:	220f      	movs	r2, #15
100004d0:	401a      	ands	r2, r3
100004d2:	2a04      	cmp	r2, #4
100004d4:	d000      	beq.n	100004d8 <__aeabi_fadd+0x58>
100004d6:	3304      	adds	r3, #4
100004d8:	015a      	lsls	r2, r3, #5
100004da:	d400      	bmi.n	100004de <__aeabi_fadd+0x5e>
100004dc:	e12e      	b.n	1000073c <__aeabi_fadd+0x2bc>
100004de:	3401      	adds	r4, #1
100004e0:	2600      	movs	r6, #0
100004e2:	2cff      	cmp	r4, #255	; 0xff
100004e4:	d019      	beq.n	1000051a <__aeabi_fadd+0x9a>
100004e6:	4e9d      	ldr	r6, [pc, #628]	; (1000075c <__aeabi_fadd+0x2dc>)
100004e8:	08db      	lsrs	r3, r3, #3
100004ea:	401e      	ands	r6, r3
100004ec:	e015      	b.n	1000051a <__aeabi_fadd+0x9a>
100004ee:	2cff      	cmp	r4, #255	; 0xff
100004f0:	d0eb      	beq.n	100004ca <__aeabi_fadd+0x4a>
100004f2:	430a      	orrs	r2, r1
100004f4:	2e1b      	cmp	r6, #27
100004f6:	dd01      	ble.n	100004fc <__aeabi_fadd+0x7c>
100004f8:	3301      	adds	r3, #1
100004fa:	e7e6      	b.n	100004ca <__aeabi_fadd+0x4a>
100004fc:	2020      	movs	r0, #32
100004fe:	1b80      	subs	r0, r0, r6
10000500:	0011      	movs	r1, r2
10000502:	4082      	lsls	r2, r0
10000504:	40f1      	lsrs	r1, r6
10000506:	1e50      	subs	r0, r2, #1
10000508:	4182      	sbcs	r2, r0
1000050a:	430a      	orrs	r2, r1
1000050c:	189b      	adds	r3, r3, r2
1000050e:	015a      	lsls	r2, r3, #5
10000510:	d5db      	bpl.n	100004ca <__aeabi_fadd+0x4a>
10000512:	3401      	adds	r4, #1
10000514:	2600      	movs	r6, #0
10000516:	2cff      	cmp	r4, #255	; 0xff
10000518:	d11a      	bne.n	10000550 <__aeabi_fadd+0xd0>
1000051a:	23ff      	movs	r3, #255	; 0xff
1000051c:	05e0      	lsls	r0, r4, #23
1000051e:	05db      	lsls	r3, r3, #23
10000520:	0276      	lsls	r6, r6, #9
10000522:	0a76      	lsrs	r6, r6, #9
10000524:	4018      	ands	r0, r3
10000526:	4330      	orrs	r0, r6
10000528:	07ed      	lsls	r5, r5, #31
1000052a:	4328      	orrs	r0, r5
1000052c:	bdf8      	pop	{r3, r4, r5, r6, r7, pc}
1000052e:	2e00      	cmp	r6, #0
10000530:	d02e      	beq.n	10000590 <__aeabi_fadd+0x110>
10000532:	2680      	movs	r6, #128	; 0x80
10000534:	1b01      	subs	r1, r0, r4
10000536:	04f6      	lsls	r6, r6, #19
10000538:	2c00      	cmp	r4, #0
1000053a:	d114      	bne.n	10000566 <__aeabi_fadd+0xe6>
1000053c:	2b00      	cmp	r3, #0
1000053e:	d100      	bne.n	10000542 <__aeabi_fadd+0xc2>
10000540:	e0f3      	b.n	1000072a <__aeabi_fadd+0x2aa>
10000542:	1e4c      	subs	r4, r1, #1
10000544:	2901      	cmp	r1, #1
10000546:	d10a      	bne.n	1000055e <__aeabi_fadd+0xde>
10000548:	189b      	adds	r3, r3, r2
1000054a:	2402      	movs	r4, #2
1000054c:	4233      	tst	r3, r6
1000054e:	d0b8      	beq.n	100004c2 <__aeabi_fadd+0x42>
10000550:	2201      	movs	r2, #1
10000552:	4983      	ldr	r1, [pc, #524]	; (10000760 <__aeabi_fadd+0x2e0>)
10000554:	401a      	ands	r2, r3
10000556:	085b      	lsrs	r3, r3, #1
10000558:	400b      	ands	r3, r1
1000055a:	4313      	orrs	r3, r2
1000055c:	e7b5      	b.n	100004ca <__aeabi_fadd+0x4a>
1000055e:	29ff      	cmp	r1, #255	; 0xff
10000560:	d106      	bne.n	10000570 <__aeabi_fadd+0xf0>
10000562:	0013      	movs	r3, r2
10000564:	e0ae      	b.n	100006c4 <__aeabi_fadd+0x244>
10000566:	28ff      	cmp	r0, #255	; 0xff
10000568:	d100      	bne.n	1000056c <__aeabi_fadd+0xec>
1000056a:	e0e0      	b.n	1000072e <__aeabi_fadd+0x2ae>
1000056c:	000c      	movs	r4, r1
1000056e:	4333      	orrs	r3, r6
10000570:	2c1b      	cmp	r4, #27
10000572:	dd02      	ble.n	1000057a <__aeabi_fadd+0xfa>
10000574:	1c53      	adds	r3, r2, #1
10000576:	0004      	movs	r4, r0
10000578:	e7a7      	b.n	100004ca <__aeabi_fadd+0x4a>
1000057a:	0019      	movs	r1, r3
1000057c:	2620      	movs	r6, #32
1000057e:	40e1      	lsrs	r1, r4
10000580:	1b34      	subs	r4, r6, r4
10000582:	40a3      	lsls	r3, r4
10000584:	1e5c      	subs	r4, r3, #1
10000586:	41a3      	sbcs	r3, r4
10000588:	430b      	orrs	r3, r1
1000058a:	0004      	movs	r4, r0
1000058c:	189b      	adds	r3, r3, r2
1000058e:	e7be      	b.n	1000050e <__aeabi_fadd+0x8e>
10000590:	20fe      	movs	r0, #254	; 0xfe
10000592:	1c61      	adds	r1, r4, #1
10000594:	4201      	tst	r1, r0
10000596:	d11e      	bne.n	100005d6 <__aeabi_fadd+0x156>
10000598:	2c00      	cmp	r4, #0
1000059a:	d10d      	bne.n	100005b8 <__aeabi_fadd+0x138>
1000059c:	2b00      	cmp	r3, #0
1000059e:	d100      	bne.n	100005a2 <__aeabi_fadd+0x122>
100005a0:	e0c7      	b.n	10000732 <__aeabi_fadd+0x2b2>
100005a2:	2a00      	cmp	r2, #0
100005a4:	d100      	bne.n	100005a8 <__aeabi_fadd+0x128>
100005a6:	e790      	b.n	100004ca <__aeabi_fadd+0x4a>
100005a8:	189b      	adds	r3, r3, r2
100005aa:	015a      	lsls	r2, r3, #5
100005ac:	d400      	bmi.n	100005b0 <__aeabi_fadd+0x130>
100005ae:	e78c      	b.n	100004ca <__aeabi_fadd+0x4a>
100005b0:	4a6c      	ldr	r2, [pc, #432]	; (10000764 <__aeabi_fadd+0x2e4>)
100005b2:	4013      	ands	r3, r2
100005b4:	000c      	movs	r4, r1
100005b6:	e788      	b.n	100004ca <__aeabi_fadd+0x4a>
100005b8:	2b00      	cmp	r3, #0
100005ba:	d0d2      	beq.n	10000562 <__aeabi_fadd+0xe2>
100005bc:	24ff      	movs	r4, #255	; 0xff
100005be:	2a00      	cmp	r2, #0
100005c0:	d100      	bne.n	100005c4 <__aeabi_fadd+0x144>
100005c2:	e782      	b.n	100004ca <__aeabi_fadd+0x4a>
100005c4:	2380      	movs	r3, #128	; 0x80
100005c6:	03db      	lsls	r3, r3, #15
100005c8:	429f      	cmp	r7, r3
100005ca:	d302      	bcc.n	100005d2 <__aeabi_fadd+0x152>
100005cc:	459c      	cmp	ip, r3
100005ce:	d200      	bcs.n	100005d2 <__aeabi_fadd+0x152>
100005d0:	4667      	mov	r7, ip
100005d2:	00fb      	lsls	r3, r7, #3
100005d4:	e076      	b.n	100006c4 <__aeabi_fadd+0x244>
100005d6:	000c      	movs	r4, r1
100005d8:	29ff      	cmp	r1, #255	; 0xff
100005da:	d09e      	beq.n	1000051a <__aeabi_fadd+0x9a>
100005dc:	189b      	adds	r3, r3, r2
100005de:	085b      	lsrs	r3, r3, #1
100005e0:	e773      	b.n	100004ca <__aeabi_fadd+0x4a>
100005e2:	2e00      	cmp	r6, #0
100005e4:	dd25      	ble.n	10000632 <__aeabi_fadd+0x1b2>
100005e6:	2800      	cmp	r0, #0
100005e8:	d11c      	bne.n	10000624 <__aeabi_fadd+0x1a4>
100005ea:	2a00      	cmp	r2, #0
100005ec:	d100      	bne.n	100005f0 <__aeabi_fadd+0x170>
100005ee:	e76c      	b.n	100004ca <__aeabi_fadd+0x4a>
100005f0:	1e66      	subs	r6, r4, #1
100005f2:	2c01      	cmp	r4, #1
100005f4:	d106      	bne.n	10000604 <__aeabi_fadd+0x184>
100005f6:	1a9b      	subs	r3, r3, r2
100005f8:	015a      	lsls	r2, r3, #5
100005fa:	d400      	bmi.n	100005fe <__aeabi_fadd+0x17e>
100005fc:	e765      	b.n	100004ca <__aeabi_fadd+0x4a>
100005fe:	019b      	lsls	r3, r3, #6
10000600:	099e      	lsrs	r6, r3, #6
10000602:	e075      	b.n	100006f0 <__aeabi_fadd+0x270>
10000604:	2cff      	cmp	r4, #255	; 0xff
10000606:	d100      	bne.n	1000060a <__aeabi_fadd+0x18a>
10000608:	e75f      	b.n	100004ca <__aeabi_fadd+0x4a>
1000060a:	2101      	movs	r1, #1
1000060c:	2e1b      	cmp	r6, #27
1000060e:	dc07      	bgt.n	10000620 <__aeabi_fadd+0x1a0>
10000610:	2020      	movs	r0, #32
10000612:	1b80      	subs	r0, r0, r6
10000614:	0011      	movs	r1, r2
10000616:	4082      	lsls	r2, r0
10000618:	40f1      	lsrs	r1, r6
1000061a:	1e50      	subs	r0, r2, #1
1000061c:	4182      	sbcs	r2, r0
1000061e:	4311      	orrs	r1, r2
10000620:	1a5b      	subs	r3, r3, r1
10000622:	e7e9      	b.n	100005f8 <__aeabi_fadd+0x178>
10000624:	2cff      	cmp	r4, #255	; 0xff
10000626:	d100      	bne.n	1000062a <__aeabi_fadd+0x1aa>
10000628:	e74f      	b.n	100004ca <__aeabi_fadd+0x4a>
1000062a:	2180      	movs	r1, #128	; 0x80
1000062c:	04c9      	lsls	r1, r1, #19
1000062e:	430a      	orrs	r2, r1
10000630:	e7eb      	b.n	1000060a <__aeabi_fadd+0x18a>
10000632:	2e00      	cmp	r6, #0
10000634:	d025      	beq.n	10000682 <__aeabi_fadd+0x202>
10000636:	1b05      	subs	r5, r0, r4
10000638:	2c00      	cmp	r4, #0
1000063a:	d10d      	bne.n	10000658 <__aeabi_fadd+0x1d8>
1000063c:	2b00      	cmp	r3, #0
1000063e:	d008      	beq.n	10000652 <__aeabi_fadd+0x1d2>
10000640:	1e6e      	subs	r6, r5, #1
10000642:	2d01      	cmp	r5, #1
10000644:	d103      	bne.n	1000064e <__aeabi_fadd+0x1ce>
10000646:	000d      	movs	r5, r1
10000648:	1ad3      	subs	r3, r2, r3
1000064a:	3401      	adds	r4, #1
1000064c:	e7d4      	b.n	100005f8 <__aeabi_fadd+0x178>
1000064e:	2dff      	cmp	r5, #255	; 0xff
10000650:	d108      	bne.n	10000664 <__aeabi_fadd+0x1e4>
10000652:	0013      	movs	r3, r2
10000654:	002c      	movs	r4, r5
10000656:	e021      	b.n	1000069c <__aeabi_fadd+0x21c>
10000658:	28ff      	cmp	r0, #255	; 0xff
1000065a:	d06c      	beq.n	10000736 <__aeabi_fadd+0x2b6>
1000065c:	2480      	movs	r4, #128	; 0x80
1000065e:	002e      	movs	r6, r5
10000660:	04e4      	lsls	r4, r4, #19
10000662:	4323      	orrs	r3, r4
10000664:	2401      	movs	r4, #1
10000666:	2e1b      	cmp	r6, #27
10000668:	dc07      	bgt.n	1000067a <__aeabi_fadd+0x1fa>
1000066a:	2520      	movs	r5, #32
1000066c:	1bad      	subs	r5, r5, r6
1000066e:	001c      	movs	r4, r3
10000670:	40ab      	lsls	r3, r5
10000672:	40f4      	lsrs	r4, r6
10000674:	1e5d      	subs	r5, r3, #1
10000676:	41ab      	sbcs	r3, r5
10000678:	431c      	orrs	r4, r3
1000067a:	1b13      	subs	r3, r2, r4
1000067c:	000d      	movs	r5, r1
1000067e:	0004      	movs	r4, r0
10000680:	e7ba      	b.n	100005f8 <__aeabi_fadd+0x178>
10000682:	26fe      	movs	r6, #254	; 0xfe
10000684:	1c60      	adds	r0, r4, #1
10000686:	4230      	tst	r0, r6
10000688:	d12d      	bne.n	100006e6 <__aeabi_fadd+0x266>
1000068a:	2c00      	cmp	r4, #0
1000068c:	d114      	bne.n	100006b8 <__aeabi_fadd+0x238>
1000068e:	2b00      	cmp	r3, #0
10000690:	d106      	bne.n	100006a0 <__aeabi_fadd+0x220>
10000692:	0025      	movs	r5, r4
10000694:	0026      	movs	r6, r4
10000696:	1e13      	subs	r3, r2, #0
10000698:	d100      	bne.n	1000069c <__aeabi_fadd+0x21c>
1000069a:	e73e      	b.n	1000051a <__aeabi_fadd+0x9a>
1000069c:	000d      	movs	r5, r1
1000069e:	e714      	b.n	100004ca <__aeabi_fadd+0x4a>
100006a0:	2a00      	cmp	r2, #0
100006a2:	d100      	bne.n	100006a6 <__aeabi_fadd+0x226>
100006a4:	e711      	b.n	100004ca <__aeabi_fadd+0x4a>
100006a6:	1a9e      	subs	r6, r3, r2
100006a8:	1ad3      	subs	r3, r2, r3
100006aa:	0170      	lsls	r0, r6, #5
100006ac:	d4f6      	bmi.n	1000069c <__aeabi_fadd+0x21c>
100006ae:	1e33      	subs	r3, r6, #0
100006b0:	d000      	beq.n	100006b4 <__aeabi_fadd+0x234>
100006b2:	e70a      	b.n	100004ca <__aeabi_fadd+0x4a>
100006b4:	0035      	movs	r5, r6
100006b6:	e730      	b.n	1000051a <__aeabi_fadd+0x9a>
100006b8:	2b00      	cmp	r3, #0
100006ba:	d105      	bne.n	100006c8 <__aeabi_fadd+0x248>
100006bc:	2a00      	cmp	r2, #0
100006be:	d049      	beq.n	10000754 <__aeabi_fadd+0x2d4>
100006c0:	0013      	movs	r3, r2
100006c2:	000d      	movs	r5, r1
100006c4:	24ff      	movs	r4, #255	; 0xff
100006c6:	e700      	b.n	100004ca <__aeabi_fadd+0x4a>
100006c8:	24ff      	movs	r4, #255	; 0xff
100006ca:	2a00      	cmp	r2, #0
100006cc:	d100      	bne.n	100006d0 <__aeabi_fadd+0x250>
100006ce:	e6fc      	b.n	100004ca <__aeabi_fadd+0x4a>
100006d0:	2380      	movs	r3, #128	; 0x80
100006d2:	03db      	lsls	r3, r3, #15
100006d4:	429f      	cmp	r7, r3
100006d6:	d200      	bcs.n	100006da <__aeabi_fadd+0x25a>
100006d8:	e77b      	b.n	100005d2 <__aeabi_fadd+0x152>
100006da:	459c      	cmp	ip, r3
100006dc:	d300      	bcc.n	100006e0 <__aeabi_fadd+0x260>
100006de:	e778      	b.n	100005d2 <__aeabi_fadd+0x152>
100006e0:	4667      	mov	r7, ip
100006e2:	000d      	movs	r5, r1
100006e4:	e775      	b.n	100005d2 <__aeabi_fadd+0x152>
100006e6:	1a9e      	subs	r6, r3, r2
100006e8:	0170      	lsls	r0, r6, #5
100006ea:	d515      	bpl.n	10000718 <__aeabi_fadd+0x298>
100006ec:	000d      	movs	r5, r1
100006ee:	1ad6      	subs	r6, r2, r3
100006f0:	0030      	movs	r0, r6
100006f2:	f7ff fe47 	bl	10000384 <__clzsi2>
100006f6:	0033      	movs	r3, r6
100006f8:	3805      	subs	r0, #5
100006fa:	4083      	lsls	r3, r0
100006fc:	4284      	cmp	r4, r0
100006fe:	dc10      	bgt.n	10000722 <__aeabi_fadd+0x2a2>
10000700:	2220      	movs	r2, #32
10000702:	1b00      	subs	r0, r0, r4
10000704:	3001      	adds	r0, #1
10000706:	1a12      	subs	r2, r2, r0
10000708:	0019      	movs	r1, r3
1000070a:	4093      	lsls	r3, r2
1000070c:	40c1      	lsrs	r1, r0
1000070e:	1e5a      	subs	r2, r3, #1
10000710:	4193      	sbcs	r3, r2
10000712:	2400      	movs	r4, #0
10000714:	430b      	orrs	r3, r1
10000716:	e6d8      	b.n	100004ca <__aeabi_fadd+0x4a>
10000718:	2e00      	cmp	r6, #0
1000071a:	d1e9      	bne.n	100006f0 <__aeabi_fadd+0x270>
1000071c:	0035      	movs	r5, r6
1000071e:	0034      	movs	r4, r6
10000720:	e6fb      	b.n	1000051a <__aeabi_fadd+0x9a>
10000722:	4a10      	ldr	r2, [pc, #64]	; (10000764 <__aeabi_fadd+0x2e4>)
10000724:	1a24      	subs	r4, r4, r0
10000726:	4013      	ands	r3, r2
10000728:	e6cf      	b.n	100004ca <__aeabi_fadd+0x4a>
1000072a:	0013      	movs	r3, r2
1000072c:	e742      	b.n	100005b4 <__aeabi_fadd+0x134>
1000072e:	0013      	movs	r3, r2
10000730:	e721      	b.n	10000576 <__aeabi_fadd+0xf6>
10000732:	0013      	movs	r3, r2
10000734:	e6c9      	b.n	100004ca <__aeabi_fadd+0x4a>
10000736:	0013      	movs	r3, r2
10000738:	0004      	movs	r4, r0
1000073a:	e7af      	b.n	1000069c <__aeabi_fadd+0x21c>
1000073c:	08de      	lsrs	r6, r3, #3
1000073e:	2cff      	cmp	r4, #255	; 0xff
10000740:	d000      	beq.n	10000744 <__aeabi_fadd+0x2c4>
10000742:	e6ea      	b.n	1000051a <__aeabi_fadd+0x9a>
10000744:	2e00      	cmp	r6, #0
10000746:	d100      	bne.n	1000074a <__aeabi_fadd+0x2ca>
10000748:	e6e7      	b.n	1000051a <__aeabi_fadd+0x9a>
1000074a:	2380      	movs	r3, #128	; 0x80
1000074c:	03db      	lsls	r3, r3, #15
1000074e:	24ff      	movs	r4, #255	; 0xff
10000750:	431e      	orrs	r6, r3
10000752:	e6e2      	b.n	1000051a <__aeabi_fadd+0x9a>
10000754:	2680      	movs	r6, #128	; 0x80
10000756:	0015      	movs	r5, r2
10000758:	03f6      	lsls	r6, r6, #15
1000075a:	e7f6      	b.n	1000074a <__aeabi_fadd+0x2ca>
1000075c:	1f7fffff 	.word	0x1f7fffff
10000760:	7dffffff 	.word	0x7dffffff
10000764:	fbffffff 	.word	0xfbffffff

10000768 <__aeabi_fdiv>:
10000768:	b5f0      	push	{r4, r5, r6, r7, lr}
1000076a:	0fc3      	lsrs	r3, r0, #31
1000076c:	b085      	sub	sp, #20
1000076e:	0244      	lsls	r4, r0, #9
10000770:	0045      	lsls	r5, r0, #1
10000772:	1c0f      	adds	r7, r1, #0
10000774:	0a64      	lsrs	r4, r4, #9
10000776:	0e2d      	lsrs	r5, r5, #24
10000778:	9303      	str	r3, [sp, #12]
1000077a:	9302      	str	r3, [sp, #8]
1000077c:	d00a      	beq.n	10000794 <__aeabi_fdiv+0x2c>
1000077e:	2dff      	cmp	r5, #255	; 0xff
10000780:	d03b      	beq.n	100007fa <__aeabi_fdiv+0x92>
10000782:	2380      	movs	r3, #128	; 0x80
10000784:	00e4      	lsls	r4, r4, #3
10000786:	04db      	lsls	r3, r3, #19
10000788:	431c      	orrs	r4, r3
1000078a:	2300      	movs	r3, #0
1000078c:	3d7f      	subs	r5, #127	; 0x7f
1000078e:	9501      	str	r5, [sp, #4]
10000790:	9300      	str	r3, [sp, #0]
10000792:	e00e      	b.n	100007b2 <__aeabi_fdiv+0x4a>
10000794:	2301      	movs	r3, #1
10000796:	9401      	str	r4, [sp, #4]
10000798:	9300      	str	r3, [sp, #0]
1000079a:	2c00      	cmp	r4, #0
1000079c:	d009      	beq.n	100007b2 <__aeabi_fdiv+0x4a>
1000079e:	0020      	movs	r0, r4
100007a0:	f7ff fdf0 	bl	10000384 <__clzsi2>
100007a4:	1f43      	subs	r3, r0, #5
100007a6:	409c      	lsls	r4, r3
100007a8:	2376      	movs	r3, #118	; 0x76
100007aa:	425b      	negs	r3, r3
100007ac:	1a1b      	subs	r3, r3, r0
100007ae:	9301      	str	r3, [sp, #4]
100007b0:	9500      	str	r5, [sp, #0]
100007b2:	027d      	lsls	r5, r7, #9
100007b4:	007e      	lsls	r6, r7, #1
100007b6:	0a6d      	lsrs	r5, r5, #9
100007b8:	0e36      	lsrs	r6, r6, #24
100007ba:	0fff      	lsrs	r7, r7, #31
100007bc:	2e00      	cmp	r6, #0
100007be:	d023      	beq.n	10000808 <__aeabi_fdiv+0xa0>
100007c0:	2eff      	cmp	r6, #255	; 0xff
100007c2:	d02e      	beq.n	10000822 <__aeabi_fdiv+0xba>
100007c4:	2380      	movs	r3, #128	; 0x80
100007c6:	00ed      	lsls	r5, r5, #3
100007c8:	04db      	lsls	r3, r3, #19
100007ca:	431d      	orrs	r5, r3
100007cc:	0033      	movs	r3, r6
100007ce:	3b7f      	subs	r3, #127	; 0x7f
100007d0:	2200      	movs	r2, #0
100007d2:	9801      	ldr	r0, [sp, #4]
100007d4:	9903      	ldr	r1, [sp, #12]
100007d6:	1ac3      	subs	r3, r0, r3
100007d8:	9800      	ldr	r0, [sp, #0]
100007da:	4079      	eors	r1, r7
100007dc:	0080      	lsls	r0, r0, #2
100007de:	4310      	orrs	r0, r2
100007e0:	3801      	subs	r0, #1
100007e2:	280e      	cmp	r0, #14
100007e4:	d823      	bhi.n	1000082e <__aeabi_fdiv+0xc6>
100007e6:	f7ff fcdf 	bl	100001a8 <__gnu_thumb1_case_uqi>
100007ea:	994d      	.short	0x994d
100007ec:	99929973 	.word	0x99929973
100007f0:	924d4d73 	.word	0x924d4d73
100007f4:	61616173 	.word	0x61616173
100007f8:	53          	.byte	0x53
100007f9:	00          	.byte	0x00
100007fa:	2302      	movs	r3, #2
100007fc:	9501      	str	r5, [sp, #4]
100007fe:	9300      	str	r3, [sp, #0]
10000800:	2c00      	cmp	r4, #0
10000802:	d0d6      	beq.n	100007b2 <__aeabi_fdiv+0x4a>
10000804:	3301      	adds	r3, #1
10000806:	e7c3      	b.n	10000790 <__aeabi_fdiv+0x28>
10000808:	002b      	movs	r3, r5
1000080a:	2201      	movs	r2, #1
1000080c:	2d00      	cmp	r5, #0
1000080e:	d0e0      	beq.n	100007d2 <__aeabi_fdiv+0x6a>
10000810:	0028      	movs	r0, r5
10000812:	f7ff fdb7 	bl	10000384 <__clzsi2>
10000816:	1f43      	subs	r3, r0, #5
10000818:	409d      	lsls	r5, r3
1000081a:	2376      	movs	r3, #118	; 0x76
1000081c:	425b      	negs	r3, r3
1000081e:	1a1b      	subs	r3, r3, r0
10000820:	e7d6      	b.n	100007d0 <__aeabi_fdiv+0x68>
10000822:	0033      	movs	r3, r6
10000824:	2202      	movs	r2, #2
10000826:	2d00      	cmp	r5, #0
10000828:	d0d3      	beq.n	100007d2 <__aeabi_fdiv+0x6a>
1000082a:	3201      	adds	r2, #1
1000082c:	e7d1      	b.n	100007d2 <__aeabi_fdiv+0x6a>
1000082e:	0164      	lsls	r4, r4, #5
10000830:	016d      	lsls	r5, r5, #5
10000832:	42ac      	cmp	r4, r5
10000834:	d328      	bcc.n	10000888 <__aeabi_fdiv+0x120>
10000836:	201a      	movs	r0, #26
10000838:	2201      	movs	r2, #1
1000083a:	1b64      	subs	r4, r4, r5
1000083c:	2601      	movs	r6, #1
1000083e:	0027      	movs	r7, r4
10000840:	0052      	lsls	r2, r2, #1
10000842:	0064      	lsls	r4, r4, #1
10000844:	2f00      	cmp	r7, #0
10000846:	db01      	blt.n	1000084c <__aeabi_fdiv+0xe4>
10000848:	42a5      	cmp	r5, r4
1000084a:	d801      	bhi.n	10000850 <__aeabi_fdiv+0xe8>
1000084c:	1b64      	subs	r4, r4, r5
1000084e:	4332      	orrs	r2, r6
10000850:	3801      	subs	r0, #1
10000852:	2800      	cmp	r0, #0
10000854:	d1f3      	bne.n	1000083e <__aeabi_fdiv+0xd6>
10000856:	1e60      	subs	r0, r4, #1
10000858:	4184      	sbcs	r4, r0
1000085a:	4314      	orrs	r4, r2
1000085c:	0018      	movs	r0, r3
1000085e:	307f      	adds	r0, #127	; 0x7f
10000860:	2800      	cmp	r0, #0
10000862:	dd38      	ble.n	100008d6 <__aeabi_fdiv+0x16e>
10000864:	0762      	lsls	r2, r4, #29
10000866:	d004      	beq.n	10000872 <__aeabi_fdiv+0x10a>
10000868:	220f      	movs	r2, #15
1000086a:	4022      	ands	r2, r4
1000086c:	2a04      	cmp	r2, #4
1000086e:	d000      	beq.n	10000872 <__aeabi_fdiv+0x10a>
10000870:	3404      	adds	r4, #4
10000872:	0122      	lsls	r2, r4, #4
10000874:	d503      	bpl.n	1000087e <__aeabi_fdiv+0x116>
10000876:	3380      	adds	r3, #128	; 0x80
10000878:	0018      	movs	r0, r3
1000087a:	4a2b      	ldr	r2, [pc, #172]	; (10000928 <__aeabi_fdiv+0x1c0>)
1000087c:	4014      	ands	r4, r2
1000087e:	08e5      	lsrs	r5, r4, #3
10000880:	28fe      	cmp	r0, #254	; 0xfe
10000882:	dd1d      	ble.n	100008c0 <__aeabi_fdiv+0x158>
10000884:	2500      	movs	r5, #0
10000886:	e00f      	b.n	100008a8 <__aeabi_fdiv+0x140>
10000888:	201b      	movs	r0, #27
1000088a:	2200      	movs	r2, #0
1000088c:	3b01      	subs	r3, #1
1000088e:	e7d5      	b.n	1000083c <__aeabi_fdiv+0xd4>
10000890:	2380      	movs	r3, #128	; 0x80
10000892:	03db      	lsls	r3, r3, #15
10000894:	421c      	tst	r4, r3
10000896:	d003      	beq.n	100008a0 <__aeabi_fdiv+0x138>
10000898:	421d      	tst	r5, r3
1000089a:	d101      	bne.n	100008a0 <__aeabi_fdiv+0x138>
1000089c:	002c      	movs	r4, r5
1000089e:	9702      	str	r7, [sp, #8]
100008a0:	2580      	movs	r5, #128	; 0x80
100008a2:	9902      	ldr	r1, [sp, #8]
100008a4:	03ed      	lsls	r5, r5, #15
100008a6:	4325      	orrs	r5, r4
100008a8:	20ff      	movs	r0, #255	; 0xff
100008aa:	e009      	b.n	100008c0 <__aeabi_fdiv+0x158>
100008ac:	9903      	ldr	r1, [sp, #12]
100008ae:	9a00      	ldr	r2, [sp, #0]
100008b0:	2a02      	cmp	r2, #2
100008b2:	d0e7      	beq.n	10000884 <__aeabi_fdiv+0x11c>
100008b4:	2a03      	cmp	r2, #3
100008b6:	d02f      	beq.n	10000918 <__aeabi_fdiv+0x1b0>
100008b8:	2500      	movs	r5, #0
100008ba:	0028      	movs	r0, r5
100008bc:	2a01      	cmp	r2, #1
100008be:	d1cd      	bne.n	1000085c <__aeabi_fdiv+0xf4>
100008c0:	026d      	lsls	r5, r5, #9
100008c2:	0a6d      	lsrs	r5, r5, #9
100008c4:	05c0      	lsls	r0, r0, #23
100008c6:	4328      	orrs	r0, r5
100008c8:	07c9      	lsls	r1, r1, #31
100008ca:	4308      	orrs	r0, r1
100008cc:	b005      	add	sp, #20
100008ce:	bdf0      	pop	{r4, r5, r6, r7, pc}
100008d0:	002c      	movs	r4, r5
100008d2:	0039      	movs	r1, r7
100008d4:	e7ec      	b.n	100008b0 <__aeabi_fdiv+0x148>
100008d6:	2201      	movs	r2, #1
100008d8:	2500      	movs	r5, #0
100008da:	1a12      	subs	r2, r2, r0
100008dc:	0028      	movs	r0, r5
100008de:	2a1b      	cmp	r2, #27
100008e0:	dcee      	bgt.n	100008c0 <__aeabi_fdiv+0x158>
100008e2:	339e      	adds	r3, #158	; 0x9e
100008e4:	0025      	movs	r5, r4
100008e6:	409c      	lsls	r4, r3
100008e8:	40d5      	lsrs	r5, r2
100008ea:	1e63      	subs	r3, r4, #1
100008ec:	419c      	sbcs	r4, r3
100008ee:	4325      	orrs	r5, r4
100008f0:	076b      	lsls	r3, r5, #29
100008f2:	d004      	beq.n	100008fe <__aeabi_fdiv+0x196>
100008f4:	230f      	movs	r3, #15
100008f6:	402b      	ands	r3, r5
100008f8:	2b04      	cmp	r3, #4
100008fa:	d000      	beq.n	100008fe <__aeabi_fdiv+0x196>
100008fc:	3504      	adds	r5, #4
100008fe:	2380      	movs	r3, #128	; 0x80
10000900:	0028      	movs	r0, r5
10000902:	04db      	lsls	r3, r3, #19
10000904:	4018      	ands	r0, r3
10000906:	421d      	tst	r5, r3
10000908:	d10b      	bne.n	10000922 <__aeabi_fdiv+0x1ba>
1000090a:	08ed      	lsrs	r5, r5, #3
1000090c:	e7d8      	b.n	100008c0 <__aeabi_fdiv+0x158>
1000090e:	2480      	movs	r4, #128	; 0x80
10000910:	2300      	movs	r3, #0
10000912:	03e4      	lsls	r4, r4, #15
10000914:	9302      	str	r3, [sp, #8]
10000916:	e7c3      	b.n	100008a0 <__aeabi_fdiv+0x138>
10000918:	9102      	str	r1, [sp, #8]
1000091a:	e7c1      	b.n	100008a0 <__aeabi_fdiv+0x138>
1000091c:	2500      	movs	r5, #0
1000091e:	0028      	movs	r0, r5
10000920:	e7ce      	b.n	100008c0 <__aeabi_fdiv+0x158>
10000922:	2500      	movs	r5, #0
10000924:	2001      	movs	r0, #1
10000926:	e7cb      	b.n	100008c0 <__aeabi_fdiv+0x158>
10000928:	f7ffffff 	.word	0xf7ffffff

1000092c <__aeabi_fmul>:
1000092c:	b5f0      	push	{r4, r5, r6, r7, lr}
1000092e:	0fc3      	lsrs	r3, r0, #31
10000930:	b085      	sub	sp, #20
10000932:	0247      	lsls	r7, r0, #9
10000934:	0044      	lsls	r4, r0, #1
10000936:	9102      	str	r1, [sp, #8]
10000938:	0a7f      	lsrs	r7, r7, #9
1000093a:	0e24      	lsrs	r4, r4, #24
1000093c:	9303      	str	r3, [sp, #12]
1000093e:	d00a      	beq.n	10000956 <__aeabi_fmul+0x2a>
10000940:	2cff      	cmp	r4, #255	; 0xff
10000942:	d071      	beq.n	10000a28 <__aeabi_fmul+0xfc>
10000944:	2280      	movs	r2, #128	; 0x80
10000946:	3c7f      	subs	r4, #127	; 0x7f
10000948:	0026      	movs	r6, r4
1000094a:	2300      	movs	r3, #0
1000094c:	00ff      	lsls	r7, r7, #3
1000094e:	04d2      	lsls	r2, r2, #19
10000950:	4317      	orrs	r7, r2
10000952:	9301      	str	r3, [sp, #4]
10000954:	e00c      	b.n	10000970 <__aeabi_fmul+0x44>
10000956:	2301      	movs	r3, #1
10000958:	1e3e      	subs	r6, r7, #0
1000095a:	9301      	str	r3, [sp, #4]
1000095c:	d008      	beq.n	10000970 <__aeabi_fmul+0x44>
1000095e:	0038      	movs	r0, r7
10000960:	f7ff fd10 	bl	10000384 <__clzsi2>
10000964:	2676      	movs	r6, #118	; 0x76
10000966:	1f43      	subs	r3, r0, #5
10000968:	409f      	lsls	r7, r3
1000096a:	4276      	negs	r6, r6
1000096c:	1a36      	subs	r6, r6, r0
1000096e:	9401      	str	r4, [sp, #4]
10000970:	9b02      	ldr	r3, [sp, #8]
10000972:	025c      	lsls	r4, r3, #9
10000974:	005d      	lsls	r5, r3, #1
10000976:	0fdb      	lsrs	r3, r3, #31
10000978:	0a64      	lsrs	r4, r4, #9
1000097a:	0e2d      	lsrs	r5, r5, #24
1000097c:	9302      	str	r3, [sp, #8]
1000097e:	d05a      	beq.n	10000a36 <__aeabi_fmul+0x10a>
10000980:	2dff      	cmp	r5, #255	; 0xff
10000982:	d064      	beq.n	10000a4e <__aeabi_fmul+0x122>
10000984:	2380      	movs	r3, #128	; 0x80
10000986:	0028      	movs	r0, r5
10000988:	00e4      	lsls	r4, r4, #3
1000098a:	04db      	lsls	r3, r3, #19
1000098c:	431c      	orrs	r4, r3
1000098e:	387f      	subs	r0, #127	; 0x7f
10000990:	2300      	movs	r3, #0
10000992:	9902      	ldr	r1, [sp, #8]
10000994:	9a03      	ldr	r2, [sp, #12]
10000996:	404a      	eors	r2, r1
10000998:	1981      	adds	r1, r0, r6
1000099a:	9801      	ldr	r0, [sp, #4]
1000099c:	468c      	mov	ip, r1
1000099e:	0085      	lsls	r5, r0, #2
100009a0:	3101      	adds	r1, #1
100009a2:	431d      	orrs	r5, r3
100009a4:	2d0a      	cmp	r5, #10
100009a6:	dd00      	ble.n	100009aa <__aeabi_fmul+0x7e>
100009a8:	e078      	b.n	10000a9c <__aeabi_fmul+0x170>
100009aa:	2d02      	cmp	r5, #2
100009ac:	dc55      	bgt.n	10000a5a <__aeabi_fmul+0x12e>
100009ae:	3d01      	subs	r5, #1
100009b0:	2d01      	cmp	r5, #1
100009b2:	d963      	bls.n	10000a7c <__aeabi_fmul+0x150>
100009b4:	0c25      	lsrs	r5, r4, #16
100009b6:	b2a4      	uxth	r4, r4
100009b8:	0026      	movs	r6, r4
100009ba:	0c3b      	lsrs	r3, r7, #16
100009bc:	b2b8      	uxth	r0, r7
100009be:	4346      	muls	r6, r0
100009c0:	435c      	muls	r4, r3
100009c2:	4368      	muls	r0, r5
100009c4:	436b      	muls	r3, r5
100009c6:	1900      	adds	r0, r0, r4
100009c8:	001f      	movs	r7, r3
100009ca:	0c33      	lsrs	r3, r6, #16
100009cc:	181b      	adds	r3, r3, r0
100009ce:	429c      	cmp	r4, r3
100009d0:	d902      	bls.n	100009d8 <__aeabi_fmul+0xac>
100009d2:	2080      	movs	r0, #128	; 0x80
100009d4:	0240      	lsls	r0, r0, #9
100009d6:	183f      	adds	r7, r7, r0
100009d8:	0418      	lsls	r0, r3, #16
100009da:	b2b6      	uxth	r6, r6
100009dc:	1986      	adds	r6, r0, r6
100009de:	01b4      	lsls	r4, r6, #6
100009e0:	1e60      	subs	r0, r4, #1
100009e2:	4184      	sbcs	r4, r0
100009e4:	0c1b      	lsrs	r3, r3, #16
100009e6:	0eb6      	lsrs	r6, r6, #26
100009e8:	19db      	adds	r3, r3, r7
100009ea:	4334      	orrs	r4, r6
100009ec:	019b      	lsls	r3, r3, #6
100009ee:	431c      	orrs	r4, r3
100009f0:	011b      	lsls	r3, r3, #4
100009f2:	d568      	bpl.n	10000ac6 <__aeabi_fmul+0x19a>
100009f4:	2301      	movs	r3, #1
100009f6:	0860      	lsrs	r0, r4, #1
100009f8:	401c      	ands	r4, r3
100009fa:	4304      	orrs	r4, r0
100009fc:	0008      	movs	r0, r1
100009fe:	307f      	adds	r0, #127	; 0x7f
10000a00:	2800      	cmp	r0, #0
10000a02:	dd62      	ble.n	10000aca <__aeabi_fmul+0x19e>
10000a04:	0763      	lsls	r3, r4, #29
10000a06:	d004      	beq.n	10000a12 <__aeabi_fmul+0xe6>
10000a08:	230f      	movs	r3, #15
10000a0a:	4023      	ands	r3, r4
10000a0c:	2b04      	cmp	r3, #4
10000a0e:	d000      	beq.n	10000a12 <__aeabi_fmul+0xe6>
10000a10:	3404      	adds	r4, #4
10000a12:	0123      	lsls	r3, r4, #4
10000a14:	d503      	bpl.n	10000a1e <__aeabi_fmul+0xf2>
10000a16:	3180      	adds	r1, #128	; 0x80
10000a18:	0008      	movs	r0, r1
10000a1a:	4b3e      	ldr	r3, [pc, #248]	; (10000b14 <__aeabi_fmul+0x1e8>)
10000a1c:	401c      	ands	r4, r3
10000a1e:	08e5      	lsrs	r5, r4, #3
10000a20:	28fe      	cmp	r0, #254	; 0xfe
10000a22:	dd33      	ble.n	10000a8c <__aeabi_fmul+0x160>
10000a24:	2500      	movs	r5, #0
10000a26:	e04c      	b.n	10000ac2 <__aeabi_fmul+0x196>
10000a28:	2302      	movs	r3, #2
10000a2a:	0026      	movs	r6, r4
10000a2c:	9301      	str	r3, [sp, #4]
10000a2e:	2f00      	cmp	r7, #0
10000a30:	d09e      	beq.n	10000970 <__aeabi_fmul+0x44>
10000a32:	3301      	adds	r3, #1
10000a34:	e78d      	b.n	10000952 <__aeabi_fmul+0x26>
10000a36:	0020      	movs	r0, r4
10000a38:	2301      	movs	r3, #1
10000a3a:	2c00      	cmp	r4, #0
10000a3c:	d0a9      	beq.n	10000992 <__aeabi_fmul+0x66>
10000a3e:	f7ff fca1 	bl	10000384 <__clzsi2>
10000a42:	1f43      	subs	r3, r0, #5
10000a44:	409c      	lsls	r4, r3
10000a46:	2376      	movs	r3, #118	; 0x76
10000a48:	425b      	negs	r3, r3
10000a4a:	1a18      	subs	r0, r3, r0
10000a4c:	e7a0      	b.n	10000990 <__aeabi_fmul+0x64>
10000a4e:	0028      	movs	r0, r5
10000a50:	2302      	movs	r3, #2
10000a52:	2c00      	cmp	r4, #0
10000a54:	d09d      	beq.n	10000992 <__aeabi_fmul+0x66>
10000a56:	3301      	adds	r3, #1
10000a58:	e79b      	b.n	10000992 <__aeabi_fmul+0x66>
10000a5a:	2001      	movs	r0, #1
10000a5c:	40a8      	lsls	r0, r5
10000a5e:	25a6      	movs	r5, #166	; 0xa6
10000a60:	0006      	movs	r6, r0
10000a62:	00ed      	lsls	r5, r5, #3
10000a64:	402e      	ands	r6, r5
10000a66:	4228      	tst	r0, r5
10000a68:	d11d      	bne.n	10000aa6 <__aeabi_fmul+0x17a>
10000a6a:	2590      	movs	r5, #144	; 0x90
10000a6c:	00ad      	lsls	r5, r5, #2
10000a6e:	4228      	tst	r0, r5
10000a70:	d147      	bne.n	10000b02 <__aeabi_fmul+0x1d6>
10000a72:	3db9      	subs	r5, #185	; 0xb9
10000a74:	3dff      	subs	r5, #255	; 0xff
10000a76:	4228      	tst	r0, r5
10000a78:	d09c      	beq.n	100009b4 <__aeabi_fmul+0x88>
10000a7a:	9a02      	ldr	r2, [sp, #8]
10000a7c:	2b02      	cmp	r3, #2
10000a7e:	d0d1      	beq.n	10000a24 <__aeabi_fmul+0xf8>
10000a80:	2b03      	cmp	r3, #3
10000a82:	d042      	beq.n	10000b0a <__aeabi_fmul+0x1de>
10000a84:	2500      	movs	r5, #0
10000a86:	0028      	movs	r0, r5
10000a88:	2b01      	cmp	r3, #1
10000a8a:	d1b7      	bne.n	100009fc <__aeabi_fmul+0xd0>
10000a8c:	026d      	lsls	r5, r5, #9
10000a8e:	0a6d      	lsrs	r5, r5, #9
10000a90:	05c0      	lsls	r0, r0, #23
10000a92:	4328      	orrs	r0, r5
10000a94:	07d2      	lsls	r2, r2, #31
10000a96:	4310      	orrs	r0, r2
10000a98:	b005      	add	sp, #20
10000a9a:	bdf0      	pop	{r4, r5, r6, r7, pc}
10000a9c:	9a03      	ldr	r2, [sp, #12]
10000a9e:	2d0f      	cmp	r5, #15
10000aa0:	d004      	beq.n	10000aac <__aeabi_fmul+0x180>
10000aa2:	2d0b      	cmp	r5, #11
10000aa4:	d0e9      	beq.n	10000a7a <__aeabi_fmul+0x14e>
10000aa6:	003c      	movs	r4, r7
10000aa8:	9b01      	ldr	r3, [sp, #4]
10000aaa:	e7e7      	b.n	10000a7c <__aeabi_fmul+0x150>
10000aac:	2380      	movs	r3, #128	; 0x80
10000aae:	03db      	lsls	r3, r3, #15
10000ab0:	421f      	tst	r7, r3
10000ab2:	d003      	beq.n	10000abc <__aeabi_fmul+0x190>
10000ab4:	421c      	tst	r4, r3
10000ab6:	d101      	bne.n	10000abc <__aeabi_fmul+0x190>
10000ab8:	0027      	movs	r7, r4
10000aba:	9a02      	ldr	r2, [sp, #8]
10000abc:	2580      	movs	r5, #128	; 0x80
10000abe:	03ed      	lsls	r5, r5, #15
10000ac0:	433d      	orrs	r5, r7
10000ac2:	20ff      	movs	r0, #255	; 0xff
10000ac4:	e7e2      	b.n	10000a8c <__aeabi_fmul+0x160>
10000ac6:	4661      	mov	r1, ip
10000ac8:	e798      	b.n	100009fc <__aeabi_fmul+0xd0>
10000aca:	2301      	movs	r3, #1
10000acc:	2500      	movs	r5, #0
10000ace:	1a1b      	subs	r3, r3, r0
10000ad0:	0028      	movs	r0, r5
10000ad2:	2b1b      	cmp	r3, #27
10000ad4:	dcda      	bgt.n	10000a8c <__aeabi_fmul+0x160>
10000ad6:	319e      	adds	r1, #158	; 0x9e
10000ad8:	0025      	movs	r5, r4
10000ada:	408c      	lsls	r4, r1
10000adc:	40dd      	lsrs	r5, r3
10000ade:	1e63      	subs	r3, r4, #1
10000ae0:	419c      	sbcs	r4, r3
10000ae2:	4325      	orrs	r5, r4
10000ae4:	076b      	lsls	r3, r5, #29
10000ae6:	d004      	beq.n	10000af2 <__aeabi_fmul+0x1c6>
10000ae8:	230f      	movs	r3, #15
10000aea:	402b      	ands	r3, r5
10000aec:	2b04      	cmp	r3, #4
10000aee:	d000      	beq.n	10000af2 <__aeabi_fmul+0x1c6>
10000af0:	3504      	adds	r5, #4
10000af2:	2380      	movs	r3, #128	; 0x80
10000af4:	0028      	movs	r0, r5
10000af6:	04db      	lsls	r3, r3, #19
10000af8:	4018      	ands	r0, r3
10000afa:	421d      	tst	r5, r3
10000afc:	d107      	bne.n	10000b0e <__aeabi_fmul+0x1e2>
10000afe:	08ed      	lsrs	r5, r5, #3
10000b00:	e7c4      	b.n	10000a8c <__aeabi_fmul+0x160>
10000b02:	2780      	movs	r7, #128	; 0x80
10000b04:	0032      	movs	r2, r6
10000b06:	03ff      	lsls	r7, r7, #15
10000b08:	e7d8      	b.n	10000abc <__aeabi_fmul+0x190>
10000b0a:	0027      	movs	r7, r4
10000b0c:	e7d6      	b.n	10000abc <__aeabi_fmul+0x190>
10000b0e:	2500      	movs	r5, #0
10000b10:	2001      	movs	r0, #1
10000b12:	e7bb      	b.n	10000a8c <__aeabi_fmul+0x160>
10000b14:	f7ffffff 	.word	0xf7ffffff

10000b18 <__aeabi_f2iz>:
10000b18:	0241      	lsls	r1, r0, #9
10000b1a:	0043      	lsls	r3, r0, #1
10000b1c:	0fc2      	lsrs	r2, r0, #31
10000b1e:	0a49      	lsrs	r1, r1, #9
10000b20:	2000      	movs	r0, #0
10000b22:	0e1b      	lsrs	r3, r3, #24
10000b24:	2b7e      	cmp	r3, #126	; 0x7e
10000b26:	dd03      	ble.n	10000b30 <__aeabi_f2iz+0x18>
10000b28:	2b9d      	cmp	r3, #157	; 0x9d
10000b2a:	dd02      	ble.n	10000b32 <__aeabi_f2iz+0x1a>
10000b2c:	4b08      	ldr	r3, [pc, #32]	; (10000b50 <__aeabi_f2iz+0x38>)
10000b2e:	18d0      	adds	r0, r2, r3
10000b30:	4770      	bx	lr
10000b32:	2080      	movs	r0, #128	; 0x80
10000b34:	0400      	lsls	r0, r0, #16
10000b36:	4308      	orrs	r0, r1
10000b38:	2b95      	cmp	r3, #149	; 0x95
10000b3a:	dd05      	ble.n	10000b48 <__aeabi_f2iz+0x30>
10000b3c:	3b96      	subs	r3, #150	; 0x96
10000b3e:	4098      	lsls	r0, r3
10000b40:	2a00      	cmp	r2, #0
10000b42:	d0f5      	beq.n	10000b30 <__aeabi_f2iz+0x18>
10000b44:	4240      	negs	r0, r0
10000b46:	e7f3      	b.n	10000b30 <__aeabi_f2iz+0x18>
10000b48:	2196      	movs	r1, #150	; 0x96
10000b4a:	1acb      	subs	r3, r1, r3
10000b4c:	40d8      	lsrs	r0, r3
10000b4e:	e7f7      	b.n	10000b40 <__aeabi_f2iz+0x28>
10000b50:	7fffffff 	.word	0x7fffffff

10000b54 <__aeabi_ui2f>:
10000b54:	2300      	movs	r3, #0
10000b56:	b570      	push	{r4, r5, r6, lr}
10000b58:	0004      	movs	r4, r0
10000b5a:	4298      	cmp	r0, r3
10000b5c:	d009      	beq.n	10000b72 <__aeabi_ui2f+0x1e>
10000b5e:	f7ff fc11 	bl	10000384 <__clzsi2>
10000b62:	239e      	movs	r3, #158	; 0x9e
10000b64:	1a1b      	subs	r3, r3, r0
10000b66:	2b96      	cmp	r3, #150	; 0x96
10000b68:	dc08      	bgt.n	10000b7c <__aeabi_ui2f+0x28>
10000b6a:	2808      	cmp	r0, #8
10000b6c:	d029      	beq.n	10000bc2 <__aeabi_ui2f+0x6e>
10000b6e:	3808      	subs	r0, #8
10000b70:	4084      	lsls	r4, r0
10000b72:	0264      	lsls	r4, r4, #9
10000b74:	05d8      	lsls	r0, r3, #23
10000b76:	0a64      	lsrs	r4, r4, #9
10000b78:	4320      	orrs	r0, r4
10000b7a:	bd70      	pop	{r4, r5, r6, pc}
10000b7c:	2b99      	cmp	r3, #153	; 0x99
10000b7e:	dd1b      	ble.n	10000bb8 <__aeabi_ui2f+0x64>
10000b80:	0002      	movs	r2, r0
10000b82:	0021      	movs	r1, r4
10000b84:	321b      	adds	r2, #27
10000b86:	4091      	lsls	r1, r2
10000b88:	000a      	movs	r2, r1
10000b8a:	1e51      	subs	r1, r2, #1
10000b8c:	418a      	sbcs	r2, r1
10000b8e:	2105      	movs	r1, #5
10000b90:	1a09      	subs	r1, r1, r0
10000b92:	40cc      	lsrs	r4, r1
10000b94:	4314      	orrs	r4, r2
10000b96:	0022      	movs	r2, r4
10000b98:	4d0b      	ldr	r5, [pc, #44]	; (10000bc8 <__aeabi_ui2f+0x74>)
10000b9a:	402a      	ands	r2, r5
10000b9c:	0761      	lsls	r1, r4, #29
10000b9e:	d004      	beq.n	10000baa <__aeabi_ui2f+0x56>
10000ba0:	210f      	movs	r1, #15
10000ba2:	4021      	ands	r1, r4
10000ba4:	2904      	cmp	r1, #4
10000ba6:	d000      	beq.n	10000baa <__aeabi_ui2f+0x56>
10000ba8:	3204      	adds	r2, #4
10000baa:	0151      	lsls	r1, r2, #5
10000bac:	d502      	bpl.n	10000bb4 <__aeabi_ui2f+0x60>
10000bae:	239f      	movs	r3, #159	; 0x9f
10000bb0:	402a      	ands	r2, r5
10000bb2:	1a1b      	subs	r3, r3, r0
10000bb4:	08d4      	lsrs	r4, r2, #3
10000bb6:	e7dc      	b.n	10000b72 <__aeabi_ui2f+0x1e>
10000bb8:	1f42      	subs	r2, r0, #5
10000bba:	2805      	cmp	r0, #5
10000bbc:	d0eb      	beq.n	10000b96 <__aeabi_ui2f+0x42>
10000bbe:	4094      	lsls	r4, r2
10000bc0:	e7e9      	b.n	10000b96 <__aeabi_ui2f+0x42>
10000bc2:	2396      	movs	r3, #150	; 0x96
10000bc4:	e7d5      	b.n	10000b72 <__aeabi_ui2f+0x1e>
10000bc6:	46c0      	nop			; (mov r8, r8)
10000bc8:	fbffffff 	.word	0xfbffffff

10000bcc <__aeabi_dadd>:
10000bcc:	b5f0      	push	{r4, r5, r6, r7, lr}
10000bce:	b087      	sub	sp, #28
10000bd0:	9204      	str	r2, [sp, #16]
10000bd2:	9305      	str	r3, [sp, #20]
10000bd4:	0fcb      	lsrs	r3, r1, #31
10000bd6:	9301      	str	r3, [sp, #4]
10000bd8:	9b05      	ldr	r3, [sp, #20]
10000bda:	030d      	lsls	r5, r1, #12
10000bdc:	004c      	lsls	r4, r1, #1
10000bde:	0a6d      	lsrs	r5, r5, #9
10000be0:	0f41      	lsrs	r1, r0, #29
10000be2:	005f      	lsls	r7, r3, #1
10000be4:	4329      	orrs	r1, r5
10000be6:	031d      	lsls	r5, r3, #12
10000be8:	0d7b      	lsrs	r3, r7, #21
10000bea:	9302      	str	r3, [sp, #8]
10000bec:	9b05      	ldr	r3, [sp, #20]
10000bee:	0a6d      	lsrs	r5, r5, #9
10000bf0:	0fdb      	lsrs	r3, r3, #31
10000bf2:	9303      	str	r3, [sp, #12]
10000bf4:	9b04      	ldr	r3, [sp, #16]
10000bf6:	9a04      	ldr	r2, [sp, #16]
10000bf8:	0f5b      	lsrs	r3, r3, #29
10000bfa:	432b      	orrs	r3, r5
10000bfc:	9e01      	ldr	r6, [sp, #4]
10000bfe:	9d02      	ldr	r5, [sp, #8]
10000c00:	9f03      	ldr	r7, [sp, #12]
10000c02:	0d64      	lsrs	r4, r4, #21
10000c04:	00c0      	lsls	r0, r0, #3
10000c06:	00d2      	lsls	r2, r2, #3
10000c08:	1b65      	subs	r5, r4, r5
10000c0a:	42be      	cmp	r6, r7
10000c0c:	d000      	beq.n	10000c10 <__aeabi_dadd+0x44>
10000c0e:	e12c      	b.n	10000e6a <__aeabi_dadd+0x29e>
10000c10:	4ebb      	ldr	r6, [pc, #748]	; (10000f00 <__aeabi_dadd+0x334>)
10000c12:	46b4      	mov	ip, r6
10000c14:	2d00      	cmp	r5, #0
10000c16:	dc00      	bgt.n	10000c1a <__aeabi_dadd+0x4e>
10000c18:	e070      	b.n	10000cfc <__aeabi_dadd+0x130>
10000c1a:	9e02      	ldr	r6, [sp, #8]
10000c1c:	2e00      	cmp	r6, #0
10000c1e:	d11e      	bne.n	10000c5e <__aeabi_dadd+0x92>
10000c20:	001e      	movs	r6, r3
10000c22:	4316      	orrs	r6, r2
10000c24:	d100      	bne.n	10000c28 <__aeabi_dadd+0x5c>
10000c26:	e29b      	b.n	10001160 <__aeabi_dadd+0x594>
10000c28:	1e6e      	subs	r6, r5, #1
10000c2a:	2d01      	cmp	r5, #1
10000c2c:	d113      	bne.n	10000c56 <__aeabi_dadd+0x8a>
10000c2e:	1882      	adds	r2, r0, r2
10000c30:	4282      	cmp	r2, r0
10000c32:	4180      	sbcs	r0, r0
10000c34:	18c9      	adds	r1, r1, r3
10000c36:	4240      	negs	r0, r0
10000c38:	1809      	adds	r1, r1, r0
10000c3a:	2401      	movs	r4, #1
10000c3c:	0010      	movs	r0, r2
10000c3e:	020b      	lsls	r3, r1, #8
10000c40:	d400      	bmi.n	10000c44 <__aeabi_dadd+0x78>
10000c42:	e072      	b.n	10000d2a <__aeabi_dadd+0x15e>
10000c44:	2402      	movs	r4, #2
10000c46:	4baf      	ldr	r3, [pc, #700]	; (10000f04 <__aeabi_dadd+0x338>)
10000c48:	0842      	lsrs	r2, r0, #1
10000c4a:	400b      	ands	r3, r1
10000c4c:	2101      	movs	r1, #1
10000c4e:	4001      	ands	r1, r0
10000c50:	430a      	orrs	r2, r1
10000c52:	07d8      	lsls	r0, r3, #31
10000c54:	e106      	b.n	10000e64 <__aeabi_dadd+0x298>
10000c56:	4565      	cmp	r5, ip
10000c58:	d11c      	bne.n	10000c94 <__aeabi_dadd+0xc8>
10000c5a:	4ca9      	ldr	r4, [pc, #676]	; (10000f00 <__aeabi_dadd+0x334>)
10000c5c:	e065      	b.n	10000d2a <__aeabi_dadd+0x15e>
10000c5e:	4564      	cmp	r4, ip
10000c60:	d063      	beq.n	10000d2a <__aeabi_dadd+0x15e>
10000c62:	2d38      	cmp	r5, #56	; 0x38
10000c64:	dc47      	bgt.n	10000cf6 <__aeabi_dadd+0x12a>
10000c66:	2680      	movs	r6, #128	; 0x80
10000c68:	0436      	lsls	r6, r6, #16
10000c6a:	4333      	orrs	r3, r6
10000c6c:	002e      	movs	r6, r5
10000c6e:	2e1f      	cmp	r6, #31
10000c70:	dc2f      	bgt.n	10000cd2 <__aeabi_dadd+0x106>
10000c72:	2520      	movs	r5, #32
10000c74:	001f      	movs	r7, r3
10000c76:	1bad      	subs	r5, r5, r6
10000c78:	40af      	lsls	r7, r5
10000c7a:	9502      	str	r5, [sp, #8]
10000c7c:	003d      	movs	r5, r7
10000c7e:	0017      	movs	r7, r2
10000c80:	40f7      	lsrs	r7, r6
10000c82:	432f      	orrs	r7, r5
10000c84:	9d02      	ldr	r5, [sp, #8]
10000c86:	40f3      	lsrs	r3, r6
10000c88:	40aa      	lsls	r2, r5
10000c8a:	1e55      	subs	r5, r2, #1
10000c8c:	41aa      	sbcs	r2, r5
10000c8e:	001d      	movs	r5, r3
10000c90:	4317      	orrs	r7, r2
10000c92:	e003      	b.n	10000c9c <__aeabi_dadd+0xd0>
10000c94:	2701      	movs	r7, #1
10000c96:	9d02      	ldr	r5, [sp, #8]
10000c98:	2e38      	cmp	r6, #56	; 0x38
10000c9a:	dde8      	ble.n	10000c6e <__aeabi_dadd+0xa2>
10000c9c:	183f      	adds	r7, r7, r0
10000c9e:	4287      	cmp	r7, r0
10000ca0:	4180      	sbcs	r0, r0
10000ca2:	1869      	adds	r1, r5, r1
10000ca4:	4240      	negs	r0, r0
10000ca6:	1809      	adds	r1, r1, r0
10000ca8:	0038      	movs	r0, r7
10000caa:	020b      	lsls	r3, r1, #8
10000cac:	d53d      	bpl.n	10000d2a <__aeabi_dadd+0x15e>
10000cae:	2500      	movs	r5, #0
10000cb0:	3401      	adds	r4, #1
10000cb2:	002f      	movs	r7, r5
10000cb4:	4564      	cmp	r4, ip
10000cb6:	d1c6      	bne.n	10000c46 <__aeabi_dadd+0x7a>
10000cb8:	4b93      	ldr	r3, [pc, #588]	; (10000f08 <__aeabi_dadd+0x33c>)
10000cba:	0524      	lsls	r4, r4, #20
10000cbc:	401c      	ands	r4, r3
10000cbe:	033b      	lsls	r3, r7, #12
10000cc0:	0b1b      	lsrs	r3, r3, #12
10000cc2:	431c      	orrs	r4, r3
10000cc4:	9b01      	ldr	r3, [sp, #4]
10000cc6:	0028      	movs	r0, r5
10000cc8:	07db      	lsls	r3, r3, #31
10000cca:	431c      	orrs	r4, r3
10000ccc:	0021      	movs	r1, r4
10000cce:	b007      	add	sp, #28
10000cd0:	bdf0      	pop	{r4, r5, r6, r7, pc}
10000cd2:	0035      	movs	r5, r6
10000cd4:	001f      	movs	r7, r3
10000cd6:	3d20      	subs	r5, #32
10000cd8:	40ef      	lsrs	r7, r5
10000cda:	003d      	movs	r5, r7
10000cdc:	2700      	movs	r7, #0
10000cde:	2e20      	cmp	r6, #32
10000ce0:	d003      	beq.n	10000cea <__aeabi_dadd+0x11e>
10000ce2:	3740      	adds	r7, #64	; 0x40
10000ce4:	1bbf      	subs	r7, r7, r6
10000ce6:	40bb      	lsls	r3, r7
10000ce8:	001f      	movs	r7, r3
10000cea:	4317      	orrs	r7, r2
10000cec:	1e7b      	subs	r3, r7, #1
10000cee:	419f      	sbcs	r7, r3
10000cf0:	432f      	orrs	r7, r5
10000cf2:	2500      	movs	r5, #0
10000cf4:	e7d2      	b.n	10000c9c <__aeabi_dadd+0xd0>
10000cf6:	2500      	movs	r5, #0
10000cf8:	2701      	movs	r7, #1
10000cfa:	e7cf      	b.n	10000c9c <__aeabi_dadd+0xd0>
10000cfc:	2d00      	cmp	r5, #0
10000cfe:	d06f      	beq.n	10000de0 <__aeabi_dadd+0x214>
10000d00:	9d02      	ldr	r5, [sp, #8]
10000d02:	1b2e      	subs	r6, r5, r4
10000d04:	2c00      	cmp	r4, #0
10000d06:	d130      	bne.n	10000d6a <__aeabi_dadd+0x19e>
10000d08:	000d      	movs	r5, r1
10000d0a:	4305      	orrs	r5, r0
10000d0c:	d100      	bne.n	10000d10 <__aeabi_dadd+0x144>
10000d0e:	e221      	b.n	10001154 <__aeabi_dadd+0x588>
10000d10:	1e75      	subs	r5, r6, #1
10000d12:	2e01      	cmp	r6, #1
10000d14:	d124      	bne.n	10000d60 <__aeabi_dadd+0x194>
10000d16:	1880      	adds	r0, r0, r2
10000d18:	4290      	cmp	r0, r2
10000d1a:	4192      	sbcs	r2, r2
10000d1c:	18c9      	adds	r1, r1, r3
10000d1e:	4252      	negs	r2, r2
10000d20:	1889      	adds	r1, r1, r2
10000d22:	3401      	adds	r4, #1
10000d24:	020b      	lsls	r3, r1, #8
10000d26:	d500      	bpl.n	10000d2a <__aeabi_dadd+0x15e>
10000d28:	e78c      	b.n	10000c44 <__aeabi_dadd+0x78>
10000d2a:	0743      	lsls	r3, r0, #29
10000d2c:	d009      	beq.n	10000d42 <__aeabi_dadd+0x176>
10000d2e:	230f      	movs	r3, #15
10000d30:	4003      	ands	r3, r0
10000d32:	2b04      	cmp	r3, #4
10000d34:	d005      	beq.n	10000d42 <__aeabi_dadd+0x176>
10000d36:	1d03      	adds	r3, r0, #4
10000d38:	4283      	cmp	r3, r0
10000d3a:	4180      	sbcs	r0, r0
10000d3c:	4240      	negs	r0, r0
10000d3e:	1809      	adds	r1, r1, r0
10000d40:	0018      	movs	r0, r3
10000d42:	4b6f      	ldr	r3, [pc, #444]	; (10000f00 <__aeabi_dadd+0x334>)
10000d44:	020a      	lsls	r2, r1, #8
10000d46:	d400      	bmi.n	10000d4a <__aeabi_dadd+0x17e>
10000d48:	e210      	b.n	1000116c <__aeabi_dadd+0x5a0>
10000d4a:	2500      	movs	r5, #0
10000d4c:	3401      	adds	r4, #1
10000d4e:	002f      	movs	r7, r5
10000d50:	429c      	cmp	r4, r3
10000d52:	d0b1      	beq.n	10000cb8 <__aeabi_dadd+0xec>
10000d54:	4b6b      	ldr	r3, [pc, #428]	; (10000f04 <__aeabi_dadd+0x338>)
10000d56:	08c0      	lsrs	r0, r0, #3
10000d58:	400b      	ands	r3, r1
10000d5a:	075d      	lsls	r5, r3, #29
10000d5c:	4305      	orrs	r5, r0
10000d5e:	e1f2      	b.n	10001146 <__aeabi_dadd+0x57a>
10000d60:	4566      	cmp	r6, ip
10000d62:	d11d      	bne.n	10000da0 <__aeabi_dadd+0x1d4>
10000d64:	0019      	movs	r1, r3
10000d66:	0010      	movs	r0, r2
10000d68:	e777      	b.n	10000c5a <__aeabi_dadd+0x8e>
10000d6a:	9c02      	ldr	r4, [sp, #8]
10000d6c:	4564      	cmp	r4, ip
10000d6e:	d0f9      	beq.n	10000d64 <__aeabi_dadd+0x198>
10000d70:	2e38      	cmp	r6, #56	; 0x38
10000d72:	dc32      	bgt.n	10000dda <__aeabi_dadd+0x20e>
10000d74:	2480      	movs	r4, #128	; 0x80
10000d76:	0035      	movs	r5, r6
10000d78:	0424      	lsls	r4, r4, #16
10000d7a:	4321      	orrs	r1, r4
10000d7c:	2d1f      	cmp	r5, #31
10000d7e:	dc1a      	bgt.n	10000db6 <__aeabi_dadd+0x1ea>
10000d80:	2420      	movs	r4, #32
10000d82:	000e      	movs	r6, r1
10000d84:	1b67      	subs	r7, r4, r5
10000d86:	40be      	lsls	r6, r7
10000d88:	0034      	movs	r4, r6
10000d8a:	0006      	movs	r6, r0
10000d8c:	40b8      	lsls	r0, r7
10000d8e:	40ee      	lsrs	r6, r5
10000d90:	4334      	orrs	r4, r6
10000d92:	0006      	movs	r6, r0
10000d94:	40e9      	lsrs	r1, r5
10000d96:	1e70      	subs	r0, r6, #1
10000d98:	4186      	sbcs	r6, r0
10000d9a:	4326      	orrs	r6, r4
10000d9c:	000c      	movs	r4, r1
10000d9e:	e002      	b.n	10000da6 <__aeabi_dadd+0x1da>
10000da0:	2601      	movs	r6, #1
10000da2:	2d38      	cmp	r5, #56	; 0x38
10000da4:	ddea      	ble.n	10000d7c <__aeabi_dadd+0x1b0>
10000da6:	18b0      	adds	r0, r6, r2
10000da8:	4290      	cmp	r0, r2
10000daa:	4192      	sbcs	r2, r2
10000dac:	18e4      	adds	r4, r4, r3
10000dae:	4252      	negs	r2, r2
10000db0:	18a1      	adds	r1, r4, r2
10000db2:	9c02      	ldr	r4, [sp, #8]
10000db4:	e779      	b.n	10000caa <__aeabi_dadd+0xde>
10000db6:	002c      	movs	r4, r5
10000db8:	000e      	movs	r6, r1
10000dba:	3c20      	subs	r4, #32
10000dbc:	40e6      	lsrs	r6, r4
10000dbe:	0034      	movs	r4, r6
10000dc0:	2600      	movs	r6, #0
10000dc2:	2d20      	cmp	r5, #32
10000dc4:	d003      	beq.n	10000dce <__aeabi_dadd+0x202>
10000dc6:	3640      	adds	r6, #64	; 0x40
10000dc8:	1b76      	subs	r6, r6, r5
10000dca:	40b1      	lsls	r1, r6
10000dcc:	000e      	movs	r6, r1
10000dce:	4306      	orrs	r6, r0
10000dd0:	1e71      	subs	r1, r6, #1
10000dd2:	418e      	sbcs	r6, r1
10000dd4:	4326      	orrs	r6, r4
10000dd6:	2400      	movs	r4, #0
10000dd8:	e7e5      	b.n	10000da6 <__aeabi_dadd+0x1da>
10000dda:	2400      	movs	r4, #0
10000ddc:	2601      	movs	r6, #1
10000dde:	e7e2      	b.n	10000da6 <__aeabi_dadd+0x1da>
10000de0:	4f4a      	ldr	r7, [pc, #296]	; (10000f0c <__aeabi_dadd+0x340>)
10000de2:	1c66      	adds	r6, r4, #1
10000de4:	423e      	tst	r6, r7
10000de6:	d130      	bne.n	10000e4a <__aeabi_dadd+0x27e>
10000de8:	000d      	movs	r5, r1
10000dea:	4305      	orrs	r5, r0
10000dec:	2c00      	cmp	r4, #0
10000dee:	d112      	bne.n	10000e16 <__aeabi_dadd+0x24a>
10000df0:	2d00      	cmp	r5, #0
10000df2:	d100      	bne.n	10000df6 <__aeabi_dadd+0x22a>
10000df4:	e1b1      	b.n	1000115a <__aeabi_dadd+0x58e>
10000df6:	001d      	movs	r5, r3
10000df8:	4315      	orrs	r5, r2
10000dfa:	d096      	beq.n	10000d2a <__aeabi_dadd+0x15e>
10000dfc:	1882      	adds	r2, r0, r2
10000dfe:	4282      	cmp	r2, r0
10000e00:	4180      	sbcs	r0, r0
10000e02:	18c9      	adds	r1, r1, r3
10000e04:	4240      	negs	r0, r0
10000e06:	1809      	adds	r1, r1, r0
10000e08:	0010      	movs	r0, r2
10000e0a:	020b      	lsls	r3, r1, #8
10000e0c:	d58d      	bpl.n	10000d2a <__aeabi_dadd+0x15e>
10000e0e:	4b3d      	ldr	r3, [pc, #244]	; (10000f04 <__aeabi_dadd+0x338>)
10000e10:	4019      	ands	r1, r3
10000e12:	0034      	movs	r4, r6
10000e14:	e789      	b.n	10000d2a <__aeabi_dadd+0x15e>
10000e16:	2d00      	cmp	r5, #0
10000e18:	d0a4      	beq.n	10000d64 <__aeabi_dadd+0x198>
10000e1a:	001d      	movs	r5, r3
10000e1c:	4664      	mov	r4, ip
10000e1e:	4315      	orrs	r5, r2
10000e20:	d083      	beq.n	10000d2a <__aeabi_dadd+0x15e>
10000e22:	2580      	movs	r5, #128	; 0x80
10000e24:	074c      	lsls	r4, r1, #29
10000e26:	08c0      	lsrs	r0, r0, #3
10000e28:	08c9      	lsrs	r1, r1, #3
10000e2a:	032d      	lsls	r5, r5, #12
10000e2c:	4320      	orrs	r0, r4
10000e2e:	4229      	tst	r1, r5
10000e30:	d006      	beq.n	10000e40 <__aeabi_dadd+0x274>
10000e32:	08dc      	lsrs	r4, r3, #3
10000e34:	422c      	tst	r4, r5
10000e36:	d103      	bne.n	10000e40 <__aeabi_dadd+0x274>
10000e38:	0021      	movs	r1, r4
10000e3a:	08d0      	lsrs	r0, r2, #3
10000e3c:	075b      	lsls	r3, r3, #29
10000e3e:	4318      	orrs	r0, r3
10000e40:	00cb      	lsls	r3, r1, #3
10000e42:	0f41      	lsrs	r1, r0, #29
10000e44:	4319      	orrs	r1, r3
10000e46:	00c0      	lsls	r0, r0, #3
10000e48:	e707      	b.n	10000c5a <__aeabi_dadd+0x8e>
10000e4a:	0034      	movs	r4, r6
10000e4c:	002f      	movs	r7, r5
10000e4e:	4566      	cmp	r6, ip
10000e50:	d100      	bne.n	10000e54 <__aeabi_dadd+0x288>
10000e52:	e731      	b.n	10000cb8 <__aeabi_dadd+0xec>
10000e54:	1882      	adds	r2, r0, r2
10000e56:	4282      	cmp	r2, r0
10000e58:	4180      	sbcs	r0, r0
10000e5a:	18cb      	adds	r3, r1, r3
10000e5c:	4240      	negs	r0, r0
10000e5e:	181b      	adds	r3, r3, r0
10000e60:	07d8      	lsls	r0, r3, #31
10000e62:	0852      	lsrs	r2, r2, #1
10000e64:	4310      	orrs	r0, r2
10000e66:	0859      	lsrs	r1, r3, #1
10000e68:	e75f      	b.n	10000d2a <__aeabi_dadd+0x15e>
10000e6a:	2d00      	cmp	r5, #0
10000e6c:	dd65      	ble.n	10000f3a <__aeabi_dadd+0x36e>
10000e6e:	9e02      	ldr	r6, [sp, #8]
10000e70:	2e00      	cmp	r6, #0
10000e72:	d125      	bne.n	10000ec0 <__aeabi_dadd+0x2f4>
10000e74:	001e      	movs	r6, r3
10000e76:	4316      	orrs	r6, r2
10000e78:	d100      	bne.n	10000e7c <__aeabi_dadd+0x2b0>
10000e7a:	e171      	b.n	10001160 <__aeabi_dadd+0x594>
10000e7c:	1e6e      	subs	r6, r5, #1
10000e7e:	2d01      	cmp	r5, #1
10000e80:	d10e      	bne.n	10000ea0 <__aeabi_dadd+0x2d4>
10000e82:	1a82      	subs	r2, r0, r2
10000e84:	4290      	cmp	r0, r2
10000e86:	4180      	sbcs	r0, r0
10000e88:	1ac9      	subs	r1, r1, r3
10000e8a:	4240      	negs	r0, r0
10000e8c:	1a09      	subs	r1, r1, r0
10000e8e:	2401      	movs	r4, #1
10000e90:	0010      	movs	r0, r2
10000e92:	020b      	lsls	r3, r1, #8
10000e94:	d400      	bmi.n	10000e98 <__aeabi_dadd+0x2cc>
10000e96:	e748      	b.n	10000d2a <__aeabi_dadd+0x15e>
10000e98:	0249      	lsls	r1, r1, #9
10000e9a:	0006      	movs	r6, r0
10000e9c:	0a4d      	lsrs	r5, r1, #9
10000e9e:	e107      	b.n	100010b0 <__aeabi_dadd+0x4e4>
10000ea0:	4f17      	ldr	r7, [pc, #92]	; (10000f00 <__aeabi_dadd+0x334>)
10000ea2:	42bd      	cmp	r5, r7
10000ea4:	d100      	bne.n	10000ea8 <__aeabi_dadd+0x2dc>
10000ea6:	e6d8      	b.n	10000c5a <__aeabi_dadd+0x8e>
10000ea8:	2501      	movs	r5, #1
10000eaa:	9f02      	ldr	r7, [sp, #8]
10000eac:	2e38      	cmp	r6, #56	; 0x38
10000eae:	dd11      	ble.n	10000ed4 <__aeabi_dadd+0x308>
10000eb0:	1b45      	subs	r5, r0, r5
10000eb2:	42a8      	cmp	r0, r5
10000eb4:	4180      	sbcs	r0, r0
10000eb6:	1bc9      	subs	r1, r1, r7
10000eb8:	4240      	negs	r0, r0
10000eba:	1a09      	subs	r1, r1, r0
10000ebc:	0028      	movs	r0, r5
10000ebe:	e7e8      	b.n	10000e92 <__aeabi_dadd+0x2c6>
10000ec0:	4e0f      	ldr	r6, [pc, #60]	; (10000f00 <__aeabi_dadd+0x334>)
10000ec2:	42b4      	cmp	r4, r6
10000ec4:	d100      	bne.n	10000ec8 <__aeabi_dadd+0x2fc>
10000ec6:	e730      	b.n	10000d2a <__aeabi_dadd+0x15e>
10000ec8:	2d38      	cmp	r5, #56	; 0x38
10000eca:	dc33      	bgt.n	10000f34 <__aeabi_dadd+0x368>
10000ecc:	2680      	movs	r6, #128	; 0x80
10000ece:	0436      	lsls	r6, r6, #16
10000ed0:	4333      	orrs	r3, r6
10000ed2:	002e      	movs	r6, r5
10000ed4:	2e1f      	cmp	r6, #31
10000ed6:	dc1b      	bgt.n	10000f10 <__aeabi_dadd+0x344>
10000ed8:	2720      	movs	r7, #32
10000eda:	1bbd      	subs	r5, r7, r6
10000edc:	9502      	str	r5, [sp, #8]
10000ede:	001d      	movs	r5, r3
10000ee0:	9f02      	ldr	r7, [sp, #8]
10000ee2:	40f3      	lsrs	r3, r6
10000ee4:	40bd      	lsls	r5, r7
10000ee6:	46ac      	mov	ip, r5
10000ee8:	0015      	movs	r5, r2
10000eea:	4667      	mov	r7, ip
10000eec:	40f5      	lsrs	r5, r6
10000eee:	433d      	orrs	r5, r7
10000ef0:	9f02      	ldr	r7, [sp, #8]
10000ef2:	40ba      	lsls	r2, r7
10000ef4:	1e57      	subs	r7, r2, #1
10000ef6:	41ba      	sbcs	r2, r7
10000ef8:	001f      	movs	r7, r3
10000efa:	4315      	orrs	r5, r2
10000efc:	e7d8      	b.n	10000eb0 <__aeabi_dadd+0x2e4>
10000efe:	46c0      	nop			; (mov r8, r8)
10000f00:	000007ff 	.word	0x000007ff
10000f04:	ff7fffff 	.word	0xff7fffff
10000f08:	7ff00000 	.word	0x7ff00000
10000f0c:	000007fe 	.word	0x000007fe
10000f10:	0035      	movs	r5, r6
10000f12:	001f      	movs	r7, r3
10000f14:	3d20      	subs	r5, #32
10000f16:	40ef      	lsrs	r7, r5
10000f18:	003d      	movs	r5, r7
10000f1a:	2700      	movs	r7, #0
10000f1c:	2e20      	cmp	r6, #32
10000f1e:	d003      	beq.n	10000f28 <__aeabi_dadd+0x35c>
10000f20:	3740      	adds	r7, #64	; 0x40
10000f22:	1bbe      	subs	r6, r7, r6
10000f24:	40b3      	lsls	r3, r6
10000f26:	001f      	movs	r7, r3
10000f28:	4317      	orrs	r7, r2
10000f2a:	1e7b      	subs	r3, r7, #1
10000f2c:	419f      	sbcs	r7, r3
10000f2e:	433d      	orrs	r5, r7
10000f30:	2700      	movs	r7, #0
10000f32:	e7bd      	b.n	10000eb0 <__aeabi_dadd+0x2e4>
10000f34:	2700      	movs	r7, #0
10000f36:	2501      	movs	r5, #1
10000f38:	e7ba      	b.n	10000eb0 <__aeabi_dadd+0x2e4>
10000f3a:	2d00      	cmp	r5, #0
10000f3c:	d059      	beq.n	10000ff2 <__aeabi_dadd+0x426>
10000f3e:	9d02      	ldr	r5, [sp, #8]
10000f40:	1b2e      	subs	r6, r5, r4
10000f42:	2c00      	cmp	r4, #0
10000f44:	d116      	bne.n	10000f74 <__aeabi_dadd+0x3a8>
10000f46:	000d      	movs	r5, r1
10000f48:	4305      	orrs	r5, r0
10000f4a:	d00f      	beq.n	10000f6c <__aeabi_dadd+0x3a0>
10000f4c:	1e75      	subs	r5, r6, #1
10000f4e:	2e01      	cmp	r6, #1
10000f50:	d109      	bne.n	10000f66 <__aeabi_dadd+0x39a>
10000f52:	1a10      	subs	r0, r2, r0
10000f54:	4282      	cmp	r2, r0
10000f56:	4192      	sbcs	r2, r2
10000f58:	1a59      	subs	r1, r3, r1
10000f5a:	9b03      	ldr	r3, [sp, #12]
10000f5c:	4252      	negs	r2, r2
10000f5e:	1a89      	subs	r1, r1, r2
10000f60:	9301      	str	r3, [sp, #4]
10000f62:	3401      	adds	r4, #1
10000f64:	e795      	b.n	10000e92 <__aeabi_dadd+0x2c6>
10000f66:	4f8e      	ldr	r7, [pc, #568]	; (100011a0 <__aeabi_dadd+0x5d4>)
10000f68:	42be      	cmp	r6, r7
10000f6a:	d121      	bne.n	10000fb0 <__aeabi_dadd+0x3e4>
10000f6c:	0019      	movs	r1, r3
10000f6e:	0010      	movs	r0, r2
10000f70:	0034      	movs	r4, r6
10000f72:	e050      	b.n	10001016 <__aeabi_dadd+0x44a>
10000f74:	4c8a      	ldr	r4, [pc, #552]	; (100011a0 <__aeabi_dadd+0x5d4>)
10000f76:	9d02      	ldr	r5, [sp, #8]
10000f78:	42a5      	cmp	r5, r4
10000f7a:	d100      	bne.n	10000f7e <__aeabi_dadd+0x3b2>
10000f7c:	e0f2      	b.n	10001164 <__aeabi_dadd+0x598>
10000f7e:	2e38      	cmp	r6, #56	; 0x38
10000f80:	dc34      	bgt.n	10000fec <__aeabi_dadd+0x420>
10000f82:	2480      	movs	r4, #128	; 0x80
10000f84:	0035      	movs	r5, r6
10000f86:	0424      	lsls	r4, r4, #16
10000f88:	4321      	orrs	r1, r4
10000f8a:	2d1f      	cmp	r5, #31
10000f8c:	dc1d      	bgt.n	10000fca <__aeabi_dadd+0x3fe>
10000f8e:	2620      	movs	r6, #32
10000f90:	000c      	movs	r4, r1
10000f92:	1b76      	subs	r6, r6, r5
10000f94:	40b4      	lsls	r4, r6
10000f96:	46a4      	mov	ip, r4
10000f98:	0004      	movs	r4, r0
10000f9a:	40b0      	lsls	r0, r6
10000f9c:	40ec      	lsrs	r4, r5
10000f9e:	4667      	mov	r7, ip
10000fa0:	1e46      	subs	r6, r0, #1
10000fa2:	41b0      	sbcs	r0, r6
10000fa4:	40e9      	lsrs	r1, r5
10000fa6:	433c      	orrs	r4, r7
10000fa8:	4304      	orrs	r4, r0
10000faa:	0026      	movs	r6, r4
10000fac:	000c      	movs	r4, r1
10000fae:	e002      	b.n	10000fb6 <__aeabi_dadd+0x3ea>
10000fb0:	2601      	movs	r6, #1
10000fb2:	2d38      	cmp	r5, #56	; 0x38
10000fb4:	dde9      	ble.n	10000f8a <__aeabi_dadd+0x3be>
10000fb6:	1b90      	subs	r0, r2, r6
10000fb8:	4282      	cmp	r2, r0
10000fba:	4192      	sbcs	r2, r2
10000fbc:	1b1c      	subs	r4, r3, r4
10000fbe:	9b03      	ldr	r3, [sp, #12]
10000fc0:	4252      	negs	r2, r2
10000fc2:	1aa1      	subs	r1, r4, r2
10000fc4:	9301      	str	r3, [sp, #4]
10000fc6:	9c02      	ldr	r4, [sp, #8]
10000fc8:	e763      	b.n	10000e92 <__aeabi_dadd+0x2c6>
10000fca:	002c      	movs	r4, r5
10000fcc:	000e      	movs	r6, r1
10000fce:	3c20      	subs	r4, #32
10000fd0:	40e6      	lsrs	r6, r4
10000fd2:	2400      	movs	r4, #0
10000fd4:	2d20      	cmp	r5, #32
10000fd6:	d003      	beq.n	10000fe0 <__aeabi_dadd+0x414>
10000fd8:	3440      	adds	r4, #64	; 0x40
10000fda:	1b64      	subs	r4, r4, r5
10000fdc:	40a1      	lsls	r1, r4
10000fde:	000c      	movs	r4, r1
10000fe0:	4304      	orrs	r4, r0
10000fe2:	1e61      	subs	r1, r4, #1
10000fe4:	418c      	sbcs	r4, r1
10000fe6:	4326      	orrs	r6, r4
10000fe8:	2400      	movs	r4, #0
10000fea:	e7e4      	b.n	10000fb6 <__aeabi_dadd+0x3ea>
10000fec:	2400      	movs	r4, #0
10000fee:	2601      	movs	r6, #1
10000ff0:	e7e1      	b.n	10000fb6 <__aeabi_dadd+0x3ea>
10000ff2:	4e6c      	ldr	r6, [pc, #432]	; (100011a4 <__aeabi_dadd+0x5d8>)
10000ff4:	1c65      	adds	r5, r4, #1
10000ff6:	4235      	tst	r5, r6
10000ff8:	d14a      	bne.n	10001090 <__aeabi_dadd+0x4c4>
10000ffa:	000d      	movs	r5, r1
10000ffc:	001f      	movs	r7, r3
10000ffe:	4305      	orrs	r5, r0
10001000:	4317      	orrs	r7, r2
10001002:	2c00      	cmp	r4, #0
10001004:	d123      	bne.n	1000104e <__aeabi_dadd+0x482>
10001006:	2d00      	cmp	r5, #0
10001008:	d108      	bne.n	1000101c <__aeabi_dadd+0x450>
1000100a:	1e3d      	subs	r5, r7, #0
1000100c:	9701      	str	r7, [sp, #4]
1000100e:	d100      	bne.n	10001012 <__aeabi_dadd+0x446>
10001010:	e652      	b.n	10000cb8 <__aeabi_dadd+0xec>
10001012:	0019      	movs	r1, r3
10001014:	0010      	movs	r0, r2
10001016:	9b03      	ldr	r3, [sp, #12]
10001018:	9301      	str	r3, [sp, #4]
1000101a:	e686      	b.n	10000d2a <__aeabi_dadd+0x15e>
1000101c:	2f00      	cmp	r7, #0
1000101e:	d100      	bne.n	10001022 <__aeabi_dadd+0x456>
10001020:	e683      	b.n	10000d2a <__aeabi_dadd+0x15e>
10001022:	1a86      	subs	r6, r0, r2
10001024:	42b0      	cmp	r0, r6
10001026:	41bf      	sbcs	r7, r7
10001028:	1acd      	subs	r5, r1, r3
1000102a:	427f      	negs	r7, r7
1000102c:	1bed      	subs	r5, r5, r7
1000102e:	022f      	lsls	r7, r5, #8
10001030:	d506      	bpl.n	10001040 <__aeabi_dadd+0x474>
10001032:	1a10      	subs	r0, r2, r0
10001034:	4282      	cmp	r2, r0
10001036:	4192      	sbcs	r2, r2
10001038:	1a59      	subs	r1, r3, r1
1000103a:	4252      	negs	r2, r2
1000103c:	1a89      	subs	r1, r1, r2
1000103e:	e7ea      	b.n	10001016 <__aeabi_dadd+0x44a>
10001040:	0037      	movs	r7, r6
10001042:	432f      	orrs	r7, r5
10001044:	d100      	bne.n	10001048 <__aeabi_dadd+0x47c>
10001046:	e0a5      	b.n	10001194 <__aeabi_dadd+0x5c8>
10001048:	0029      	movs	r1, r5
1000104a:	0030      	movs	r0, r6
1000104c:	e66d      	b.n	10000d2a <__aeabi_dadd+0x15e>
1000104e:	2d00      	cmp	r5, #0
10001050:	d107      	bne.n	10001062 <__aeabi_dadd+0x496>
10001052:	2f00      	cmp	r7, #0
10001054:	d100      	bne.n	10001058 <__aeabi_dadd+0x48c>
10001056:	e094      	b.n	10001182 <__aeabi_dadd+0x5b6>
10001058:	0019      	movs	r1, r3
1000105a:	9b03      	ldr	r3, [sp, #12]
1000105c:	0010      	movs	r0, r2
1000105e:	9301      	str	r3, [sp, #4]
10001060:	e5fb      	b.n	10000c5a <__aeabi_dadd+0x8e>
10001062:	2f00      	cmp	r7, #0
10001064:	d100      	bne.n	10001068 <__aeabi_dadd+0x49c>
10001066:	e5f8      	b.n	10000c5a <__aeabi_dadd+0x8e>
10001068:	2580      	movs	r5, #128	; 0x80
1000106a:	074c      	lsls	r4, r1, #29
1000106c:	08c0      	lsrs	r0, r0, #3
1000106e:	08c9      	lsrs	r1, r1, #3
10001070:	032d      	lsls	r5, r5, #12
10001072:	4320      	orrs	r0, r4
10001074:	4229      	tst	r1, r5
10001076:	d100      	bne.n	1000107a <__aeabi_dadd+0x4ae>
10001078:	e6e2      	b.n	10000e40 <__aeabi_dadd+0x274>
1000107a:	08dc      	lsrs	r4, r3, #3
1000107c:	422c      	tst	r4, r5
1000107e:	d000      	beq.n	10001082 <__aeabi_dadd+0x4b6>
10001080:	e6de      	b.n	10000e40 <__aeabi_dadd+0x274>
10001082:	075b      	lsls	r3, r3, #29
10001084:	08d0      	lsrs	r0, r2, #3
10001086:	4318      	orrs	r0, r3
10001088:	9b03      	ldr	r3, [sp, #12]
1000108a:	0021      	movs	r1, r4
1000108c:	9301      	str	r3, [sp, #4]
1000108e:	e6d7      	b.n	10000e40 <__aeabi_dadd+0x274>
10001090:	1a86      	subs	r6, r0, r2
10001092:	42b0      	cmp	r0, r6
10001094:	41bf      	sbcs	r7, r7
10001096:	1acd      	subs	r5, r1, r3
10001098:	427f      	negs	r7, r7
1000109a:	1bed      	subs	r5, r5, r7
1000109c:	022f      	lsls	r7, r5, #8
1000109e:	d528      	bpl.n	100010f2 <__aeabi_dadd+0x526>
100010a0:	1a16      	subs	r6, r2, r0
100010a2:	42b2      	cmp	r2, r6
100010a4:	4192      	sbcs	r2, r2
100010a6:	1a5b      	subs	r3, r3, r1
100010a8:	4252      	negs	r2, r2
100010aa:	1a9d      	subs	r5, r3, r2
100010ac:	9b03      	ldr	r3, [sp, #12]
100010ae:	9301      	str	r3, [sp, #4]
100010b0:	2d00      	cmp	r5, #0
100010b2:	d025      	beq.n	10001100 <__aeabi_dadd+0x534>
100010b4:	0028      	movs	r0, r5
100010b6:	f7ff f965 	bl	10000384 <__clzsi2>
100010ba:	0003      	movs	r3, r0
100010bc:	3b08      	subs	r3, #8
100010be:	2220      	movs	r2, #32
100010c0:	0031      	movs	r1, r6
100010c2:	1ad2      	subs	r2, r2, r3
100010c4:	409d      	lsls	r5, r3
100010c6:	40d1      	lsrs	r1, r2
100010c8:	4329      	orrs	r1, r5
100010ca:	0035      	movs	r5, r6
100010cc:	409d      	lsls	r5, r3
100010ce:	429c      	cmp	r4, r3
100010d0:	dc3b      	bgt.n	1000114a <__aeabi_dadd+0x57e>
100010d2:	1b1a      	subs	r2, r3, r4
100010d4:	3201      	adds	r2, #1
100010d6:	2320      	movs	r3, #32
100010d8:	0008      	movs	r0, r1
100010da:	1a9b      	subs	r3, r3, r2
100010dc:	002c      	movs	r4, r5
100010de:	409d      	lsls	r5, r3
100010e0:	4098      	lsls	r0, r3
100010e2:	40d4      	lsrs	r4, r2
100010e4:	1e6b      	subs	r3, r5, #1
100010e6:	419d      	sbcs	r5, r3
100010e8:	40d1      	lsrs	r1, r2
100010ea:	4320      	orrs	r0, r4
100010ec:	4328      	orrs	r0, r5
100010ee:	2400      	movs	r4, #0
100010f0:	e61b      	b.n	10000d2a <__aeabi_dadd+0x15e>
100010f2:	0037      	movs	r7, r6
100010f4:	432f      	orrs	r7, r5
100010f6:	d1db      	bne.n	100010b0 <__aeabi_dadd+0x4e4>
100010f8:	003d      	movs	r5, r7
100010fa:	003c      	movs	r4, r7
100010fc:	9701      	str	r7, [sp, #4]
100010fe:	e5db      	b.n	10000cb8 <__aeabi_dadd+0xec>
10001100:	0030      	movs	r0, r6
10001102:	f7ff f93f 	bl	10000384 <__clzsi2>
10001106:	0003      	movs	r3, r0
10001108:	3318      	adds	r3, #24
1000110a:	2b1f      	cmp	r3, #31
1000110c:	ddd7      	ble.n	100010be <__aeabi_dadd+0x4f2>
1000110e:	0031      	movs	r1, r6
10001110:	3808      	subs	r0, #8
10001112:	4081      	lsls	r1, r0
10001114:	429c      	cmp	r4, r3
10001116:	dc12      	bgt.n	1000113e <__aeabi_dadd+0x572>
10001118:	1b1b      	subs	r3, r3, r4
1000111a:	1c5a      	adds	r2, r3, #1
1000111c:	2a1f      	cmp	r2, #31
1000111e:	ddda      	ble.n	100010d6 <__aeabi_dadd+0x50a>
10001120:	000c      	movs	r4, r1
10001122:	3b1f      	subs	r3, #31
10001124:	40dc      	lsrs	r4, r3
10001126:	0028      	movs	r0, r5
10001128:	2a20      	cmp	r2, #32
1000112a:	d003      	beq.n	10001134 <__aeabi_dadd+0x568>
1000112c:	2340      	movs	r3, #64	; 0x40
1000112e:	1a9b      	subs	r3, r3, r2
10001130:	4099      	lsls	r1, r3
10001132:	0008      	movs	r0, r1
10001134:	1e43      	subs	r3, r0, #1
10001136:	4198      	sbcs	r0, r3
10001138:	2100      	movs	r1, #0
1000113a:	4320      	orrs	r0, r4
1000113c:	e7d7      	b.n	100010ee <__aeabi_dadd+0x522>
1000113e:	1ae4      	subs	r4, r4, r3
10001140:	4b19      	ldr	r3, [pc, #100]	; (100011a8 <__aeabi_dadd+0x5dc>)
10001142:	400b      	ands	r3, r1
10001144:	075d      	lsls	r5, r3, #29
10001146:	08df      	lsrs	r7, r3, #3
10001148:	e5b6      	b.n	10000cb8 <__aeabi_dadd+0xec>
1000114a:	1ae4      	subs	r4, r4, r3
1000114c:	4b16      	ldr	r3, [pc, #88]	; (100011a8 <__aeabi_dadd+0x5dc>)
1000114e:	0028      	movs	r0, r5
10001150:	4019      	ands	r1, r3
10001152:	e5ea      	b.n	10000d2a <__aeabi_dadd+0x15e>
10001154:	0019      	movs	r1, r3
10001156:	0010      	movs	r0, r2
10001158:	e65b      	b.n	10000e12 <__aeabi_dadd+0x246>
1000115a:	0019      	movs	r1, r3
1000115c:	0010      	movs	r0, r2
1000115e:	e5e4      	b.n	10000d2a <__aeabi_dadd+0x15e>
10001160:	002c      	movs	r4, r5
10001162:	e5e2      	b.n	10000d2a <__aeabi_dadd+0x15e>
10001164:	0019      	movs	r1, r3
10001166:	0010      	movs	r0, r2
10001168:	9c02      	ldr	r4, [sp, #8]
1000116a:	e754      	b.n	10001016 <__aeabi_dadd+0x44a>
1000116c:	074a      	lsls	r2, r1, #29
1000116e:	08c7      	lsrs	r7, r0, #3
10001170:	4317      	orrs	r7, r2
10001172:	003d      	movs	r5, r7
10001174:	08c9      	lsrs	r1, r1, #3
10001176:	429c      	cmp	r4, r3
10001178:	d10f      	bne.n	1000119a <__aeabi_dadd+0x5ce>
1000117a:	430d      	orrs	r5, r1
1000117c:	d104      	bne.n	10001188 <__aeabi_dadd+0x5bc>
1000117e:	002f      	movs	r7, r5
10001180:	e59a      	b.n	10000cb8 <__aeabi_dadd+0xec>
10001182:	2180      	movs	r1, #128	; 0x80
10001184:	9701      	str	r7, [sp, #4]
10001186:	0309      	lsls	r1, r1, #12
10001188:	003d      	movs	r5, r7
1000118a:	2780      	movs	r7, #128	; 0x80
1000118c:	033f      	lsls	r7, r7, #12
1000118e:	4c04      	ldr	r4, [pc, #16]	; (100011a0 <__aeabi_dadd+0x5d4>)
10001190:	430f      	orrs	r7, r1
10001192:	e591      	b.n	10000cb8 <__aeabi_dadd+0xec>
10001194:	003d      	movs	r5, r7
10001196:	9701      	str	r7, [sp, #4]
10001198:	e58e      	b.n	10000cb8 <__aeabi_dadd+0xec>
1000119a:	000f      	movs	r7, r1
1000119c:	e58c      	b.n	10000cb8 <__aeabi_dadd+0xec>
1000119e:	46c0      	nop			; (mov r8, r8)
100011a0:	000007ff 	.word	0x000007ff
100011a4:	000007fe 	.word	0x000007fe
100011a8:	ff7fffff 	.word	0xff7fffff

100011ac <__eqdf2>:
100011ac:	b5f0      	push	{r4, r5, r6, r7, lr}
100011ae:	000d      	movs	r5, r1
100011b0:	b087      	sub	sp, #28
100011b2:	9200      	str	r2, [sp, #0]
100011b4:	9301      	str	r3, [sp, #4]
100011b6:	0004      	movs	r4, r0
100011b8:	9004      	str	r0, [sp, #16]
100011ba:	9801      	ldr	r0, [sp, #4]
100011bc:	0feb      	lsrs	r3, r5, #31
100011be:	0046      	lsls	r6, r0, #1
100011c0:	0fc7      	lsrs	r7, r0, #31
100011c2:	481a      	ldr	r0, [pc, #104]	; (1000122c <__eqdf2+0x80>)
100011c4:	9303      	str	r3, [sp, #12]
100011c6:	4684      	mov	ip, r0
100011c8:	9b00      	ldr	r3, [sp, #0]
100011ca:	0309      	lsls	r1, r1, #12
100011cc:	9305      	str	r3, [sp, #20]
100011ce:	9b01      	ldr	r3, [sp, #4]
100011d0:	006a      	lsls	r2, r5, #1
100011d2:	031b      	lsls	r3, r3, #12
100011d4:	2001      	movs	r0, #1
100011d6:	0b09      	lsrs	r1, r1, #12
100011d8:	0d52      	lsrs	r2, r2, #21
100011da:	0b1b      	lsrs	r3, r3, #12
100011dc:	0d76      	lsrs	r6, r6, #21
100011de:	4562      	cmp	r2, ip
100011e0:	d003      	beq.n	100011ea <__eqdf2+0x3e>
100011e2:	4566      	cmp	r6, ip
100011e4:	d10d      	bne.n	10001202 <__eqdf2+0x56>
100011e6:	b007      	add	sp, #28
100011e8:	bdf0      	pop	{r4, r5, r6, r7, pc}
100011ea:	4296      	cmp	r6, r2
100011ec:	d1fb      	bne.n	100011e6 <__eqdf2+0x3a>
100011ee:	9a00      	ldr	r2, [sp, #0]
100011f0:	430b      	orrs	r3, r1
100011f2:	4313      	orrs	r3, r2
100011f4:	4323      	orrs	r3, r4
100011f6:	d1f6      	bne.n	100011e6 <__eqdf2+0x3a>
100011f8:	9b03      	ldr	r3, [sp, #12]
100011fa:	1bd8      	subs	r0, r3, r7
100011fc:	1e43      	subs	r3, r0, #1
100011fe:	4198      	sbcs	r0, r3
10001200:	e7f1      	b.n	100011e6 <__eqdf2+0x3a>
10001202:	2001      	movs	r0, #1
10001204:	42b2      	cmp	r2, r6
10001206:	d1ee      	bne.n	100011e6 <__eqdf2+0x3a>
10001208:	4299      	cmp	r1, r3
1000120a:	d1ec      	bne.n	100011e6 <__eqdf2+0x3a>
1000120c:	9b04      	ldr	r3, [sp, #16]
1000120e:	9e05      	ldr	r6, [sp, #20]
10001210:	42b3      	cmp	r3, r6
10001212:	d1e8      	bne.n	100011e6 <__eqdf2+0x3a>
10001214:	9b03      	ldr	r3, [sp, #12]
10001216:	42bb      	cmp	r3, r7
10001218:	d006      	beq.n	10001228 <__eqdf2+0x7c>
1000121a:	2a00      	cmp	r2, #0
1000121c:	d1e3      	bne.n	100011e6 <__eqdf2+0x3a>
1000121e:	4321      	orrs	r1, r4
10001220:	1e4b      	subs	r3, r1, #1
10001222:	4199      	sbcs	r1, r3
10001224:	0008      	movs	r0, r1
10001226:	e7de      	b.n	100011e6 <__eqdf2+0x3a>
10001228:	2000      	movs	r0, #0
1000122a:	e7dc      	b.n	100011e6 <__eqdf2+0x3a>
1000122c:	000007ff 	.word	0x000007ff

10001230 <__gedf2>:
10001230:	b5f0      	push	{r4, r5, r6, r7, lr}
10001232:	b087      	sub	sp, #28
10001234:	9000      	str	r0, [sp, #0]
10001236:	9101      	str	r1, [sp, #4]
10001238:	001d      	movs	r5, r3
1000123a:	9b00      	ldr	r3, [sp, #0]
1000123c:	0014      	movs	r4, r2
1000123e:	9304      	str	r3, [sp, #16]
10001240:	9b01      	ldr	r3, [sp, #4]
10001242:	0329      	lsls	r1, r5, #12
10001244:	031a      	lsls	r2, r3, #12
10001246:	0b13      	lsrs	r3, r2, #12
10001248:	4a33      	ldr	r2, [pc, #204]	; (10001318 <__gedf2+0xe8>)
1000124a:	9303      	str	r3, [sp, #12]
1000124c:	4694      	mov	ip, r2
1000124e:	9b01      	ldr	r3, [sp, #4]
10001250:	0068      	lsls	r0, r5, #1
10001252:	005f      	lsls	r7, r3, #1
10001254:	0d7b      	lsrs	r3, r7, #21
10001256:	9302      	str	r3, [sp, #8]
10001258:	9a02      	ldr	r2, [sp, #8]
1000125a:	9b01      	ldr	r3, [sp, #4]
1000125c:	9405      	str	r4, [sp, #20]
1000125e:	0fdb      	lsrs	r3, r3, #31
10001260:	0b09      	lsrs	r1, r1, #12
10001262:	0d40      	lsrs	r0, r0, #21
10001264:	0fee      	lsrs	r6, r5, #31
10001266:	4562      	cmp	r2, ip
10001268:	d112      	bne.n	10001290 <__gedf2+0x60>
1000126a:	9a00      	ldr	r2, [sp, #0]
1000126c:	9f03      	ldr	r7, [sp, #12]
1000126e:	4317      	orrs	r7, r2
10001270:	d14f      	bne.n	10001312 <__gedf2+0xe2>
10001272:	9a02      	ldr	r2, [sp, #8]
10001274:	4290      	cmp	r0, r2
10001276:	d004      	beq.n	10001282 <__gedf2+0x52>
10001278:	2001      	movs	r0, #1
1000127a:	2b00      	cmp	r3, #0
1000127c:	d006      	beq.n	1000128c <__gedf2+0x5c>
1000127e:	3802      	subs	r0, #2
10001280:	e004      	b.n	1000128c <__gedf2+0x5c>
10001282:	4321      	orrs	r1, r4
10001284:	1e08      	subs	r0, r1, #0
10001286:	d144      	bne.n	10001312 <__gedf2+0xe2>
10001288:	42b3      	cmp	r3, r6
1000128a:	d1f5      	bne.n	10001278 <__gedf2+0x48>
1000128c:	b007      	add	sp, #28
1000128e:	bdf0      	pop	{r4, r5, r6, r7, pc}
10001290:	4560      	cmp	r0, ip
10001292:	d111      	bne.n	100012b8 <__gedf2+0x88>
10001294:	4321      	orrs	r1, r4
10001296:	d13c      	bne.n	10001312 <__gedf2+0xe2>
10001298:	9a02      	ldr	r2, [sp, #8]
1000129a:	2a00      	cmp	r2, #0
1000129c:	d004      	beq.n	100012a8 <__gedf2+0x78>
1000129e:	42b3      	cmp	r3, r6
100012a0:	d1ea      	bne.n	10001278 <__gedf2+0x48>
100012a2:	1e18      	subs	r0, r3, #0
100012a4:	d1f2      	bne.n	1000128c <__gedf2+0x5c>
100012a6:	e005      	b.n	100012b4 <__gedf2+0x84>
100012a8:	9a00      	ldr	r2, [sp, #0]
100012aa:	9903      	ldr	r1, [sp, #12]
100012ac:	4311      	orrs	r1, r2
100012ae:	d1f6      	bne.n	1000129e <__gedf2+0x6e>
100012b0:	1e30      	subs	r0, r6, #0
100012b2:	d1eb      	bne.n	1000128c <__gedf2+0x5c>
100012b4:	2001      	movs	r0, #1
100012b6:	e02d      	b.n	10001314 <__gedf2+0xe4>
100012b8:	9a02      	ldr	r2, [sp, #8]
100012ba:	2a00      	cmp	r2, #0
100012bc:	d017      	beq.n	100012ee <__gedf2+0xbe>
100012be:	2800      	cmp	r0, #0
100012c0:	d0da      	beq.n	10001278 <__gedf2+0x48>
100012c2:	42b3      	cmp	r3, r6
100012c4:	d1d8      	bne.n	10001278 <__gedf2+0x48>
100012c6:	9a02      	ldr	r2, [sp, #8]
100012c8:	4282      	cmp	r2, r0
100012ca:	dcd5      	bgt.n	10001278 <__gedf2+0x48>
100012cc:	9a02      	ldr	r2, [sp, #8]
100012ce:	4282      	cmp	r2, r0
100012d0:	dbe7      	blt.n	100012a2 <__gedf2+0x72>
100012d2:	9a03      	ldr	r2, [sp, #12]
100012d4:	428a      	cmp	r2, r1
100012d6:	d8cf      	bhi.n	10001278 <__gedf2+0x48>
100012d8:	d1e3      	bne.n	100012a2 <__gedf2+0x72>
100012da:	9a04      	ldr	r2, [sp, #16]
100012dc:	9905      	ldr	r1, [sp, #20]
100012de:	428a      	cmp	r2, r1
100012e0:	d8ca      	bhi.n	10001278 <__gedf2+0x48>
100012e2:	9a04      	ldr	r2, [sp, #16]
100012e4:	9905      	ldr	r1, [sp, #20]
100012e6:	2000      	movs	r0, #0
100012e8:	428a      	cmp	r2, r1
100012ea:	d2cf      	bcs.n	1000128c <__gedf2+0x5c>
100012ec:	e7d9      	b.n	100012a2 <__gedf2+0x72>
100012ee:	9f00      	ldr	r7, [sp, #0]
100012f0:	9a03      	ldr	r2, [sp, #12]
100012f2:	4317      	orrs	r7, r2
100012f4:	2800      	cmp	r0, #0
100012f6:	d002      	beq.n	100012fe <__gedf2+0xce>
100012f8:	2f00      	cmp	r7, #0
100012fa:	d0d9      	beq.n	100012b0 <__gedf2+0x80>
100012fc:	e7cf      	b.n	1000129e <__gedf2+0x6e>
100012fe:	430c      	orrs	r4, r1
10001300:	d004      	beq.n	1000130c <__gedf2+0xdc>
10001302:	2f00      	cmp	r7, #0
10001304:	d0d4      	beq.n	100012b0 <__gedf2+0x80>
10001306:	42b3      	cmp	r3, r6
10001308:	d0e3      	beq.n	100012d2 <__gedf2+0xa2>
1000130a:	e7b5      	b.n	10001278 <__gedf2+0x48>
1000130c:	2f00      	cmp	r7, #0
1000130e:	d0bd      	beq.n	1000128c <__gedf2+0x5c>
10001310:	e7b2      	b.n	10001278 <__gedf2+0x48>
10001312:	2002      	movs	r0, #2
10001314:	4240      	negs	r0, r0
10001316:	e7b9      	b.n	1000128c <__gedf2+0x5c>
10001318:	000007ff 	.word	0x000007ff

1000131c <__ledf2>:
1000131c:	b5f0      	push	{r4, r5, r6, r7, lr}
1000131e:	b087      	sub	sp, #28
10001320:	9000      	str	r0, [sp, #0]
10001322:	9101      	str	r1, [sp, #4]
10001324:	001d      	movs	r5, r3
10001326:	9b00      	ldr	r3, [sp, #0]
10001328:	0014      	movs	r4, r2
1000132a:	9304      	str	r3, [sp, #16]
1000132c:	9b01      	ldr	r3, [sp, #4]
1000132e:	0068      	lsls	r0, r5, #1
10001330:	031a      	lsls	r2, r3, #12
10001332:	0b13      	lsrs	r3, r2, #12
10001334:	4a34      	ldr	r2, [pc, #208]	; (10001408 <__ledf2+0xec>)
10001336:	9303      	str	r3, [sp, #12]
10001338:	4694      	mov	ip, r2
1000133a:	9b01      	ldr	r3, [sp, #4]
1000133c:	9405      	str	r4, [sp, #20]
1000133e:	005f      	lsls	r7, r3, #1
10001340:	0d7b      	lsrs	r3, r7, #21
10001342:	9302      	str	r3, [sp, #8]
10001344:	9b01      	ldr	r3, [sp, #4]
10001346:	9a02      	ldr	r2, [sp, #8]
10001348:	0fd9      	lsrs	r1, r3, #31
1000134a:	032b      	lsls	r3, r5, #12
1000134c:	0b1b      	lsrs	r3, r3, #12
1000134e:	0d40      	lsrs	r0, r0, #21
10001350:	0fee      	lsrs	r6, r5, #31
10001352:	4562      	cmp	r2, ip
10001354:	d113      	bne.n	1000137e <__ledf2+0x62>
10001356:	9a00      	ldr	r2, [sp, #0]
10001358:	9f03      	ldr	r7, [sp, #12]
1000135a:	4317      	orrs	r7, r2
1000135c:	d152      	bne.n	10001404 <__ledf2+0xe8>
1000135e:	9a02      	ldr	r2, [sp, #8]
10001360:	4290      	cmp	r0, r2
10001362:	d004      	beq.n	1000136e <__ledf2+0x52>
10001364:	2001      	movs	r0, #1
10001366:	2900      	cmp	r1, #0
10001368:	d007      	beq.n	1000137a <__ledf2+0x5e>
1000136a:	3802      	subs	r0, #2
1000136c:	e005      	b.n	1000137a <__ledf2+0x5e>
1000136e:	2002      	movs	r0, #2
10001370:	4323      	orrs	r3, r4
10001372:	d102      	bne.n	1000137a <__ledf2+0x5e>
10001374:	0018      	movs	r0, r3
10001376:	42b1      	cmp	r1, r6
10001378:	d1f4      	bne.n	10001364 <__ledf2+0x48>
1000137a:	b007      	add	sp, #28
1000137c:	bdf0      	pop	{r4, r5, r6, r7, pc}
1000137e:	4560      	cmp	r0, ip
10001380:	d113      	bne.n	100013aa <__ledf2+0x8e>
10001382:	2002      	movs	r0, #2
10001384:	4323      	orrs	r3, r4
10001386:	d1f8      	bne.n	1000137a <__ledf2+0x5e>
10001388:	9b02      	ldr	r3, [sp, #8]
1000138a:	2b00      	cmp	r3, #0
1000138c:	d004      	beq.n	10001398 <__ledf2+0x7c>
1000138e:	42b1      	cmp	r1, r6
10001390:	d1e8      	bne.n	10001364 <__ledf2+0x48>
10001392:	1e08      	subs	r0, r1, #0
10001394:	d1f1      	bne.n	1000137a <__ledf2+0x5e>
10001396:	e005      	b.n	100013a4 <__ledf2+0x88>
10001398:	9b00      	ldr	r3, [sp, #0]
1000139a:	9a03      	ldr	r2, [sp, #12]
1000139c:	431a      	orrs	r2, r3
1000139e:	d1f6      	bne.n	1000138e <__ledf2+0x72>
100013a0:	1e30      	subs	r0, r6, #0
100013a2:	d1ea      	bne.n	1000137a <__ledf2+0x5e>
100013a4:	2001      	movs	r0, #1
100013a6:	4240      	negs	r0, r0
100013a8:	e7e7      	b.n	1000137a <__ledf2+0x5e>
100013aa:	9a02      	ldr	r2, [sp, #8]
100013ac:	2a00      	cmp	r2, #0
100013ae:	d017      	beq.n	100013e0 <__ledf2+0xc4>
100013b0:	2800      	cmp	r0, #0
100013b2:	d0d7      	beq.n	10001364 <__ledf2+0x48>
100013b4:	42b1      	cmp	r1, r6
100013b6:	d1d5      	bne.n	10001364 <__ledf2+0x48>
100013b8:	9a02      	ldr	r2, [sp, #8]
100013ba:	4282      	cmp	r2, r0
100013bc:	dcd2      	bgt.n	10001364 <__ledf2+0x48>
100013be:	9a02      	ldr	r2, [sp, #8]
100013c0:	4282      	cmp	r2, r0
100013c2:	dbe6      	blt.n	10001392 <__ledf2+0x76>
100013c4:	9a03      	ldr	r2, [sp, #12]
100013c6:	429a      	cmp	r2, r3
100013c8:	d8cc      	bhi.n	10001364 <__ledf2+0x48>
100013ca:	d1e2      	bne.n	10001392 <__ledf2+0x76>
100013cc:	9b04      	ldr	r3, [sp, #16]
100013ce:	9a05      	ldr	r2, [sp, #20]
100013d0:	4293      	cmp	r3, r2
100013d2:	d8c7      	bhi.n	10001364 <__ledf2+0x48>
100013d4:	9b04      	ldr	r3, [sp, #16]
100013d6:	9a05      	ldr	r2, [sp, #20]
100013d8:	2000      	movs	r0, #0
100013da:	4293      	cmp	r3, r2
100013dc:	d2cd      	bcs.n	1000137a <__ledf2+0x5e>
100013de:	e7d8      	b.n	10001392 <__ledf2+0x76>
100013e0:	9f00      	ldr	r7, [sp, #0]
100013e2:	9a03      	ldr	r2, [sp, #12]
100013e4:	4317      	orrs	r7, r2
100013e6:	2800      	cmp	r0, #0
100013e8:	d002      	beq.n	100013f0 <__ledf2+0xd4>
100013ea:	2f00      	cmp	r7, #0
100013ec:	d0d8      	beq.n	100013a0 <__ledf2+0x84>
100013ee:	e7ce      	b.n	1000138e <__ledf2+0x72>
100013f0:	431c      	orrs	r4, r3
100013f2:	d004      	beq.n	100013fe <__ledf2+0xe2>
100013f4:	2f00      	cmp	r7, #0
100013f6:	d0d3      	beq.n	100013a0 <__ledf2+0x84>
100013f8:	42b1      	cmp	r1, r6
100013fa:	d0e3      	beq.n	100013c4 <__ledf2+0xa8>
100013fc:	e7b2      	b.n	10001364 <__ledf2+0x48>
100013fe:	2f00      	cmp	r7, #0
10001400:	d0bb      	beq.n	1000137a <__ledf2+0x5e>
10001402:	e7af      	b.n	10001364 <__ledf2+0x48>
10001404:	2002      	movs	r0, #2
10001406:	e7b8      	b.n	1000137a <__ledf2+0x5e>
10001408:	000007ff 	.word	0x000007ff

1000140c <__aeabi_dmul>:
1000140c:	b5f0      	push	{r4, r5, r6, r7, lr}
1000140e:	b08b      	sub	sp, #44	; 0x2c
10001410:	9200      	str	r2, [sp, #0]
10001412:	9301      	str	r3, [sp, #4]
10001414:	030d      	lsls	r5, r1, #12
10001416:	004b      	lsls	r3, r1, #1
10001418:	0fca      	lsrs	r2, r1, #31
1000141a:	0006      	movs	r6, r0
1000141c:	0b2d      	lsrs	r5, r5, #12
1000141e:	0d5b      	lsrs	r3, r3, #21
10001420:	9205      	str	r2, [sp, #20]
10001422:	d100      	bne.n	10001426 <__aeabi_dmul+0x1a>
10001424:	e114      	b.n	10001650 <__aeabi_dmul+0x244>
10001426:	4acf      	ldr	r2, [pc, #828]	; (10001764 <__aeabi_dmul+0x358>)
10001428:	4293      	cmp	r3, r2
1000142a:	d100      	bne.n	1000142e <__aeabi_dmul+0x22>
1000142c:	e138      	b.n	100016a0 <__aeabi_dmul+0x294>
1000142e:	00ed      	lsls	r5, r5, #3
10001430:	0f42      	lsrs	r2, r0, #29
10001432:	432a      	orrs	r2, r5
10001434:	2580      	movs	r5, #128	; 0x80
10001436:	042d      	lsls	r5, r5, #16
10001438:	4315      	orrs	r5, r2
1000143a:	4acb      	ldr	r2, [pc, #812]	; (10001768 <__aeabi_dmul+0x35c>)
1000143c:	00c4      	lsls	r4, r0, #3
1000143e:	189b      	adds	r3, r3, r2
10001440:	9303      	str	r3, [sp, #12]
10001442:	2300      	movs	r3, #0
10001444:	9302      	str	r3, [sp, #8]
10001446:	9b01      	ldr	r3, [sp, #4]
10001448:	9800      	ldr	r0, [sp, #0]
1000144a:	031e      	lsls	r6, r3, #12
1000144c:	005a      	lsls	r2, r3, #1
1000144e:	0fdb      	lsrs	r3, r3, #31
10001450:	0b36      	lsrs	r6, r6, #12
10001452:	0d52      	lsrs	r2, r2, #21
10001454:	9304      	str	r3, [sp, #16]
10001456:	d100      	bne.n	1000145a <__aeabi_dmul+0x4e>
10001458:	e131      	b.n	100016be <__aeabi_dmul+0x2b2>
1000145a:	4bc2      	ldr	r3, [pc, #776]	; (10001764 <__aeabi_dmul+0x358>)
1000145c:	429a      	cmp	r2, r3
1000145e:	d100      	bne.n	10001462 <__aeabi_dmul+0x56>
10001460:	e153      	b.n	1000170a <__aeabi_dmul+0x2fe>
10001462:	0f43      	lsrs	r3, r0, #29
10001464:	00f6      	lsls	r6, r6, #3
10001466:	4333      	orrs	r3, r6
10001468:	2680      	movs	r6, #128	; 0x80
1000146a:	49bf      	ldr	r1, [pc, #764]	; (10001768 <__aeabi_dmul+0x35c>)
1000146c:	0436      	lsls	r6, r6, #16
1000146e:	431e      	orrs	r6, r3
10001470:	00c3      	lsls	r3, r0, #3
10001472:	1850      	adds	r0, r2, r1
10001474:	2200      	movs	r2, #0
10001476:	9905      	ldr	r1, [sp, #20]
10001478:	9f04      	ldr	r7, [sp, #16]
1000147a:	4079      	eors	r1, r7
1000147c:	9100      	str	r1, [sp, #0]
1000147e:	9903      	ldr	r1, [sp, #12]
10001480:	1841      	adds	r1, r0, r1
10001482:	9106      	str	r1, [sp, #24]
10001484:	3101      	adds	r1, #1
10001486:	9103      	str	r1, [sp, #12]
10001488:	9902      	ldr	r1, [sp, #8]
1000148a:	0088      	lsls	r0, r1, #2
1000148c:	4310      	orrs	r0, r2
1000148e:	280a      	cmp	r0, #10
10001490:	dd00      	ble.n	10001494 <__aeabi_dmul+0x88>
10001492:	e173      	b.n	1000177c <__aeabi_dmul+0x370>
10001494:	2802      	cmp	r0, #2
10001496:	dd00      	ble.n	1000149a <__aeabi_dmul+0x8e>
10001498:	e146      	b.n	10001728 <__aeabi_dmul+0x31c>
1000149a:	3801      	subs	r0, #1
1000149c:	2801      	cmp	r0, #1
1000149e:	d800      	bhi.n	100014a2 <__aeabi_dmul+0x96>
100014a0:	e155      	b.n	1000174e <__aeabi_dmul+0x342>
100014a2:	0c19      	lsrs	r1, r3, #16
100014a4:	b29b      	uxth	r3, r3
100014a6:	9102      	str	r1, [sp, #8]
100014a8:	0019      	movs	r1, r3
100014aa:	0c22      	lsrs	r2, r4, #16
100014ac:	b2a4      	uxth	r4, r4
100014ae:	4351      	muls	r1, r2
100014b0:	0020      	movs	r0, r4
100014b2:	468c      	mov	ip, r1
100014b4:	9f02      	ldr	r7, [sp, #8]
100014b6:	9902      	ldr	r1, [sp, #8]
100014b8:	4358      	muls	r0, r3
100014ba:	4351      	muls	r1, r2
100014bc:	4367      	muls	r7, r4
100014be:	9105      	str	r1, [sp, #20]
100014c0:	4467      	add	r7, ip
100014c2:	0c01      	lsrs	r1, r0, #16
100014c4:	19c9      	adds	r1, r1, r7
100014c6:	9004      	str	r0, [sp, #16]
100014c8:	458c      	cmp	ip, r1
100014ca:	d905      	bls.n	100014d8 <__aeabi_dmul+0xcc>
100014cc:	2080      	movs	r0, #128	; 0x80
100014ce:	0240      	lsls	r0, r0, #9
100014d0:	4684      	mov	ip, r0
100014d2:	9f05      	ldr	r7, [sp, #20]
100014d4:	4467      	add	r7, ip
100014d6:	9705      	str	r7, [sp, #20]
100014d8:	0c08      	lsrs	r0, r1, #16
100014da:	4684      	mov	ip, r0
100014dc:	4668      	mov	r0, sp
100014de:	8a00      	ldrh	r0, [r0, #16]
100014e0:	0409      	lsls	r1, r1, #16
100014e2:	1809      	adds	r1, r1, r0
100014e4:	9109      	str	r1, [sp, #36]	; 0x24
100014e6:	0c31      	lsrs	r1, r6, #16
100014e8:	b2b6      	uxth	r6, r6
100014ea:	9104      	str	r1, [sp, #16]
100014ec:	0030      	movs	r0, r6
100014ee:	0021      	movs	r1, r4
100014f0:	9f04      	ldr	r7, [sp, #16]
100014f2:	4350      	muls	r0, r2
100014f4:	437c      	muls	r4, r7
100014f6:	4371      	muls	r1, r6
100014f8:	437a      	muls	r2, r7
100014fa:	1824      	adds	r4, r4, r0
100014fc:	0c0f      	lsrs	r7, r1, #16
100014fe:	193c      	adds	r4, r7, r4
10001500:	42a0      	cmp	r0, r4
10001502:	d902      	bls.n	1000150a <__aeabi_dmul+0xfe>
10001504:	2080      	movs	r0, #128	; 0x80
10001506:	0240      	lsls	r0, r0, #9
10001508:	1812      	adds	r2, r2, r0
1000150a:	0c20      	lsrs	r0, r4, #16
1000150c:	1882      	adds	r2, r0, r2
1000150e:	0424      	lsls	r4, r4, #16
10001510:	b289      	uxth	r1, r1
10001512:	9207      	str	r2, [sp, #28]
10001514:	1862      	adds	r2, r4, r1
10001516:	9208      	str	r2, [sp, #32]
10001518:	9908      	ldr	r1, [sp, #32]
1000151a:	4662      	mov	r2, ip
1000151c:	468c      	mov	ip, r1
1000151e:	0c29      	lsrs	r1, r5, #16
10001520:	b2ad      	uxth	r5, r5
10001522:	0028      	movs	r0, r5
10001524:	9f02      	ldr	r7, [sp, #8]
10001526:	4358      	muls	r0, r3
10001528:	436f      	muls	r7, r5
1000152a:	434b      	muls	r3, r1
1000152c:	4462      	add	r2, ip
1000152e:	4694      	mov	ip, r2
10001530:	9c02      	ldr	r4, [sp, #8]
10001532:	18ff      	adds	r7, r7, r3
10001534:	0c02      	lsrs	r2, r0, #16
10001536:	19d2      	adds	r2, r2, r7
10001538:	434c      	muls	r4, r1
1000153a:	4293      	cmp	r3, r2
1000153c:	d902      	bls.n	10001544 <__aeabi_dmul+0x138>
1000153e:	2380      	movs	r3, #128	; 0x80
10001540:	025b      	lsls	r3, r3, #9
10001542:	18e4      	adds	r4, r4, r3
10001544:	0c13      	lsrs	r3, r2, #16
10001546:	191b      	adds	r3, r3, r4
10001548:	9302      	str	r3, [sp, #8]
1000154a:	002b      	movs	r3, r5
1000154c:	b280      	uxth	r0, r0
1000154e:	0412      	lsls	r2, r2, #16
10001550:	1812      	adds	r2, r2, r0
10001552:	9804      	ldr	r0, [sp, #16]
10001554:	4373      	muls	r3, r6
10001556:	4345      	muls	r5, r0
10001558:	434e      	muls	r6, r1
1000155a:	4341      	muls	r1, r0
1000155c:	19a8      	adds	r0, r5, r6
1000155e:	0c1d      	lsrs	r5, r3, #16
10001560:	182d      	adds	r5, r5, r0
10001562:	42ae      	cmp	r6, r5
10001564:	d902      	bls.n	1000156c <__aeabi_dmul+0x160>
10001566:	2080      	movs	r0, #128	; 0x80
10001568:	0240      	lsls	r0, r0, #9
1000156a:	1809      	adds	r1, r1, r0
1000156c:	9c05      	ldr	r4, [sp, #20]
1000156e:	4660      	mov	r0, ip
10001570:	46a4      	mov	ip, r4
10001572:	9c08      	ldr	r4, [sp, #32]
10001574:	4460      	add	r0, ip
10001576:	42a0      	cmp	r0, r4
10001578:	41bf      	sbcs	r7, r7
1000157a:	1880      	adds	r0, r0, r2
1000157c:	4290      	cmp	r0, r2
1000157e:	4192      	sbcs	r2, r2
10001580:	042e      	lsls	r6, r5, #16
10001582:	b29b      	uxth	r3, r3
10001584:	18f6      	adds	r6, r6, r3
10001586:	9b07      	ldr	r3, [sp, #28]
10001588:	427f      	negs	r7, r7
1000158a:	18f6      	adds	r6, r6, r3
1000158c:	4253      	negs	r3, r2
1000158e:	9304      	str	r3, [sp, #16]
10001590:	9b02      	ldr	r3, [sp, #8]
10001592:	19f4      	adds	r4, r6, r7
10001594:	469c      	mov	ip, r3
10001596:	44a4      	add	ip, r4
10001598:	4663      	mov	r3, ip
1000159a:	9a04      	ldr	r2, [sp, #16]
1000159c:	42bc      	cmp	r4, r7
1000159e:	41a4      	sbcs	r4, r4
100015a0:	189b      	adds	r3, r3, r2
100015a2:	9a07      	ldr	r2, [sp, #28]
100015a4:	4264      	negs	r4, r4
100015a6:	4296      	cmp	r6, r2
100015a8:	41b6      	sbcs	r6, r6
100015aa:	9a02      	ldr	r2, [sp, #8]
100015ac:	4276      	negs	r6, r6
100015ae:	4334      	orrs	r4, r6
100015b0:	0c2d      	lsrs	r5, r5, #16
100015b2:	1964      	adds	r4, r4, r5
100015b4:	4594      	cmp	ip, r2
100015b6:	41ad      	sbcs	r5, r5
100015b8:	9a04      	ldr	r2, [sp, #16]
100015ba:	426d      	negs	r5, r5
100015bc:	4293      	cmp	r3, r2
100015be:	4192      	sbcs	r2, r2
100015c0:	4252      	negs	r2, r2
100015c2:	4315      	orrs	r5, r2
100015c4:	1964      	adds	r4, r4, r5
100015c6:	9a09      	ldr	r2, [sp, #36]	; 0x24
100015c8:	1864      	adds	r4, r4, r1
100015ca:	0241      	lsls	r1, r0, #9
100015cc:	4311      	orrs	r1, r2
100015ce:	1e4a      	subs	r2, r1, #1
100015d0:	4191      	sbcs	r1, r2
100015d2:	0dc0      	lsrs	r0, r0, #23
100015d4:	0dde      	lsrs	r6, r3, #23
100015d6:	0264      	lsls	r4, r4, #9
100015d8:	4301      	orrs	r1, r0
100015da:	025b      	lsls	r3, r3, #9
100015dc:	4326      	orrs	r6, r4
100015de:	430b      	orrs	r3, r1
100015e0:	01e4      	lsls	r4, r4, #7
100015e2:	d400      	bmi.n	100015e6 <__aeabi_dmul+0x1da>
100015e4:	e0df      	b.n	100017a6 <__aeabi_dmul+0x39a>
100015e6:	2101      	movs	r1, #1
100015e8:	085a      	lsrs	r2, r3, #1
100015ea:	400b      	ands	r3, r1
100015ec:	431a      	orrs	r2, r3
100015ee:	07f3      	lsls	r3, r6, #31
100015f0:	40ce      	lsrs	r6, r1
100015f2:	4313      	orrs	r3, r2
100015f4:	9a03      	ldr	r2, [sp, #12]
100015f6:	495d      	ldr	r1, [pc, #372]	; (1000176c <__aeabi_dmul+0x360>)
100015f8:	1852      	adds	r2, r2, r1
100015fa:	2a00      	cmp	r2, #0
100015fc:	dc00      	bgt.n	10001600 <__aeabi_dmul+0x1f4>
100015fe:	e0d5      	b.n	100017ac <__aeabi_dmul+0x3a0>
10001600:	0759      	lsls	r1, r3, #29
10001602:	d009      	beq.n	10001618 <__aeabi_dmul+0x20c>
10001604:	210f      	movs	r1, #15
10001606:	4019      	ands	r1, r3
10001608:	2904      	cmp	r1, #4
1000160a:	d005      	beq.n	10001618 <__aeabi_dmul+0x20c>
1000160c:	1d19      	adds	r1, r3, #4
1000160e:	4299      	cmp	r1, r3
10001610:	419b      	sbcs	r3, r3
10001612:	425b      	negs	r3, r3
10001614:	18f6      	adds	r6, r6, r3
10001616:	000b      	movs	r3, r1
10001618:	01f1      	lsls	r1, r6, #7
1000161a:	d506      	bpl.n	1000162a <__aeabi_dmul+0x21e>
1000161c:	2180      	movs	r1, #128	; 0x80
1000161e:	00c9      	lsls	r1, r1, #3
10001620:	468c      	mov	ip, r1
10001622:	4a53      	ldr	r2, [pc, #332]	; (10001770 <__aeabi_dmul+0x364>)
10001624:	4016      	ands	r6, r2
10001626:	9a03      	ldr	r2, [sp, #12]
10001628:	4462      	add	r2, ip
1000162a:	4952      	ldr	r1, [pc, #328]	; (10001774 <__aeabi_dmul+0x368>)
1000162c:	428a      	cmp	r2, r1
1000162e:	dd00      	ble.n	10001632 <__aeabi_dmul+0x226>
10001630:	e109      	b.n	10001846 <__aeabi_dmul+0x43a>
10001632:	0774      	lsls	r4, r6, #29
10001634:	08db      	lsrs	r3, r3, #3
10001636:	431c      	orrs	r4, r3
10001638:	08f6      	lsrs	r6, r6, #3
1000163a:	0513      	lsls	r3, r2, #20
1000163c:	0336      	lsls	r6, r6, #12
1000163e:	9a00      	ldr	r2, [sp, #0]
10001640:	0b36      	lsrs	r6, r6, #12
10001642:	4333      	orrs	r3, r6
10001644:	07d2      	lsls	r2, r2, #31
10001646:	4313      	orrs	r3, r2
10001648:	0020      	movs	r0, r4
1000164a:	0019      	movs	r1, r3
1000164c:	b00b      	add	sp, #44	; 0x2c
1000164e:	bdf0      	pop	{r4, r5, r6, r7, pc}
10001650:	002c      	movs	r4, r5
10001652:	4304      	orrs	r4, r0
10001654:	d02b      	beq.n	100016ae <__aeabi_dmul+0x2a2>
10001656:	2d00      	cmp	r5, #0
10001658:	d016      	beq.n	10001688 <__aeabi_dmul+0x27c>
1000165a:	0028      	movs	r0, r5
1000165c:	f7fe fe92 	bl	10000384 <__clzsi2>
10001660:	0004      	movs	r4, r0
10001662:	0002      	movs	r2, r0
10001664:	3c0b      	subs	r4, #11
10001666:	231d      	movs	r3, #29
10001668:	0030      	movs	r0, r6
1000166a:	1b1b      	subs	r3, r3, r4
1000166c:	0011      	movs	r1, r2
1000166e:	40d8      	lsrs	r0, r3
10001670:	3908      	subs	r1, #8
10001672:	408d      	lsls	r5, r1
10001674:	0003      	movs	r3, r0
10001676:	432b      	orrs	r3, r5
10001678:	0035      	movs	r5, r6
1000167a:	408d      	lsls	r5, r1
1000167c:	493e      	ldr	r1, [pc, #248]	; (10001778 <__aeabi_dmul+0x36c>)
1000167e:	002c      	movs	r4, r5
10001680:	1a8a      	subs	r2, r1, r2
10001682:	001d      	movs	r5, r3
10001684:	9203      	str	r2, [sp, #12]
10001686:	e6dc      	b.n	10001442 <__aeabi_dmul+0x36>
10001688:	f7fe fe7c 	bl	10000384 <__clzsi2>
1000168c:	0004      	movs	r4, r0
1000168e:	0002      	movs	r2, r0
10001690:	3415      	adds	r4, #21
10001692:	3220      	adds	r2, #32
10001694:	2c1c      	cmp	r4, #28
10001696:	dde6      	ble.n	10001666 <__aeabi_dmul+0x25a>
10001698:	0033      	movs	r3, r6
1000169a:	3808      	subs	r0, #8
1000169c:	4083      	lsls	r3, r0
1000169e:	e7ed      	b.n	1000167c <__aeabi_dmul+0x270>
100016a0:	0004      	movs	r4, r0
100016a2:	432c      	orrs	r4, r5
100016a4:	d007      	beq.n	100016b6 <__aeabi_dmul+0x2aa>
100016a6:	9303      	str	r3, [sp, #12]
100016a8:	0004      	movs	r4, r0
100016aa:	2303      	movs	r3, #3
100016ac:	e6ca      	b.n	10001444 <__aeabi_dmul+0x38>
100016ae:	0025      	movs	r5, r4
100016b0:	2301      	movs	r3, #1
100016b2:	9403      	str	r4, [sp, #12]
100016b4:	e6c6      	b.n	10001444 <__aeabi_dmul+0x38>
100016b6:	9303      	str	r3, [sp, #12]
100016b8:	0025      	movs	r5, r4
100016ba:	2302      	movs	r3, #2
100016bc:	e6c2      	b.n	10001444 <__aeabi_dmul+0x38>
100016be:	9b00      	ldr	r3, [sp, #0]
100016c0:	4333      	orrs	r3, r6
100016c2:	d029      	beq.n	10001718 <__aeabi_dmul+0x30c>
100016c4:	2e00      	cmp	r6, #0
100016c6:	d014      	beq.n	100016f2 <__aeabi_dmul+0x2e6>
100016c8:	0030      	movs	r0, r6
100016ca:	f7fe fe5b 	bl	10000384 <__clzsi2>
100016ce:	0001      	movs	r1, r0
100016d0:	0003      	movs	r3, r0
100016d2:	390b      	subs	r1, #11
100016d4:	221d      	movs	r2, #29
100016d6:	0018      	movs	r0, r3
100016d8:	1a52      	subs	r2, r2, r1
100016da:	9900      	ldr	r1, [sp, #0]
100016dc:	3808      	subs	r0, #8
100016de:	4086      	lsls	r6, r0
100016e0:	40d1      	lsrs	r1, r2
100016e2:	4331      	orrs	r1, r6
100016e4:	9e00      	ldr	r6, [sp, #0]
100016e6:	4086      	lsls	r6, r0
100016e8:	4823      	ldr	r0, [pc, #140]	; (10001778 <__aeabi_dmul+0x36c>)
100016ea:	1ac0      	subs	r0, r0, r3
100016ec:	0033      	movs	r3, r6
100016ee:	000e      	movs	r6, r1
100016f0:	e6c0      	b.n	10001474 <__aeabi_dmul+0x68>
100016f2:	f7fe fe47 	bl	10000384 <__clzsi2>
100016f6:	0001      	movs	r1, r0
100016f8:	0003      	movs	r3, r0
100016fa:	3115      	adds	r1, #21
100016fc:	3320      	adds	r3, #32
100016fe:	291c      	cmp	r1, #28
10001700:	dde8      	ble.n	100016d4 <__aeabi_dmul+0x2c8>
10001702:	9900      	ldr	r1, [sp, #0]
10001704:	3808      	subs	r0, #8
10001706:	4081      	lsls	r1, r0
10001708:	e7ee      	b.n	100016e8 <__aeabi_dmul+0x2dc>
1000170a:	9b00      	ldr	r3, [sp, #0]
1000170c:	4333      	orrs	r3, r6
1000170e:	d007      	beq.n	10001720 <__aeabi_dmul+0x314>
10001710:	0003      	movs	r3, r0
10001712:	0010      	movs	r0, r2
10001714:	2203      	movs	r2, #3
10001716:	e6ae      	b.n	10001476 <__aeabi_dmul+0x6a>
10001718:	001e      	movs	r6, r3
1000171a:	0018      	movs	r0, r3
1000171c:	2201      	movs	r2, #1
1000171e:	e6aa      	b.n	10001476 <__aeabi_dmul+0x6a>
10001720:	0010      	movs	r0, r2
10001722:	001e      	movs	r6, r3
10001724:	2202      	movs	r2, #2
10001726:	e6a6      	b.n	10001476 <__aeabi_dmul+0x6a>
10001728:	2101      	movs	r1, #1
1000172a:	4081      	lsls	r1, r0
1000172c:	20a6      	movs	r0, #166	; 0xa6
1000172e:	000f      	movs	r7, r1
10001730:	00c0      	lsls	r0, r0, #3
10001732:	4007      	ands	r7, r0
10001734:	4201      	tst	r1, r0
10001736:	d127      	bne.n	10001788 <__aeabi_dmul+0x37c>
10001738:	2090      	movs	r0, #144	; 0x90
1000173a:	0080      	lsls	r0, r0, #2
1000173c:	4201      	tst	r1, r0
1000173e:	d177      	bne.n	10001830 <__aeabi_dmul+0x424>
10001740:	38b9      	subs	r0, #185	; 0xb9
10001742:	38ff      	subs	r0, #255	; 0xff
10001744:	4201      	tst	r1, r0
10001746:	d100      	bne.n	1000174a <__aeabi_dmul+0x33e>
10001748:	e6ab      	b.n	100014a2 <__aeabi_dmul+0x96>
1000174a:	9904      	ldr	r1, [sp, #16]
1000174c:	9100      	str	r1, [sp, #0]
1000174e:	2a02      	cmp	r2, #2
10001750:	d079      	beq.n	10001846 <__aeabi_dmul+0x43a>
10001752:	2a03      	cmp	r2, #3
10001754:	d075      	beq.n	10001842 <__aeabi_dmul+0x436>
10001756:	2a01      	cmp	r2, #1
10001758:	d000      	beq.n	1000175c <__aeabi_dmul+0x350>
1000175a:	e74b      	b.n	100015f4 <__aeabi_dmul+0x1e8>
1000175c:	2600      	movs	r6, #0
1000175e:	0034      	movs	r4, r6
10001760:	0032      	movs	r2, r6
10001762:	e76a      	b.n	1000163a <__aeabi_dmul+0x22e>
10001764:	000007ff 	.word	0x000007ff
10001768:	fffffc01 	.word	0xfffffc01
1000176c:	000003ff 	.word	0x000003ff
10001770:	feffffff 	.word	0xfeffffff
10001774:	000007fe 	.word	0x000007fe
10001778:	fffffc0d 	.word	0xfffffc0d
1000177c:	9905      	ldr	r1, [sp, #20]
1000177e:	9100      	str	r1, [sp, #0]
10001780:	280f      	cmp	r0, #15
10001782:	d005      	beq.n	10001790 <__aeabi_dmul+0x384>
10001784:	280b      	cmp	r0, #11
10001786:	d0e0      	beq.n	1000174a <__aeabi_dmul+0x33e>
10001788:	002e      	movs	r6, r5
1000178a:	0023      	movs	r3, r4
1000178c:	9a02      	ldr	r2, [sp, #8]
1000178e:	e7de      	b.n	1000174e <__aeabi_dmul+0x342>
10001790:	2280      	movs	r2, #128	; 0x80
10001792:	0312      	lsls	r2, r2, #12
10001794:	4215      	tst	r5, r2
10001796:	d04f      	beq.n	10001838 <__aeabi_dmul+0x42c>
10001798:	4216      	tst	r6, r2
1000179a:	d14d      	bne.n	10001838 <__aeabi_dmul+0x42c>
1000179c:	0035      	movs	r5, r6
1000179e:	9a04      	ldr	r2, [sp, #16]
100017a0:	9200      	str	r2, [sp, #0]
100017a2:	001c      	movs	r4, r3
100017a4:	e048      	b.n	10001838 <__aeabi_dmul+0x42c>
100017a6:	9a06      	ldr	r2, [sp, #24]
100017a8:	9203      	str	r2, [sp, #12]
100017aa:	e723      	b.n	100015f4 <__aeabi_dmul+0x1e8>
100017ac:	2001      	movs	r0, #1
100017ae:	1a80      	subs	r0, r0, r2
100017b0:	2838      	cmp	r0, #56	; 0x38
100017b2:	dcd3      	bgt.n	1000175c <__aeabi_dmul+0x350>
100017b4:	281f      	cmp	r0, #31
100017b6:	dc27      	bgt.n	10001808 <__aeabi_dmul+0x3fc>
100017b8:	4926      	ldr	r1, [pc, #152]	; (10001854 <__aeabi_dmul+0x448>)
100017ba:	9a03      	ldr	r2, [sp, #12]
100017bc:	468c      	mov	ip, r1
100017be:	001c      	movs	r4, r3
100017c0:	4462      	add	r2, ip
100017c2:	0031      	movs	r1, r6
100017c4:	4093      	lsls	r3, r2
100017c6:	4091      	lsls	r1, r2
100017c8:	40c4      	lsrs	r4, r0
100017ca:	001a      	movs	r2, r3
100017cc:	4321      	orrs	r1, r4
100017ce:	1e53      	subs	r3, r2, #1
100017d0:	419a      	sbcs	r2, r3
100017d2:	000b      	movs	r3, r1
100017d4:	40c6      	lsrs	r6, r0
100017d6:	4313      	orrs	r3, r2
100017d8:	075a      	lsls	r2, r3, #29
100017da:	d009      	beq.n	100017f0 <__aeabi_dmul+0x3e4>
100017dc:	220f      	movs	r2, #15
100017de:	401a      	ands	r2, r3
100017e0:	2a04      	cmp	r2, #4
100017e2:	d005      	beq.n	100017f0 <__aeabi_dmul+0x3e4>
100017e4:	1d1a      	adds	r2, r3, #4
100017e6:	429a      	cmp	r2, r3
100017e8:	419b      	sbcs	r3, r3
100017ea:	425b      	negs	r3, r3
100017ec:	18f6      	adds	r6, r6, r3
100017ee:	0013      	movs	r3, r2
100017f0:	2180      	movs	r1, #128	; 0x80
100017f2:	0030      	movs	r0, r6
100017f4:	0409      	lsls	r1, r1, #16
100017f6:	4008      	ands	r0, r1
100017f8:	420e      	tst	r6, r1
100017fa:	d127      	bne.n	1000184c <__aeabi_dmul+0x440>
100017fc:	0774      	lsls	r4, r6, #29
100017fe:	08db      	lsrs	r3, r3, #3
10001800:	0002      	movs	r2, r0
10001802:	431c      	orrs	r4, r3
10001804:	08f6      	lsrs	r6, r6, #3
10001806:	e718      	b.n	1000163a <__aeabi_dmul+0x22e>
10001808:	211f      	movs	r1, #31
1000180a:	4249      	negs	r1, r1
1000180c:	1a8a      	subs	r2, r1, r2
1000180e:	0031      	movs	r1, r6
10001810:	40d1      	lsrs	r1, r2
10001812:	2200      	movs	r2, #0
10001814:	2820      	cmp	r0, #32
10001816:	d005      	beq.n	10001824 <__aeabi_dmul+0x418>
10001818:	480f      	ldr	r0, [pc, #60]	; (10001858 <__aeabi_dmul+0x44c>)
1000181a:	9a03      	ldr	r2, [sp, #12]
1000181c:	4684      	mov	ip, r0
1000181e:	4462      	add	r2, ip
10001820:	4096      	lsls	r6, r2
10001822:	0032      	movs	r2, r6
10001824:	4313      	orrs	r3, r2
10001826:	1e5a      	subs	r2, r3, #1
10001828:	4193      	sbcs	r3, r2
1000182a:	2600      	movs	r6, #0
1000182c:	430b      	orrs	r3, r1
1000182e:	e7d3      	b.n	100017d8 <__aeabi_dmul+0x3cc>
10001830:	2580      	movs	r5, #128	; 0x80
10001832:	003c      	movs	r4, r7
10001834:	032d      	lsls	r5, r5, #12
10001836:	9700      	str	r7, [sp, #0]
10001838:	2680      	movs	r6, #128	; 0x80
1000183a:	0336      	lsls	r6, r6, #12
1000183c:	432e      	orrs	r6, r5
1000183e:	4a07      	ldr	r2, [pc, #28]	; (1000185c <__aeabi_dmul+0x450>)
10001840:	e6fb      	b.n	1000163a <__aeabi_dmul+0x22e>
10001842:	0035      	movs	r5, r6
10001844:	e7ad      	b.n	100017a2 <__aeabi_dmul+0x396>
10001846:	2600      	movs	r6, #0
10001848:	0034      	movs	r4, r6
1000184a:	e7f8      	b.n	1000183e <__aeabi_dmul+0x432>
1000184c:	2600      	movs	r6, #0
1000184e:	2201      	movs	r2, #1
10001850:	0034      	movs	r4, r6
10001852:	e6f2      	b.n	1000163a <__aeabi_dmul+0x22e>
10001854:	0000041e 	.word	0x0000041e
10001858:	0000043e 	.word	0x0000043e
1000185c:	000007ff 	.word	0x000007ff

10001860 <__aeabi_dsub>:
10001860:	b5f0      	push	{r4, r5, r6, r7, lr}
10001862:	b085      	sub	sp, #20
10001864:	9200      	str	r2, [sp, #0]
10001866:	9301      	str	r3, [sp, #4]
10001868:	0fcb      	lsrs	r3, r1, #31
1000186a:	030d      	lsls	r5, r1, #12
1000186c:	9302      	str	r3, [sp, #8]
1000186e:	9b01      	ldr	r3, [sp, #4]
10001870:	004c      	lsls	r4, r1, #1
10001872:	0a6d      	lsrs	r5, r5, #9
10001874:	0f41      	lsrs	r1, r0, #29
10001876:	4329      	orrs	r1, r5
10001878:	005d      	lsls	r5, r3, #1
1000187a:	031e      	lsls	r6, r3, #12
1000187c:	0d6b      	lsrs	r3, r5, #21
1000187e:	469c      	mov	ip, r3
10001880:	9b01      	ldr	r3, [sp, #4]
10001882:	0a76      	lsrs	r6, r6, #9
10001884:	0fdd      	lsrs	r5, r3, #31
10001886:	9b00      	ldr	r3, [sp, #0]
10001888:	9a00      	ldr	r2, [sp, #0]
1000188a:	0f5b      	lsrs	r3, r3, #29
1000188c:	4333      	orrs	r3, r6
1000188e:	4ebe      	ldr	r6, [pc, #760]	; (10001b88 <__aeabi_dsub+0x328>)
10001890:	0d64      	lsrs	r4, r4, #21
10001892:	00c0      	lsls	r0, r0, #3
10001894:	00d2      	lsls	r2, r2, #3
10001896:	45b4      	cmp	ip, r6
10001898:	d123      	bne.n	100018e2 <__aeabi_dsub+0x82>
1000189a:	001e      	movs	r6, r3
1000189c:	4316      	orrs	r6, r2
1000189e:	9603      	str	r6, [sp, #12]
100018a0:	9f03      	ldr	r7, [sp, #12]
100018a2:	4eba      	ldr	r6, [pc, #744]	; (10001b8c <__aeabi_dsub+0x32c>)
100018a4:	19a6      	adds	r6, r4, r6
100018a6:	2f00      	cmp	r7, #0
100018a8:	d00c      	beq.n	100018c4 <__aeabi_dsub+0x64>
100018aa:	9f02      	ldr	r7, [sp, #8]
100018ac:	9500      	str	r5, [sp, #0]
100018ae:	42af      	cmp	r7, r5
100018b0:	d000      	beq.n	100018b4 <__aeabi_dsub+0x54>
100018b2:	e1b5      	b.n	10001c20 <__aeabi_dsub+0x3c0>
100018b4:	2e00      	cmp	r6, #0
100018b6:	d100      	bne.n	100018ba <__aeabi_dsub+0x5a>
100018b8:	e104      	b.n	10001ac4 <__aeabi_dsub+0x264>
100018ba:	2c00      	cmp	r4, #0
100018bc:	d000      	beq.n	100018c0 <__aeabi_dsub+0x60>
100018be:	e2ba      	b.n	10001e36 <__aeabi_dsub+0x5d6>
100018c0:	4664      	mov	r4, ip
100018c2:	e0b8      	b.n	10001a36 <__aeabi_dsub+0x1d6>
100018c4:	2701      	movs	r7, #1
100018c6:	406f      	eors	r7, r5
100018c8:	9d02      	ldr	r5, [sp, #8]
100018ca:	9700      	str	r7, [sp, #0]
100018cc:	42bd      	cmp	r5, r7
100018ce:	d000      	beq.n	100018d2 <__aeabi_dsub+0x72>
100018d0:	e1af      	b.n	10001c32 <__aeabi_dsub+0x3d2>
100018d2:	2e00      	cmp	r6, #0
100018d4:	d100      	bne.n	100018d8 <__aeabi_dsub+0x78>
100018d6:	e0f5      	b.n	10001ac4 <__aeabi_dsub+0x264>
100018d8:	2c00      	cmp	r4, #0
100018da:	d0f1      	beq.n	100018c0 <__aeabi_dsub+0x60>
100018dc:	9903      	ldr	r1, [sp, #12]
100018de:	0008      	movs	r0, r1
100018e0:	e02f      	b.n	10001942 <__aeabi_dsub+0xe2>
100018e2:	2601      	movs	r6, #1
100018e4:	4075      	eors	r5, r6
100018e6:	9500      	str	r5, [sp, #0]
100018e8:	4665      	mov	r5, ip
100018ea:	9f02      	ldr	r7, [sp, #8]
100018ec:	9e00      	ldr	r6, [sp, #0]
100018ee:	1b65      	subs	r5, r4, r5
100018f0:	42b7      	cmp	r7, r6
100018f2:	d000      	beq.n	100018f6 <__aeabi_dsub+0x96>
100018f4:	e12e      	b.n	10001b54 <__aeabi_dsub+0x2f4>
100018f6:	2d00      	cmp	r5, #0
100018f8:	dc00      	bgt.n	100018fc <__aeabi_dsub+0x9c>
100018fa:	e076      	b.n	100019ea <__aeabi_dsub+0x18a>
100018fc:	4667      	mov	r7, ip
100018fe:	2f00      	cmp	r7, #0
10001900:	d121      	bne.n	10001946 <__aeabi_dsub+0xe6>
10001902:	001f      	movs	r7, r3
10001904:	4317      	orrs	r7, r2
10001906:	d100      	bne.n	1000190a <__aeabi_dsub+0xaa>
10001908:	e122      	b.n	10001b50 <__aeabi_dsub+0x2f0>
1000190a:	1e6f      	subs	r7, r5, #1
1000190c:	2d01      	cmp	r5, #1
1000190e:	d115      	bne.n	1000193c <__aeabi_dsub+0xdc>
10001910:	1882      	adds	r2, r0, r2
10001912:	4282      	cmp	r2, r0
10001914:	4180      	sbcs	r0, r0
10001916:	18c9      	adds	r1, r1, r3
10001918:	4240      	negs	r0, r0
1000191a:	1809      	adds	r1, r1, r0
1000191c:	2401      	movs	r4, #1
1000191e:	0010      	movs	r0, r2
10001920:	020b      	lsls	r3, r1, #8
10001922:	d400      	bmi.n	10001926 <__aeabi_dsub+0xc6>
10001924:	e096      	b.n	10001a54 <__aeabi_dsub+0x1f4>
10001926:	2402      	movs	r4, #2
10001928:	4b99      	ldr	r3, [pc, #612]	; (10001b90 <__aeabi_dsub+0x330>)
1000192a:	0842      	lsrs	r2, r0, #1
1000192c:	400b      	ands	r3, r1
1000192e:	2101      	movs	r1, #1
10001930:	4001      	ands	r1, r0
10001932:	430a      	orrs	r2, r1
10001934:	07d8      	lsls	r0, r3, #31
10001936:	4310      	orrs	r0, r2
10001938:	0859      	lsrs	r1, r3, #1
1000193a:	e08b      	b.n	10001a54 <__aeabi_dsub+0x1f4>
1000193c:	4e92      	ldr	r6, [pc, #584]	; (10001b88 <__aeabi_dsub+0x328>)
1000193e:	42b5      	cmp	r5, r6
10001940:	d122      	bne.n	10001988 <__aeabi_dsub+0x128>
10001942:	4c91      	ldr	r4, [pc, #580]	; (10001b88 <__aeabi_dsub+0x328>)
10001944:	e086      	b.n	10001a54 <__aeabi_dsub+0x1f4>
10001946:	4e90      	ldr	r6, [pc, #576]	; (10001b88 <__aeabi_dsub+0x328>)
10001948:	42b4      	cmp	r4, r6
1000194a:	d100      	bne.n	1000194e <__aeabi_dsub+0xee>
1000194c:	e082      	b.n	10001a54 <__aeabi_dsub+0x1f4>
1000194e:	2600      	movs	r6, #0
10001950:	46b4      	mov	ip, r6
10001952:	3601      	adds	r6, #1
10001954:	2d38      	cmp	r5, #56	; 0x38
10001956:	dc1a      	bgt.n	1000198e <__aeabi_dsub+0x12e>
10001958:	2680      	movs	r6, #128	; 0x80
1000195a:	002f      	movs	r7, r5
1000195c:	0436      	lsls	r6, r6, #16
1000195e:	4333      	orrs	r3, r6
10001960:	2f1f      	cmp	r7, #31
10001962:	dc31      	bgt.n	100019c8 <__aeabi_dsub+0x168>
10001964:	2520      	movs	r5, #32
10001966:	001e      	movs	r6, r3
10001968:	1bed      	subs	r5, r5, r7
1000196a:	40ae      	lsls	r6, r5
1000196c:	46b4      	mov	ip, r6
1000196e:	0016      	movs	r6, r2
10001970:	9500      	str	r5, [sp, #0]
10001972:	40fe      	lsrs	r6, r7
10001974:	4665      	mov	r5, ip
10001976:	432e      	orrs	r6, r5
10001978:	9d00      	ldr	r5, [sp, #0]
1000197a:	40fb      	lsrs	r3, r7
1000197c:	40aa      	lsls	r2, r5
1000197e:	1e55      	subs	r5, r2, #1
10001980:	41aa      	sbcs	r2, r5
10001982:	4316      	orrs	r6, r2
10001984:	469c      	mov	ip, r3
10001986:	e002      	b.n	1000198e <__aeabi_dsub+0x12e>
10001988:	2601      	movs	r6, #1
1000198a:	2f38      	cmp	r7, #56	; 0x38
1000198c:	dde8      	ble.n	10001960 <__aeabi_dsub+0x100>
1000198e:	1836      	adds	r6, r6, r0
10001990:	4286      	cmp	r6, r0
10001992:	4180      	sbcs	r0, r0
10001994:	4461      	add	r1, ip
10001996:	4240      	negs	r0, r0
10001998:	1809      	adds	r1, r1, r0
1000199a:	0030      	movs	r0, r6
1000199c:	020b      	lsls	r3, r1, #8
1000199e:	d559      	bpl.n	10001a54 <__aeabi_dsub+0x1f4>
100019a0:	2600      	movs	r6, #0
100019a2:	4b79      	ldr	r3, [pc, #484]	; (10001b88 <__aeabi_dsub+0x328>)
100019a4:	3401      	adds	r4, #1
100019a6:	46b4      	mov	ip, r6
100019a8:	429c      	cmp	r4, r3
100019aa:	d1bd      	bne.n	10001928 <__aeabi_dsub+0xc8>
100019ac:	4b79      	ldr	r3, [pc, #484]	; (10001b94 <__aeabi_dsub+0x334>)
100019ae:	0524      	lsls	r4, r4, #20
100019b0:	401c      	ands	r4, r3
100019b2:	4663      	mov	r3, ip
100019b4:	031b      	lsls	r3, r3, #12
100019b6:	0b1b      	lsrs	r3, r3, #12
100019b8:	431c      	orrs	r4, r3
100019ba:	9b02      	ldr	r3, [sp, #8]
100019bc:	0030      	movs	r0, r6
100019be:	07db      	lsls	r3, r3, #31
100019c0:	431c      	orrs	r4, r3
100019c2:	0021      	movs	r1, r4
100019c4:	b005      	add	sp, #20
100019c6:	bdf0      	pop	{r4, r5, r6, r7, pc}
100019c8:	003d      	movs	r5, r7
100019ca:	001e      	movs	r6, r3
100019cc:	3d20      	subs	r5, #32
100019ce:	40ee      	lsrs	r6, r5
100019d0:	2500      	movs	r5, #0
100019d2:	2f20      	cmp	r7, #32
100019d4:	d003      	beq.n	100019de <__aeabi_dsub+0x17e>
100019d6:	3540      	adds	r5, #64	; 0x40
100019d8:	1bed      	subs	r5, r5, r7
100019da:	40ab      	lsls	r3, r5
100019dc:	001d      	movs	r5, r3
100019de:	4315      	orrs	r5, r2
100019e0:	1e6b      	subs	r3, r5, #1
100019e2:	419d      	sbcs	r5, r3
100019e4:	2300      	movs	r3, #0
100019e6:	432e      	orrs	r6, r5
100019e8:	e7cc      	b.n	10001984 <__aeabi_dsub+0x124>
100019ea:	2d00      	cmp	r5, #0
100019ec:	d06a      	beq.n	10001ac4 <__aeabi_dsub+0x264>
100019ee:	4665      	mov	r5, ip
100019f0:	1b2d      	subs	r5, r5, r4
100019f2:	2c00      	cmp	r4, #0
100019f4:	d01e      	beq.n	10001a34 <__aeabi_dsub+0x1d4>
100019f6:	2400      	movs	r4, #0
100019f8:	2601      	movs	r6, #1
100019fa:	2d38      	cmp	r5, #56	; 0x38
100019fc:	dc12      	bgt.n	10001a24 <__aeabi_dsub+0x1c4>
100019fe:	2480      	movs	r4, #128	; 0x80
10001a00:	0424      	lsls	r4, r4, #16
10001a02:	4321      	orrs	r1, r4
10001a04:	2d1f      	cmp	r5, #31
10001a06:	dc4b      	bgt.n	10001aa0 <__aeabi_dsub+0x240>
10001a08:	2420      	movs	r4, #32
10001a0a:	000f      	movs	r7, r1
10001a0c:	0006      	movs	r6, r0
10001a0e:	1b64      	subs	r4, r4, r5
10001a10:	40a0      	lsls	r0, r4
10001a12:	40a7      	lsls	r7, r4
10001a14:	40ee      	lsrs	r6, r5
10001a16:	4337      	orrs	r7, r6
10001a18:	0006      	movs	r6, r0
10001a1a:	40e9      	lsrs	r1, r5
10001a1c:	1e70      	subs	r0, r6, #1
10001a1e:	4186      	sbcs	r6, r0
10001a20:	000c      	movs	r4, r1
10001a22:	433e      	orrs	r6, r7
10001a24:	18b0      	adds	r0, r6, r2
10001a26:	4290      	cmp	r0, r2
10001a28:	4192      	sbcs	r2, r2
10001a2a:	18e4      	adds	r4, r4, r3
10001a2c:	4252      	negs	r2, r2
10001a2e:	18a1      	adds	r1, r4, r2
10001a30:	4664      	mov	r4, ip
10001a32:	e7b3      	b.n	1000199c <__aeabi_dsub+0x13c>
10001a34:	002c      	movs	r4, r5
10001a36:	000d      	movs	r5, r1
10001a38:	4305      	orrs	r5, r0
10001a3a:	d029      	beq.n	10001a90 <__aeabi_dsub+0x230>
10001a3c:	1e65      	subs	r5, r4, #1
10001a3e:	2c01      	cmp	r4, #1
10001a40:	d123      	bne.n	10001a8a <__aeabi_dsub+0x22a>
10001a42:	1880      	adds	r0, r0, r2
10001a44:	4290      	cmp	r0, r2
10001a46:	4192      	sbcs	r2, r2
10001a48:	18c9      	adds	r1, r1, r3
10001a4a:	4252      	negs	r2, r2
10001a4c:	1889      	adds	r1, r1, r2
10001a4e:	020b      	lsls	r3, r1, #8
10001a50:	d500      	bpl.n	10001a54 <__aeabi_dsub+0x1f4>
10001a52:	e768      	b.n	10001926 <__aeabi_dsub+0xc6>
10001a54:	0743      	lsls	r3, r0, #29
10001a56:	d009      	beq.n	10001a6c <__aeabi_dsub+0x20c>
10001a58:	230f      	movs	r3, #15
10001a5a:	4003      	ands	r3, r0
10001a5c:	2b04      	cmp	r3, #4
10001a5e:	d005      	beq.n	10001a6c <__aeabi_dsub+0x20c>
10001a60:	1d03      	adds	r3, r0, #4
10001a62:	4283      	cmp	r3, r0
10001a64:	4180      	sbcs	r0, r0
10001a66:	4240      	negs	r0, r0
10001a68:	1809      	adds	r1, r1, r0
10001a6a:	0018      	movs	r0, r3
10001a6c:	020b      	lsls	r3, r1, #8
10001a6e:	d400      	bmi.n	10001a72 <__aeabi_dsub+0x212>
10001a70:	e1e4      	b.n	10001e3c <__aeabi_dsub+0x5dc>
10001a72:	2600      	movs	r6, #0
10001a74:	4b44      	ldr	r3, [pc, #272]	; (10001b88 <__aeabi_dsub+0x328>)
10001a76:	3401      	adds	r4, #1
10001a78:	46b4      	mov	ip, r6
10001a7a:	429c      	cmp	r4, r3
10001a7c:	d096      	beq.n	100019ac <__aeabi_dsub+0x14c>
10001a7e:	4b44      	ldr	r3, [pc, #272]	; (10001b90 <__aeabi_dsub+0x330>)
10001a80:	08c0      	lsrs	r0, r0, #3
10001a82:	400b      	ands	r3, r1
10001a84:	075e      	lsls	r6, r3, #29
10001a86:	4306      	orrs	r6, r0
10001a88:	e1cd      	b.n	10001e26 <__aeabi_dsub+0x5c6>
10001a8a:	4e3f      	ldr	r6, [pc, #252]	; (10001b88 <__aeabi_dsub+0x328>)
10001a8c:	42b4      	cmp	r4, r6
10001a8e:	d102      	bne.n	10001a96 <__aeabi_dsub+0x236>
10001a90:	0019      	movs	r1, r3
10001a92:	0010      	movs	r0, r2
10001a94:	e7de      	b.n	10001a54 <__aeabi_dsub+0x1f4>
10001a96:	2d38      	cmp	r5, #56	; 0x38
10001a98:	ddb4      	ble.n	10001a04 <__aeabi_dsub+0x1a4>
10001a9a:	2400      	movs	r4, #0
10001a9c:	2601      	movs	r6, #1
10001a9e:	e7c1      	b.n	10001a24 <__aeabi_dsub+0x1c4>
10001aa0:	002c      	movs	r4, r5
10001aa2:	000e      	movs	r6, r1
10001aa4:	3c20      	subs	r4, #32
10001aa6:	40e6      	lsrs	r6, r4
10001aa8:	0034      	movs	r4, r6
10001aaa:	2600      	movs	r6, #0
10001aac:	2d20      	cmp	r5, #32
10001aae:	d003      	beq.n	10001ab8 <__aeabi_dsub+0x258>
10001ab0:	3640      	adds	r6, #64	; 0x40
10001ab2:	1b76      	subs	r6, r6, r5
10001ab4:	40b1      	lsls	r1, r6
10001ab6:	000e      	movs	r6, r1
10001ab8:	4306      	orrs	r6, r0
10001aba:	1e71      	subs	r1, r6, #1
10001abc:	418e      	sbcs	r6, r1
10001abe:	4326      	orrs	r6, r4
10001ac0:	2400      	movs	r4, #0
10001ac2:	e7af      	b.n	10001a24 <__aeabi_dsub+0x1c4>
10001ac4:	4e34      	ldr	r6, [pc, #208]	; (10001b98 <__aeabi_dsub+0x338>)
10001ac6:	1c65      	adds	r5, r4, #1
10001ac8:	4235      	tst	r5, r6
10001aca:	d133      	bne.n	10001b34 <__aeabi_dsub+0x2d4>
10001acc:	000d      	movs	r5, r1
10001ace:	4305      	orrs	r5, r0
10001ad0:	2c00      	cmp	r4, #0
10001ad2:	d111      	bne.n	10001af8 <__aeabi_dsub+0x298>
10001ad4:	2d00      	cmp	r5, #0
10001ad6:	d0db      	beq.n	10001a90 <__aeabi_dsub+0x230>
10001ad8:	001d      	movs	r5, r3
10001ada:	4315      	orrs	r5, r2
10001adc:	d0ba      	beq.n	10001a54 <__aeabi_dsub+0x1f4>
10001ade:	1882      	adds	r2, r0, r2
10001ae0:	4282      	cmp	r2, r0
10001ae2:	4180      	sbcs	r0, r0
10001ae4:	18c9      	adds	r1, r1, r3
10001ae6:	4240      	negs	r0, r0
10001ae8:	1809      	adds	r1, r1, r0
10001aea:	0010      	movs	r0, r2
10001aec:	020b      	lsls	r3, r1, #8
10001aee:	d5b1      	bpl.n	10001a54 <__aeabi_dsub+0x1f4>
10001af0:	4b27      	ldr	r3, [pc, #156]	; (10001b90 <__aeabi_dsub+0x330>)
10001af2:	3401      	adds	r4, #1
10001af4:	4019      	ands	r1, r3
10001af6:	e7ad      	b.n	10001a54 <__aeabi_dsub+0x1f4>
10001af8:	2d00      	cmp	r5, #0
10001afa:	d100      	bne.n	10001afe <__aeabi_dsub+0x29e>
10001afc:	e19b      	b.n	10001e36 <__aeabi_dsub+0x5d6>
10001afe:	001c      	movs	r4, r3
10001b00:	4314      	orrs	r4, r2
10001b02:	2c00      	cmp	r4, #0
10001b04:	d100      	bne.n	10001b08 <__aeabi_dsub+0x2a8>
10001b06:	e71c      	b.n	10001942 <__aeabi_dsub+0xe2>
10001b08:	074c      	lsls	r4, r1, #29
10001b0a:	08c0      	lsrs	r0, r0, #3
10001b0c:	4320      	orrs	r0, r4
10001b0e:	2480      	movs	r4, #128	; 0x80
10001b10:	08c9      	lsrs	r1, r1, #3
10001b12:	0324      	lsls	r4, r4, #12
10001b14:	4221      	tst	r1, r4
10001b16:	d008      	beq.n	10001b2a <__aeabi_dsub+0x2ca>
10001b18:	08dd      	lsrs	r5, r3, #3
10001b1a:	4225      	tst	r5, r4
10001b1c:	d105      	bne.n	10001b2a <__aeabi_dsub+0x2ca>
10001b1e:	0029      	movs	r1, r5
10001b20:	075b      	lsls	r3, r3, #29
10001b22:	08d0      	lsrs	r0, r2, #3
10001b24:	4318      	orrs	r0, r3
10001b26:	9b00      	ldr	r3, [sp, #0]
10001b28:	9302      	str	r3, [sp, #8]
10001b2a:	00cb      	lsls	r3, r1, #3
10001b2c:	0f41      	lsrs	r1, r0, #29
10001b2e:	4319      	orrs	r1, r3
10001b30:	00c0      	lsls	r0, r0, #3
10001b32:	e706      	b.n	10001942 <__aeabi_dsub+0xe2>
10001b34:	4c14      	ldr	r4, [pc, #80]	; (10001b88 <__aeabi_dsub+0x328>)
10001b36:	42a5      	cmp	r5, r4
10001b38:	d100      	bne.n	10001b3c <__aeabi_dsub+0x2dc>
10001b3a:	e196      	b.n	10001e6a <__aeabi_dsub+0x60a>
10001b3c:	1882      	adds	r2, r0, r2
10001b3e:	4282      	cmp	r2, r0
10001b40:	4180      	sbcs	r0, r0
10001b42:	18cb      	adds	r3, r1, r3
10001b44:	4240      	negs	r0, r0
10001b46:	181b      	adds	r3, r3, r0
10001b48:	07d8      	lsls	r0, r3, #31
10001b4a:	0852      	lsrs	r2, r2, #1
10001b4c:	4310      	orrs	r0, r2
10001b4e:	0859      	lsrs	r1, r3, #1
10001b50:	002c      	movs	r4, r5
10001b52:	e77f      	b.n	10001a54 <__aeabi_dsub+0x1f4>
10001b54:	2d00      	cmp	r5, #0
10001b56:	dd76      	ble.n	10001c46 <__aeabi_dsub+0x3e6>
10001b58:	4666      	mov	r6, ip
10001b5a:	2e00      	cmp	r6, #0
10001b5c:	d12e      	bne.n	10001bbc <__aeabi_dsub+0x35c>
10001b5e:	001f      	movs	r7, r3
10001b60:	4317      	orrs	r7, r2
10001b62:	d0f5      	beq.n	10001b50 <__aeabi_dsub+0x2f0>
10001b64:	1e6f      	subs	r7, r5, #1
10001b66:	2d01      	cmp	r5, #1
10001b68:	d118      	bne.n	10001b9c <__aeabi_dsub+0x33c>
10001b6a:	1a82      	subs	r2, r0, r2
10001b6c:	4290      	cmp	r0, r2
10001b6e:	4180      	sbcs	r0, r0
10001b70:	1ac9      	subs	r1, r1, r3
10001b72:	4240      	negs	r0, r0
10001b74:	1a09      	subs	r1, r1, r0
10001b76:	2401      	movs	r4, #1
10001b78:	0010      	movs	r0, r2
10001b7a:	020b      	lsls	r3, r1, #8
10001b7c:	d400      	bmi.n	10001b80 <__aeabi_dsub+0x320>
10001b7e:	e769      	b.n	10001a54 <__aeabi_dsub+0x1f4>
10001b80:	0249      	lsls	r1, r1, #9
10001b82:	0006      	movs	r6, r0
10001b84:	0a4d      	lsrs	r5, r1, #9
10001b86:	e102      	b.n	10001d8e <__aeabi_dsub+0x52e>
10001b88:	000007ff 	.word	0x000007ff
10001b8c:	fffff801 	.word	0xfffff801
10001b90:	ff7fffff 	.word	0xff7fffff
10001b94:	7ff00000 	.word	0x7ff00000
10001b98:	000007fe 	.word	0x000007fe
10001b9c:	4eb7      	ldr	r6, [pc, #732]	; (10001e7c <__aeabi_dsub+0x61c>)
10001b9e:	42b5      	cmp	r5, r6
10001ba0:	d100      	bne.n	10001ba4 <__aeabi_dsub+0x344>
10001ba2:	e6ce      	b.n	10001942 <__aeabi_dsub+0xe2>
10001ba4:	2601      	movs	r6, #1
10001ba6:	2f38      	cmp	r7, #56	; 0x38
10001ba8:	dd15      	ble.n	10001bd6 <__aeabi_dsub+0x376>
10001baa:	1b86      	subs	r6, r0, r6
10001bac:	4663      	mov	r3, ip
10001bae:	42b0      	cmp	r0, r6
10001bb0:	4180      	sbcs	r0, r0
10001bb2:	1ac9      	subs	r1, r1, r3
10001bb4:	4240      	negs	r0, r0
10001bb6:	1a09      	subs	r1, r1, r0
10001bb8:	0030      	movs	r0, r6
10001bba:	e7de      	b.n	10001b7a <__aeabi_dsub+0x31a>
10001bbc:	4eaf      	ldr	r6, [pc, #700]	; (10001e7c <__aeabi_dsub+0x61c>)
10001bbe:	42b4      	cmp	r4, r6
10001bc0:	d100      	bne.n	10001bc4 <__aeabi_dsub+0x364>
10001bc2:	e747      	b.n	10001a54 <__aeabi_dsub+0x1f4>
10001bc4:	2600      	movs	r6, #0
10001bc6:	46b4      	mov	ip, r6
10001bc8:	3601      	adds	r6, #1
10001bca:	2d38      	cmp	r5, #56	; 0x38
10001bcc:	dced      	bgt.n	10001baa <__aeabi_dsub+0x34a>
10001bce:	2680      	movs	r6, #128	; 0x80
10001bd0:	002f      	movs	r7, r5
10001bd2:	0436      	lsls	r6, r6, #16
10001bd4:	4333      	orrs	r3, r6
10001bd6:	2f1f      	cmp	r7, #31
10001bd8:	dc11      	bgt.n	10001bfe <__aeabi_dsub+0x39e>
10001bda:	2520      	movs	r5, #32
10001bdc:	001e      	movs	r6, r3
10001bde:	1bed      	subs	r5, r5, r7
10001be0:	40ae      	lsls	r6, r5
10001be2:	46b4      	mov	ip, r6
10001be4:	0016      	movs	r6, r2
10001be6:	9500      	str	r5, [sp, #0]
10001be8:	40fe      	lsrs	r6, r7
10001bea:	4665      	mov	r5, ip
10001bec:	432e      	orrs	r6, r5
10001bee:	9d00      	ldr	r5, [sp, #0]
10001bf0:	40fb      	lsrs	r3, r7
10001bf2:	40aa      	lsls	r2, r5
10001bf4:	1e55      	subs	r5, r2, #1
10001bf6:	41aa      	sbcs	r2, r5
10001bf8:	4316      	orrs	r6, r2
10001bfa:	469c      	mov	ip, r3
10001bfc:	e7d5      	b.n	10001baa <__aeabi_dsub+0x34a>
10001bfe:	003d      	movs	r5, r7
10001c00:	001e      	movs	r6, r3
10001c02:	3d20      	subs	r5, #32
10001c04:	40ee      	lsrs	r6, r5
10001c06:	2500      	movs	r5, #0
10001c08:	2f20      	cmp	r7, #32
10001c0a:	d003      	beq.n	10001c14 <__aeabi_dsub+0x3b4>
10001c0c:	3540      	adds	r5, #64	; 0x40
10001c0e:	1bed      	subs	r5, r5, r7
10001c10:	40ab      	lsls	r3, r5
10001c12:	001d      	movs	r5, r3
10001c14:	4315      	orrs	r5, r2
10001c16:	1e6b      	subs	r3, r5, #1
10001c18:	419d      	sbcs	r5, r3
10001c1a:	2300      	movs	r3, #0
10001c1c:	432e      	orrs	r6, r5
10001c1e:	e7ec      	b.n	10001bfa <__aeabi_dsub+0x39a>
10001c20:	2e00      	cmp	r6, #0
10001c22:	d067      	beq.n	10001cf4 <__aeabi_dsub+0x494>
10001c24:	2c00      	cmp	r4, #0
10001c26:	d025      	beq.n	10001c74 <__aeabi_dsub+0x414>
10001c28:	0019      	movs	r1, r3
10001c2a:	0010      	movs	r0, r2
10001c2c:	4c93      	ldr	r4, [pc, #588]	; (10001e7c <__aeabi_dsub+0x61c>)
10001c2e:	9502      	str	r5, [sp, #8]
10001c30:	e710      	b.n	10001a54 <__aeabi_dsub+0x1f4>
10001c32:	2e00      	cmp	r6, #0
10001c34:	d05e      	beq.n	10001cf4 <__aeabi_dsub+0x494>
10001c36:	2c00      	cmp	r4, #0
10001c38:	d01f      	beq.n	10001c7a <__aeabi_dsub+0x41a>
10001c3a:	9903      	ldr	r1, [sp, #12]
10001c3c:	4c8f      	ldr	r4, [pc, #572]	; (10001e7c <__aeabi_dsub+0x61c>)
10001c3e:	0008      	movs	r0, r1
10001c40:	9b00      	ldr	r3, [sp, #0]
10001c42:	9302      	str	r3, [sp, #8]
10001c44:	e706      	b.n	10001a54 <__aeabi_dsub+0x1f4>
10001c46:	2d00      	cmp	r5, #0
10001c48:	d054      	beq.n	10001cf4 <__aeabi_dsub+0x494>
10001c4a:	4665      	mov	r5, ip
10001c4c:	1b2d      	subs	r5, r5, r4
10001c4e:	2c00      	cmp	r4, #0
10001c50:	d11f      	bne.n	10001c92 <__aeabi_dsub+0x432>
10001c52:	9c00      	ldr	r4, [sp, #0]
10001c54:	9402      	str	r4, [sp, #8]
10001c56:	002c      	movs	r4, r5
10001c58:	000d      	movs	r5, r1
10001c5a:	4305      	orrs	r5, r0
10001c5c:	d100      	bne.n	10001c60 <__aeabi_dsub+0x400>
10001c5e:	e717      	b.n	10001a90 <__aeabi_dsub+0x230>
10001c60:	1e65      	subs	r5, r4, #1
10001c62:	2c01      	cmp	r4, #1
10001c64:	d10c      	bne.n	10001c80 <__aeabi_dsub+0x420>
10001c66:	1a10      	subs	r0, r2, r0
10001c68:	4282      	cmp	r2, r0
10001c6a:	4192      	sbcs	r2, r2
10001c6c:	1a59      	subs	r1, r3, r1
10001c6e:	4252      	negs	r2, r2
10001c70:	1a89      	subs	r1, r1, r2
10001c72:	e782      	b.n	10001b7a <__aeabi_dsub+0x31a>
10001c74:	9502      	str	r5, [sp, #8]
10001c76:	4664      	mov	r4, ip
10001c78:	e7ee      	b.n	10001c58 <__aeabi_dsub+0x3f8>
10001c7a:	9c00      	ldr	r4, [sp, #0]
10001c7c:	9402      	str	r4, [sp, #8]
10001c7e:	e7fa      	b.n	10001c76 <__aeabi_dsub+0x416>
10001c80:	4e7e      	ldr	r6, [pc, #504]	; (10001e7c <__aeabi_dsub+0x61c>)
10001c82:	42b4      	cmp	r4, r6
10001c84:	d100      	bne.n	10001c88 <__aeabi_dsub+0x428>
10001c86:	e703      	b.n	10001a90 <__aeabi_dsub+0x230>
10001c88:	2d38      	cmp	r5, #56	; 0x38
10001c8a:	dd09      	ble.n	10001ca0 <__aeabi_dsub+0x440>
10001c8c:	2100      	movs	r1, #0
10001c8e:	2601      	movs	r6, #1
10001c90:	e014      	b.n	10001cbc <__aeabi_dsub+0x45c>
10001c92:	2d38      	cmp	r5, #56	; 0x38
10001c94:	dc2b      	bgt.n	10001cee <__aeabi_dsub+0x48e>
10001c96:	2480      	movs	r4, #128	; 0x80
10001c98:	0424      	lsls	r4, r4, #16
10001c9a:	4321      	orrs	r1, r4
10001c9c:	9c00      	ldr	r4, [sp, #0]
10001c9e:	9402      	str	r4, [sp, #8]
10001ca0:	2d1f      	cmp	r5, #31
10001ca2:	dc13      	bgt.n	10001ccc <__aeabi_dsub+0x46c>
10001ca4:	2420      	movs	r4, #32
10001ca6:	000f      	movs	r7, r1
10001ca8:	1b64      	subs	r4, r4, r5
10001caa:	0006      	movs	r6, r0
10001cac:	40a0      	lsls	r0, r4
10001cae:	40a7      	lsls	r7, r4
10001cb0:	40ee      	lsrs	r6, r5
10001cb2:	1e44      	subs	r4, r0, #1
10001cb4:	41a0      	sbcs	r0, r4
10001cb6:	40e9      	lsrs	r1, r5
10001cb8:	433e      	orrs	r6, r7
10001cba:	4306      	orrs	r6, r0
10001cbc:	1b90      	subs	r0, r2, r6
10001cbe:	4282      	cmp	r2, r0
10001cc0:	4192      	sbcs	r2, r2
10001cc2:	1a59      	subs	r1, r3, r1
10001cc4:	4252      	negs	r2, r2
10001cc6:	4664      	mov	r4, ip
10001cc8:	1a89      	subs	r1, r1, r2
10001cca:	e756      	b.n	10001b7a <__aeabi_dsub+0x31a>
10001ccc:	002c      	movs	r4, r5
10001cce:	000e      	movs	r6, r1
10001cd0:	3c20      	subs	r4, #32
10001cd2:	40e6      	lsrs	r6, r4
10001cd4:	2400      	movs	r4, #0
10001cd6:	2d20      	cmp	r5, #32
10001cd8:	d003      	beq.n	10001ce2 <__aeabi_dsub+0x482>
10001cda:	3440      	adds	r4, #64	; 0x40
10001cdc:	1b64      	subs	r4, r4, r5
10001cde:	40a1      	lsls	r1, r4
10001ce0:	000c      	movs	r4, r1
10001ce2:	4304      	orrs	r4, r0
10001ce4:	1e61      	subs	r1, r4, #1
10001ce6:	418c      	sbcs	r4, r1
10001ce8:	2100      	movs	r1, #0
10001cea:	4326      	orrs	r6, r4
10001cec:	e7e6      	b.n	10001cbc <__aeabi_dsub+0x45c>
10001cee:	9900      	ldr	r1, [sp, #0]
10001cf0:	9102      	str	r1, [sp, #8]
10001cf2:	e7cb      	b.n	10001c8c <__aeabi_dsub+0x42c>
10001cf4:	4e62      	ldr	r6, [pc, #392]	; (10001e80 <__aeabi_dsub+0x620>)
10001cf6:	1c65      	adds	r5, r4, #1
10001cf8:	4235      	tst	r5, r6
10001cfa:	d138      	bne.n	10001d6e <__aeabi_dsub+0x50e>
10001cfc:	001d      	movs	r5, r3
10001cfe:	4315      	orrs	r5, r2
10001d00:	46ac      	mov	ip, r5
10001d02:	000d      	movs	r5, r1
10001d04:	4305      	orrs	r5, r0
10001d06:	2c00      	cmp	r4, #0
10001d08:	d125      	bne.n	10001d56 <__aeabi_dsub+0x4f6>
10001d0a:	2d00      	cmp	r5, #0
10001d0c:	d108      	bne.n	10001d20 <__aeabi_dsub+0x4c0>
10001d0e:	4661      	mov	r1, ip
10001d10:	0026      	movs	r6, r4
10001d12:	9402      	str	r4, [sp, #8]
10001d14:	2900      	cmp	r1, #0
10001d16:	d100      	bne.n	10001d1a <__aeabi_dsub+0x4ba>
10001d18:	e648      	b.n	100019ac <__aeabi_dsub+0x14c>
10001d1a:	0019      	movs	r1, r3
10001d1c:	0010      	movs	r0, r2
10001d1e:	e78f      	b.n	10001c40 <__aeabi_dsub+0x3e0>
10001d20:	4665      	mov	r5, ip
10001d22:	2d00      	cmp	r5, #0
10001d24:	d100      	bne.n	10001d28 <__aeabi_dsub+0x4c8>
10001d26:	e695      	b.n	10001a54 <__aeabi_dsub+0x1f4>
10001d28:	1a86      	subs	r6, r0, r2
10001d2a:	42b0      	cmp	r0, r6
10001d2c:	41bf      	sbcs	r7, r7
10001d2e:	1acd      	subs	r5, r1, r3
10001d30:	427f      	negs	r7, r7
10001d32:	1bed      	subs	r5, r5, r7
10001d34:	022f      	lsls	r7, r5, #8
10001d36:	d506      	bpl.n	10001d46 <__aeabi_dsub+0x4e6>
10001d38:	1a10      	subs	r0, r2, r0
10001d3a:	4282      	cmp	r2, r0
10001d3c:	4192      	sbcs	r2, r2
10001d3e:	1a59      	subs	r1, r3, r1
10001d40:	4252      	negs	r2, r2
10001d42:	1a89      	subs	r1, r1, r2
10001d44:	e77c      	b.n	10001c40 <__aeabi_dsub+0x3e0>
10001d46:	0033      	movs	r3, r6
10001d48:	432b      	orrs	r3, r5
10001d4a:	469c      	mov	ip, r3
10001d4c:	d100      	bne.n	10001d50 <__aeabi_dsub+0x4f0>
10001d4e:	e08f      	b.n	10001e70 <__aeabi_dsub+0x610>
10001d50:	0029      	movs	r1, r5
10001d52:	0030      	movs	r0, r6
10001d54:	e67e      	b.n	10001a54 <__aeabi_dsub+0x1f4>
10001d56:	2d00      	cmp	r5, #0
10001d58:	d107      	bne.n	10001d6a <__aeabi_dsub+0x50a>
10001d5a:	4661      	mov	r1, ip
10001d5c:	2900      	cmp	r1, #0
10001d5e:	d07a      	beq.n	10001e56 <__aeabi_dsub+0x5f6>
10001d60:	0019      	movs	r1, r3
10001d62:	9b00      	ldr	r3, [sp, #0]
10001d64:	0010      	movs	r0, r2
10001d66:	9302      	str	r3, [sp, #8]
10001d68:	e5eb      	b.n	10001942 <__aeabi_dsub+0xe2>
10001d6a:	4664      	mov	r4, ip
10001d6c:	e6c9      	b.n	10001b02 <__aeabi_dsub+0x2a2>
10001d6e:	1a86      	subs	r6, r0, r2
10001d70:	42b0      	cmp	r0, r6
10001d72:	41bf      	sbcs	r7, r7
10001d74:	1acd      	subs	r5, r1, r3
10001d76:	427f      	negs	r7, r7
10001d78:	1bed      	subs	r5, r5, r7
10001d7a:	022f      	lsls	r7, r5, #8
10001d7c:	d528      	bpl.n	10001dd0 <__aeabi_dsub+0x570>
10001d7e:	1a16      	subs	r6, r2, r0
10001d80:	42b2      	cmp	r2, r6
10001d82:	4192      	sbcs	r2, r2
10001d84:	1a5b      	subs	r3, r3, r1
10001d86:	4252      	negs	r2, r2
10001d88:	1a9d      	subs	r5, r3, r2
10001d8a:	9b00      	ldr	r3, [sp, #0]
10001d8c:	9302      	str	r3, [sp, #8]
10001d8e:	2d00      	cmp	r5, #0
10001d90:	d026      	beq.n	10001de0 <__aeabi_dsub+0x580>
10001d92:	0028      	movs	r0, r5
10001d94:	f7fe faf6 	bl	10000384 <__clzsi2>
10001d98:	0003      	movs	r3, r0
10001d9a:	3b08      	subs	r3, #8
10001d9c:	2220      	movs	r2, #32
10001d9e:	0031      	movs	r1, r6
10001da0:	1ad2      	subs	r2, r2, r3
10001da2:	409d      	lsls	r5, r3
10001da4:	40d1      	lsrs	r1, r2
10001da6:	4329      	orrs	r1, r5
10001da8:	0035      	movs	r5, r6
10001daa:	409d      	lsls	r5, r3
10001dac:	429c      	cmp	r4, r3
10001dae:	dc3d      	bgt.n	10001e2c <__aeabi_dsub+0x5cc>
10001db0:	1b1a      	subs	r2, r3, r4
10001db2:	3201      	adds	r2, #1
10001db4:	2320      	movs	r3, #32
10001db6:	0008      	movs	r0, r1
10001db8:	1a9b      	subs	r3, r3, r2
10001dba:	002c      	movs	r4, r5
10001dbc:	409d      	lsls	r5, r3
10001dbe:	4098      	lsls	r0, r3
10001dc0:	40d4      	lsrs	r4, r2
10001dc2:	1e6b      	subs	r3, r5, #1
10001dc4:	419d      	sbcs	r5, r3
10001dc6:	40d1      	lsrs	r1, r2
10001dc8:	4320      	orrs	r0, r4
10001dca:	4328      	orrs	r0, r5
10001dcc:	2400      	movs	r4, #0
10001dce:	e641      	b.n	10001a54 <__aeabi_dsub+0x1f4>
10001dd0:	0033      	movs	r3, r6
10001dd2:	432b      	orrs	r3, r5
10001dd4:	469c      	mov	ip, r3
10001dd6:	d1da      	bne.n	10001d8e <__aeabi_dsub+0x52e>
10001dd8:	001e      	movs	r6, r3
10001dda:	001c      	movs	r4, r3
10001ddc:	9302      	str	r3, [sp, #8]
10001dde:	e5e5      	b.n	100019ac <__aeabi_dsub+0x14c>
10001de0:	0030      	movs	r0, r6
10001de2:	f7fe facf 	bl	10000384 <__clzsi2>
10001de6:	0003      	movs	r3, r0
10001de8:	3318      	adds	r3, #24
10001dea:	2b1f      	cmp	r3, #31
10001dec:	ddd6      	ble.n	10001d9c <__aeabi_dsub+0x53c>
10001dee:	0031      	movs	r1, r6
10001df0:	3808      	subs	r0, #8
10001df2:	4081      	lsls	r1, r0
10001df4:	429c      	cmp	r4, r3
10001df6:	dc12      	bgt.n	10001e1e <__aeabi_dsub+0x5be>
10001df8:	1b1b      	subs	r3, r3, r4
10001dfa:	1c5a      	adds	r2, r3, #1
10001dfc:	2a1f      	cmp	r2, #31
10001dfe:	ddd9      	ble.n	10001db4 <__aeabi_dsub+0x554>
10001e00:	000c      	movs	r4, r1
10001e02:	3b1f      	subs	r3, #31
10001e04:	40dc      	lsrs	r4, r3
10001e06:	0028      	movs	r0, r5
10001e08:	2a20      	cmp	r2, #32
10001e0a:	d003      	beq.n	10001e14 <__aeabi_dsub+0x5b4>
10001e0c:	2340      	movs	r3, #64	; 0x40
10001e0e:	1a9b      	subs	r3, r3, r2
10001e10:	4099      	lsls	r1, r3
10001e12:	0008      	movs	r0, r1
10001e14:	1e43      	subs	r3, r0, #1
10001e16:	4198      	sbcs	r0, r3
10001e18:	2100      	movs	r1, #0
10001e1a:	4320      	orrs	r0, r4
10001e1c:	e7d6      	b.n	10001dcc <__aeabi_dsub+0x56c>
10001e1e:	1ae4      	subs	r4, r4, r3
10001e20:	4b18      	ldr	r3, [pc, #96]	; (10001e84 <__aeabi_dsub+0x624>)
10001e22:	400b      	ands	r3, r1
10001e24:	075e      	lsls	r6, r3, #29
10001e26:	08db      	lsrs	r3, r3, #3
10001e28:	469c      	mov	ip, r3
10001e2a:	e5bf      	b.n	100019ac <__aeabi_dsub+0x14c>
10001e2c:	1ae4      	subs	r4, r4, r3
10001e2e:	4b15      	ldr	r3, [pc, #84]	; (10001e84 <__aeabi_dsub+0x624>)
10001e30:	0028      	movs	r0, r5
10001e32:	4019      	ands	r1, r3
10001e34:	e60e      	b.n	10001a54 <__aeabi_dsub+0x1f4>
10001e36:	0019      	movs	r1, r3
10001e38:	0010      	movs	r0, r2
10001e3a:	e582      	b.n	10001942 <__aeabi_dsub+0xe2>
10001e3c:	074b      	lsls	r3, r1, #29
10001e3e:	08c0      	lsrs	r0, r0, #3
10001e40:	4303      	orrs	r3, r0
10001e42:	469c      	mov	ip, r3
10001e44:	4b0d      	ldr	r3, [pc, #52]	; (10001e7c <__aeabi_dsub+0x61c>)
10001e46:	4666      	mov	r6, ip
10001e48:	08c9      	lsrs	r1, r1, #3
10001e4a:	429c      	cmp	r4, r3
10001e4c:	d113      	bne.n	10001e76 <__aeabi_dsub+0x616>
10001e4e:	430e      	orrs	r6, r1
10001e50:	d104      	bne.n	10001e5c <__aeabi_dsub+0x5fc>
10001e52:	46b4      	mov	ip, r6
10001e54:	e5aa      	b.n	100019ac <__aeabi_dsub+0x14c>
10001e56:	9102      	str	r1, [sp, #8]
10001e58:	2180      	movs	r1, #128	; 0x80
10001e5a:	0309      	lsls	r1, r1, #12
10001e5c:	2380      	movs	r3, #128	; 0x80
10001e5e:	031b      	lsls	r3, r3, #12
10001e60:	430b      	orrs	r3, r1
10001e62:	4666      	mov	r6, ip
10001e64:	4c05      	ldr	r4, [pc, #20]	; (10001e7c <__aeabi_dsub+0x61c>)
10001e66:	469c      	mov	ip, r3
10001e68:	e5a0      	b.n	100019ac <__aeabi_dsub+0x14c>
10001e6a:	2600      	movs	r6, #0
10001e6c:	4c03      	ldr	r4, [pc, #12]	; (10001e7c <__aeabi_dsub+0x61c>)
10001e6e:	e7f0      	b.n	10001e52 <__aeabi_dsub+0x5f2>
10001e70:	0026      	movs	r6, r4
10001e72:	9402      	str	r4, [sp, #8]
10001e74:	e59a      	b.n	100019ac <__aeabi_dsub+0x14c>
10001e76:	468c      	mov	ip, r1
10001e78:	e598      	b.n	100019ac <__aeabi_dsub+0x14c>
10001e7a:	46c0      	nop			; (mov r8, r8)
10001e7c:	000007ff 	.word	0x000007ff
10001e80:	000007fe 	.word	0x000007fe
10001e84:	ff7fffff 	.word	0xff7fffff

10001e88 <__aeabi_ui2d>:
10001e88:	b510      	push	{r4, lr}
10001e8a:	0003      	movs	r3, r0
10001e8c:	0004      	movs	r4, r0
10001e8e:	1e02      	subs	r2, r0, #0
10001e90:	d00c      	beq.n	10001eac <__aeabi_ui2d+0x24>
10001e92:	f7fe fa77 	bl	10000384 <__clzsi2>
10001e96:	4a0b      	ldr	r2, [pc, #44]	; (10001ec4 <__aeabi_ui2d+0x3c>)
10001e98:	1a12      	subs	r2, r2, r0
10001e9a:	280a      	cmp	r0, #10
10001e9c:	dc0d      	bgt.n	10001eba <__aeabi_ui2d+0x32>
10001e9e:	230b      	movs	r3, #11
10001ea0:	0021      	movs	r1, r4
10001ea2:	1a1b      	subs	r3, r3, r0
10001ea4:	40d9      	lsrs	r1, r3
10001ea6:	3015      	adds	r0, #21
10001ea8:	000b      	movs	r3, r1
10001eaa:	4084      	lsls	r4, r0
10001eac:	031b      	lsls	r3, r3, #12
10001eae:	0b1b      	lsrs	r3, r3, #12
10001eb0:	0512      	lsls	r2, r2, #20
10001eb2:	431a      	orrs	r2, r3
10001eb4:	0020      	movs	r0, r4
10001eb6:	0011      	movs	r1, r2
10001eb8:	bd10      	pop	{r4, pc}
10001eba:	0023      	movs	r3, r4
10001ebc:	380b      	subs	r0, #11
10001ebe:	4083      	lsls	r3, r0
10001ec0:	2400      	movs	r4, #0
10001ec2:	e7f3      	b.n	10001eac <__aeabi_ui2d+0x24>
10001ec4:	0000041e 	.word	0x0000041e

10001ec8 <__aeabi_f2d>:
10001ec8:	22fe      	movs	r2, #254	; 0xfe
10001eca:	b570      	push	{r4, r5, r6, lr}
10001ecc:	0044      	lsls	r4, r0, #1
10001ece:	0e24      	lsrs	r4, r4, #24
10001ed0:	0243      	lsls	r3, r0, #9
10001ed2:	1c61      	adds	r1, r4, #1
10001ed4:	0a5d      	lsrs	r5, r3, #9
10001ed6:	0fc6      	lsrs	r6, r0, #31
10001ed8:	4211      	tst	r1, r2
10001eda:	d00d      	beq.n	10001ef8 <__aeabi_f2d+0x30>
10001edc:	22e0      	movs	r2, #224	; 0xe0
10001ede:	0092      	lsls	r2, r2, #2
10001ee0:	18a4      	adds	r4, r4, r2
10001ee2:	0b1b      	lsrs	r3, r3, #12
10001ee4:	076d      	lsls	r5, r5, #29
10001ee6:	031b      	lsls	r3, r3, #12
10001ee8:	0b1b      	lsrs	r3, r3, #12
10001eea:	0524      	lsls	r4, r4, #20
10001eec:	07f6      	lsls	r6, r6, #31
10001eee:	431c      	orrs	r4, r3
10001ef0:	4334      	orrs	r4, r6
10001ef2:	0028      	movs	r0, r5
10001ef4:	0021      	movs	r1, r4
10001ef6:	bd70      	pop	{r4, r5, r6, pc}
10001ef8:	2c00      	cmp	r4, #0
10001efa:	d118      	bne.n	10001f2e <__aeabi_f2d+0x66>
10001efc:	0023      	movs	r3, r4
10001efe:	2d00      	cmp	r5, #0
10001f00:	d0f1      	beq.n	10001ee6 <__aeabi_f2d+0x1e>
10001f02:	0028      	movs	r0, r5
10001f04:	f7fe fa3e 	bl	10000384 <__clzsi2>
10001f08:	280a      	cmp	r0, #10
10001f0a:	dc0a      	bgt.n	10001f22 <__aeabi_f2d+0x5a>
10001f0c:	230b      	movs	r3, #11
10001f0e:	002a      	movs	r2, r5
10001f10:	1a1b      	subs	r3, r3, r0
10001f12:	40da      	lsrs	r2, r3
10001f14:	0013      	movs	r3, r2
10001f16:	0002      	movs	r2, r0
10001f18:	3215      	adds	r2, #21
10001f1a:	4095      	lsls	r5, r2
10001f1c:	4c09      	ldr	r4, [pc, #36]	; (10001f44 <__aeabi_f2d+0x7c>)
10001f1e:	1a24      	subs	r4, r4, r0
10001f20:	e7e1      	b.n	10001ee6 <__aeabi_f2d+0x1e>
10001f22:	0003      	movs	r3, r0
10001f24:	3b0b      	subs	r3, #11
10001f26:	409d      	lsls	r5, r3
10001f28:	002b      	movs	r3, r5
10001f2a:	0025      	movs	r5, r4
10001f2c:	e7f6      	b.n	10001f1c <__aeabi_f2d+0x54>
10001f2e:	2d00      	cmp	r5, #0
10001f30:	d006      	beq.n	10001f40 <__aeabi_f2d+0x78>
10001f32:	0b1a      	lsrs	r2, r3, #12
10001f34:	2380      	movs	r3, #128	; 0x80
10001f36:	031b      	lsls	r3, r3, #12
10001f38:	076d      	lsls	r5, r5, #29
10001f3a:	4313      	orrs	r3, r2
10001f3c:	4c02      	ldr	r4, [pc, #8]	; (10001f48 <__aeabi_f2d+0x80>)
10001f3e:	e7d2      	b.n	10001ee6 <__aeabi_f2d+0x1e>
10001f40:	002b      	movs	r3, r5
10001f42:	e7fb      	b.n	10001f3c <__aeabi_f2d+0x74>
10001f44:	00000389 	.word	0x00000389
10001f48:	000007ff 	.word	0x000007ff

10001f4c <__aeabi_d2f>:
10001f4c:	b5f7      	push	{r0, r1, r2, r4, r5, r6, r7, lr}
10001f4e:	030b      	lsls	r3, r1, #12
10001f50:	004a      	lsls	r2, r1, #1
10001f52:	0a5b      	lsrs	r3, r3, #9
10001f54:	0f46      	lsrs	r6, r0, #29
10001f56:	0d52      	lsrs	r2, r2, #21
10001f58:	431e      	orrs	r6, r3
10001f5a:	1c53      	adds	r3, r2, #1
10001f5c:	469c      	mov	ip, r3
10001f5e:	0004      	movs	r4, r0
10001f60:	00c7      	lsls	r7, r0, #3
10001f62:	483c      	ldr	r0, [pc, #240]	; (10002054 <__aeabi_d2f+0x108>)
10001f64:	0fc9      	lsrs	r1, r1, #31
10001f66:	4003      	ands	r3, r0
10001f68:	9301      	str	r3, [sp, #4]
10001f6a:	4663      	mov	r3, ip
10001f6c:	4203      	tst	r3, r0
10001f6e:	d049      	beq.n	10002004 <__aeabi_d2f+0xb8>
10001f70:	4b39      	ldr	r3, [pc, #228]	; (10002058 <__aeabi_d2f+0x10c>)
10001f72:	18d0      	adds	r0, r2, r3
10001f74:	28fe      	cmp	r0, #254	; 0xfe
10001f76:	dc68      	bgt.n	1000204a <__aeabi_d2f+0xfe>
10001f78:	2800      	cmp	r0, #0
10001f7a:	dc37      	bgt.n	10001fec <__aeabi_d2f+0xa0>
10001f7c:	0003      	movs	r3, r0
10001f7e:	3317      	adds	r3, #23
10001f80:	db65      	blt.n	1000204e <__aeabi_d2f+0x102>
10001f82:	2480      	movs	r4, #128	; 0x80
10001f84:	251e      	movs	r5, #30
10001f86:	0424      	lsls	r4, r4, #16
10001f88:	4334      	orrs	r4, r6
10001f8a:	1a2d      	subs	r5, r5, r0
10001f8c:	2d1f      	cmp	r5, #31
10001f8e:	dc10      	bgt.n	10001fb2 <__aeabi_d2f+0x66>
10001f90:	4b32      	ldr	r3, [pc, #200]	; (1000205c <__aeabi_d2f+0x110>)
10001f92:	18d2      	adds	r2, r2, r3
10001f94:	003b      	movs	r3, r7
10001f96:	4097      	lsls	r7, r2
10001f98:	4094      	lsls	r4, r2
10001f9a:	1e78      	subs	r0, r7, #1
10001f9c:	4187      	sbcs	r7, r0
10001f9e:	40eb      	lsrs	r3, r5
10001fa0:	4327      	orrs	r7, r4
10001fa2:	433b      	orrs	r3, r7
10001fa4:	2407      	movs	r4, #7
10001fa6:	001a      	movs	r2, r3
10001fa8:	4022      	ands	r2, r4
10001faa:	4223      	tst	r3, r4
10001fac:	d13b      	bne.n	10002026 <__aeabi_d2f+0xda>
10001fae:	08db      	lsrs	r3, r3, #3
10001fb0:	e032      	b.n	10002018 <__aeabi_d2f+0xcc>
10001fb2:	2302      	movs	r3, #2
10001fb4:	425b      	negs	r3, r3
10001fb6:	1a1b      	subs	r3, r3, r0
10001fb8:	0020      	movs	r0, r4
10001fba:	40d8      	lsrs	r0, r3
10001fbc:	0003      	movs	r3, r0
10001fbe:	2000      	movs	r0, #0
10001fc0:	2d20      	cmp	r5, #32
10001fc2:	d003      	beq.n	10001fcc <__aeabi_d2f+0x80>
10001fc4:	4826      	ldr	r0, [pc, #152]	; (10002060 <__aeabi_d2f+0x114>)
10001fc6:	1812      	adds	r2, r2, r0
10001fc8:	0020      	movs	r0, r4
10001fca:	4090      	lsls	r0, r2
10001fcc:	4338      	orrs	r0, r7
10001fce:	1e42      	subs	r2, r0, #1
10001fd0:	4190      	sbcs	r0, r2
10001fd2:	4303      	orrs	r3, r0
10001fd4:	2407      	movs	r4, #7
10001fd6:	001a      	movs	r2, r3
10001fd8:	4022      	ands	r2, r4
10001fda:	4223      	tst	r3, r4
10001fdc:	d0e7      	beq.n	10001fae <__aeabi_d2f+0x62>
10001fde:	220f      	movs	r2, #15
10001fe0:	401a      	ands	r2, r3
10001fe2:	2a04      	cmp	r2, #4
10001fe4:	d024      	beq.n	10002030 <__aeabi_d2f+0xe4>
10001fe6:	2000      	movs	r0, #0
10001fe8:	3304      	adds	r3, #4
10001fea:	e008      	b.n	10001ffe <__aeabi_d2f+0xb2>
10001fec:	01a4      	lsls	r4, r4, #6
10001fee:	1e62      	subs	r2, r4, #1
10001ff0:	4194      	sbcs	r4, r2
10001ff2:	00f6      	lsls	r6, r6, #3
10001ff4:	0f7b      	lsrs	r3, r7, #29
10001ff6:	4334      	orrs	r4, r6
10001ff8:	4323      	orrs	r3, r4
10001ffa:	075a      	lsls	r2, r3, #29
10001ffc:	d11b      	bne.n	10002036 <__aeabi_d2f+0xea>
10001ffe:	0002      	movs	r2, r0
10002000:	08db      	lsrs	r3, r3, #3
10002002:	e009      	b.n	10002018 <__aeabi_d2f+0xcc>
10002004:	9b01      	ldr	r3, [sp, #4]
10002006:	2a00      	cmp	r2, #0
10002008:	d006      	beq.n	10002018 <__aeabi_d2f+0xcc>
1000200a:	003b      	movs	r3, r7
1000200c:	22ff      	movs	r2, #255	; 0xff
1000200e:	4333      	orrs	r3, r6
10002010:	d002      	beq.n	10002018 <__aeabi_d2f+0xcc>
10002012:	2380      	movs	r3, #128	; 0x80
10002014:	03db      	lsls	r3, r3, #15
10002016:	4333      	orrs	r3, r6
10002018:	025b      	lsls	r3, r3, #9
1000201a:	05d0      	lsls	r0, r2, #23
1000201c:	0a5b      	lsrs	r3, r3, #9
1000201e:	4318      	orrs	r0, r3
10002020:	07c9      	lsls	r1, r1, #31
10002022:	4308      	orrs	r0, r1
10002024:	bdfe      	pop	{r1, r2, r3, r4, r5, r6, r7, pc}
10002026:	220f      	movs	r2, #15
10002028:	2000      	movs	r0, #0
1000202a:	401a      	ands	r2, r3
1000202c:	2a04      	cmp	r2, #4
1000202e:	d106      	bne.n	1000203e <__aeabi_d2f+0xf2>
10002030:	2200      	movs	r2, #0
10002032:	08db      	lsrs	r3, r3, #3
10002034:	e7f0      	b.n	10002018 <__aeabi_d2f+0xcc>
10002036:	220f      	movs	r2, #15
10002038:	401a      	ands	r2, r3
1000203a:	2a04      	cmp	r2, #4
1000203c:	d0df      	beq.n	10001ffe <__aeabi_d2f+0xb2>
1000203e:	3304      	adds	r3, #4
10002040:	015a      	lsls	r2, r3, #5
10002042:	d5dc      	bpl.n	10001ffe <__aeabi_d2f+0xb2>
10002044:	1c42      	adds	r2, r0, #1
10002046:	2300      	movs	r3, #0
10002048:	e7e6      	b.n	10002018 <__aeabi_d2f+0xcc>
1000204a:	22ff      	movs	r2, #255	; 0xff
1000204c:	e7fb      	b.n	10002046 <__aeabi_d2f+0xfa>
1000204e:	2200      	movs	r2, #0
10002050:	0013      	movs	r3, r2
10002052:	e7e1      	b.n	10002018 <__aeabi_d2f+0xcc>
10002054:	000007fe 	.word	0x000007fe
10002058:	fffffc80 	.word	0xfffffc80
1000205c:	fffffc82 	.word	0xfffffc82
10002060:	fffffca2 	.word	0xfffffca2

10002064 <__aeabi_llsr>:
10002064:	40d0      	lsrs	r0, r2
10002066:	000b      	movs	r3, r1
10002068:	40d1      	lsrs	r1, r2
1000206a:	469c      	mov	ip, r3
1000206c:	3a20      	subs	r2, #32
1000206e:	40d3      	lsrs	r3, r2
10002070:	4318      	orrs	r0, r3
10002072:	4252      	negs	r2, r2
10002074:	4663      	mov	r3, ip
10002076:	4093      	lsls	r3, r2
10002078:	4318      	orrs	r0, r3
1000207a:	4770      	bx	lr

1000207c <__aeabi_llsl>:
1000207c:	4091      	lsls	r1, r2
1000207e:	0003      	movs	r3, r0
10002080:	4090      	lsls	r0, r2
10002082:	469c      	mov	ip, r3
10002084:	3a20      	subs	r2, #32
10002086:	4093      	lsls	r3, r2
10002088:	4319      	orrs	r1, r3
1000208a:	4252      	negs	r2, r2
1000208c:	4663      	mov	r3, ip
1000208e:	40d3      	lsrs	r3, r2
10002090:	4319      	orrs	r1, r3
10002092:	4770      	bx	lr

10002094 <__clzdi2>:
10002094:	b510      	push	{r4, lr}
10002096:	2900      	cmp	r1, #0
10002098:	d103      	bne.n	100020a2 <__clzdi2+0xe>
1000209a:	f7fe f973 	bl	10000384 <__clzsi2>
1000209e:	3020      	adds	r0, #32
100020a0:	e002      	b.n	100020a8 <__clzdi2+0x14>
100020a2:	0008      	movs	r0, r1
100020a4:	f7fe f96e 	bl	10000384 <__clzsi2>
100020a8:	bd10      	pop	{r4, pc}
100020aa:	46c0      	nop			; (mov r8, r8)

100020ac <__aeabi_d2uiz>:
100020ac:	b570      	push	{r4, r5, r6, lr}
100020ae:	2200      	movs	r2, #0
100020b0:	4b0b      	ldr	r3, [pc, #44]	; (100020e0 <__aeabi_d2uiz+0x34>)
100020b2:	0004      	movs	r4, r0
100020b4:	000d      	movs	r5, r1
100020b6:	f7fe f95b 	bl	10000370 <__aeabi_dcmpge>
100020ba:	2800      	cmp	r0, #0
100020bc:	d00b      	beq.n	100020d6 <__aeabi_d2uiz+0x2a>
100020be:	4b08      	ldr	r3, [pc, #32]	; (100020e0 <__aeabi_d2uiz+0x34>)
100020c0:	2200      	movs	r2, #0
100020c2:	0020      	movs	r0, r4
100020c4:	0029      	movs	r1, r5
100020c6:	f7ff fbcb 	bl	10001860 <__aeabi_dsub>
100020ca:	f000 f80b 	bl	100020e4 <__aeabi_d2iz>
100020ce:	2380      	movs	r3, #128	; 0x80
100020d0:	061b      	lsls	r3, r3, #24
100020d2:	18c0      	adds	r0, r0, r3
100020d4:	bd70      	pop	{r4, r5, r6, pc}
100020d6:	0020      	movs	r0, r4
100020d8:	0029      	movs	r1, r5
100020da:	f000 f803 	bl	100020e4 <__aeabi_d2iz>
100020de:	e7f9      	b.n	100020d4 <__aeabi_d2uiz+0x28>
100020e0:	41e00000 	.word	0x41e00000

100020e4 <__aeabi_d2iz>:
100020e4:	000b      	movs	r3, r1
100020e6:	b570      	push	{r4, r5, r6, lr}
100020e8:	4e11      	ldr	r6, [pc, #68]	; (10002130 <__aeabi_d2iz+0x4c>)
100020ea:	030c      	lsls	r4, r1, #12
100020ec:	0049      	lsls	r1, r1, #1
100020ee:	0002      	movs	r2, r0
100020f0:	0b24      	lsrs	r4, r4, #12
100020f2:	2000      	movs	r0, #0
100020f4:	0d49      	lsrs	r1, r1, #21
100020f6:	0fdd      	lsrs	r5, r3, #31
100020f8:	42b1      	cmp	r1, r6
100020fa:	dd04      	ble.n	10002106 <__aeabi_d2iz+0x22>
100020fc:	480d      	ldr	r0, [pc, #52]	; (10002134 <__aeabi_d2iz+0x50>)
100020fe:	4281      	cmp	r1, r0
10002100:	dd02      	ble.n	10002108 <__aeabi_d2iz+0x24>
10002102:	4b0d      	ldr	r3, [pc, #52]	; (10002138 <__aeabi_d2iz+0x54>)
10002104:	18e8      	adds	r0, r5, r3
10002106:	bd70      	pop	{r4, r5, r6, pc}
10002108:	2080      	movs	r0, #128	; 0x80
1000210a:	0340      	lsls	r0, r0, #13
1000210c:	4320      	orrs	r0, r4
1000210e:	4c0b      	ldr	r4, [pc, #44]	; (1000213c <__aeabi_d2iz+0x58>)
10002110:	1a64      	subs	r4, r4, r1
10002112:	2c1f      	cmp	r4, #31
10002114:	dc08      	bgt.n	10002128 <__aeabi_d2iz+0x44>
10002116:	4e0a      	ldr	r6, [pc, #40]	; (10002140 <__aeabi_d2iz+0x5c>)
10002118:	40e2      	lsrs	r2, r4
1000211a:	1989      	adds	r1, r1, r6
1000211c:	4088      	lsls	r0, r1
1000211e:	4310      	orrs	r0, r2
10002120:	2d00      	cmp	r5, #0
10002122:	d0f0      	beq.n	10002106 <__aeabi_d2iz+0x22>
10002124:	4240      	negs	r0, r0
10002126:	e7ee      	b.n	10002106 <__aeabi_d2iz+0x22>
10002128:	4b06      	ldr	r3, [pc, #24]	; (10002144 <__aeabi_d2iz+0x60>)
1000212a:	1a5b      	subs	r3, r3, r1
1000212c:	40d8      	lsrs	r0, r3
1000212e:	e7f7      	b.n	10002120 <__aeabi_d2iz+0x3c>
10002130:	000003fe 	.word	0x000003fe
10002134:	0000041d 	.word	0x0000041d
10002138:	7fffffff 	.word	0x7fffffff
1000213c:	00000433 	.word	0x00000433
10002140:	fffffbed 	.word	0xfffffbed
10002144:	00000413 	.word	0x00000413

10002148 <__aeabi_lmul>:
10002148:	b5f7      	push	{r0, r1, r2, r4, r5, r6, r7, lr}
1000214a:	0c04      	lsrs	r4, r0, #16
1000214c:	000d      	movs	r5, r1
1000214e:	b291      	uxth	r1, r2
10002150:	000f      	movs	r7, r1
10002152:	4361      	muls	r1, r4
10002154:	468c      	mov	ip, r1
10002156:	0006      	movs	r6, r0
10002158:	9301      	str	r3, [sp, #4]
1000215a:	b283      	uxth	r3, r0
1000215c:	0c10      	lsrs	r0, r2, #16
1000215e:	435f      	muls	r7, r3
10002160:	4344      	muls	r4, r0
10002162:	4358      	muls	r0, r3
10002164:	0c3b      	lsrs	r3, r7, #16
10002166:	4460      	add	r0, ip
10002168:	181b      	adds	r3, r3, r0
1000216a:	4299      	cmp	r1, r3
1000216c:	d902      	bls.n	10002174 <__aeabi_lmul+0x2c>
1000216e:	2180      	movs	r1, #128	; 0x80
10002170:	0249      	lsls	r1, r1, #9
10002172:	1864      	adds	r4, r4, r1
10002174:	9901      	ldr	r1, [sp, #4]
10002176:	4355      	muls	r5, r2
10002178:	4371      	muls	r1, r6
1000217a:	0c18      	lsrs	r0, r3, #16
1000217c:	1904      	adds	r4, r0, r4
1000217e:	041b      	lsls	r3, r3, #16
10002180:	b2bf      	uxth	r7, r7
10002182:	1949      	adds	r1, r1, r5
10002184:	19d8      	adds	r0, r3, r7
10002186:	1909      	adds	r1, r1, r4
10002188:	b003      	add	sp, #12
1000218a:	bdf0      	pop	{r4, r5, r6, r7, pc}

1000218c <__ffssi2>:
1000218c:	b510      	push	{r4, lr}
1000218e:	2800      	cmp	r0, #0
10002190:	d002      	beq.n	10002198 <__ffssi2+0xc>
10002192:	f7fe f915 	bl	100003c0 <__ctzsi2>
10002196:	3001      	adds	r0, #1
10002198:	bd10      	pop	{r4, pc}

1000219a <__udivmoddi4>:
1000219a:	b5f0      	push	{r4, r5, r6, r7, lr}
1000219c:	0006      	movs	r6, r0
1000219e:	000f      	movs	r7, r1
100021a0:	0015      	movs	r5, r2
100021a2:	001c      	movs	r4, r3
100021a4:	b085      	sub	sp, #20
100021a6:	428b      	cmp	r3, r1
100021a8:	d863      	bhi.n	10002272 <__udivmoddi4+0xd8>
100021aa:	d101      	bne.n	100021b0 <__udivmoddi4+0x16>
100021ac:	4282      	cmp	r2, r0
100021ae:	d860      	bhi.n	10002272 <__udivmoddi4+0xd8>
100021b0:	0021      	movs	r1, r4
100021b2:	0028      	movs	r0, r5
100021b4:	f7ff ff6e 	bl	10002094 <__clzdi2>
100021b8:	0039      	movs	r1, r7
100021ba:	9000      	str	r0, [sp, #0]
100021bc:	0030      	movs	r0, r6
100021be:	f7ff ff69 	bl	10002094 <__clzdi2>
100021c2:	9b00      	ldr	r3, [sp, #0]
100021c4:	0021      	movs	r1, r4
100021c6:	1a1b      	subs	r3, r3, r0
100021c8:	001a      	movs	r2, r3
100021ca:	0028      	movs	r0, r5
100021cc:	9303      	str	r3, [sp, #12]
100021ce:	f7ff ff55 	bl	1000207c <__aeabi_llsl>
100021d2:	9000      	str	r0, [sp, #0]
100021d4:	9101      	str	r1, [sp, #4]
100021d6:	42b9      	cmp	r1, r7
100021d8:	d845      	bhi.n	10002266 <__udivmoddi4+0xcc>
100021da:	d101      	bne.n	100021e0 <__udivmoddi4+0x46>
100021dc:	42b0      	cmp	r0, r6
100021de:	d842      	bhi.n	10002266 <__udivmoddi4+0xcc>
100021e0:	9b00      	ldr	r3, [sp, #0]
100021e2:	9c01      	ldr	r4, [sp, #4]
100021e4:	2001      	movs	r0, #1
100021e6:	2100      	movs	r1, #0
100021e8:	9a03      	ldr	r2, [sp, #12]
100021ea:	1af6      	subs	r6, r6, r3
100021ec:	41a7      	sbcs	r7, r4
100021ee:	f7ff ff45 	bl	1000207c <__aeabi_llsl>
100021f2:	0004      	movs	r4, r0
100021f4:	000d      	movs	r5, r1
100021f6:	9b03      	ldr	r3, [sp, #12]
100021f8:	2b00      	cmp	r3, #0
100021fa:	d02b      	beq.n	10002254 <__udivmoddi4+0xba>
100021fc:	9b01      	ldr	r3, [sp, #4]
100021fe:	9a00      	ldr	r2, [sp, #0]
10002200:	07db      	lsls	r3, r3, #31
10002202:	0850      	lsrs	r0, r2, #1
10002204:	4318      	orrs	r0, r3
10002206:	9b01      	ldr	r3, [sp, #4]
10002208:	0859      	lsrs	r1, r3, #1
1000220a:	9b03      	ldr	r3, [sp, #12]
1000220c:	469c      	mov	ip, r3
1000220e:	42b9      	cmp	r1, r7
10002210:	d82c      	bhi.n	1000226c <__udivmoddi4+0xd2>
10002212:	d101      	bne.n	10002218 <__udivmoddi4+0x7e>
10002214:	42b0      	cmp	r0, r6
10002216:	d829      	bhi.n	1000226c <__udivmoddi4+0xd2>
10002218:	0032      	movs	r2, r6
1000221a:	003b      	movs	r3, r7
1000221c:	1a12      	subs	r2, r2, r0
1000221e:	418b      	sbcs	r3, r1
10002220:	2601      	movs	r6, #1
10002222:	1892      	adds	r2, r2, r2
10002224:	415b      	adcs	r3, r3
10002226:	2700      	movs	r7, #0
10002228:	18b6      	adds	r6, r6, r2
1000222a:	415f      	adcs	r7, r3
1000222c:	2301      	movs	r3, #1
1000222e:	425b      	negs	r3, r3
10002230:	449c      	add	ip, r3
10002232:	4663      	mov	r3, ip
10002234:	2b00      	cmp	r3, #0
10002236:	d1ea      	bne.n	1000220e <__udivmoddi4+0x74>
10002238:	0030      	movs	r0, r6
1000223a:	0039      	movs	r1, r7
1000223c:	9a03      	ldr	r2, [sp, #12]
1000223e:	f7ff ff11 	bl	10002064 <__aeabi_llsr>
10002242:	9a03      	ldr	r2, [sp, #12]
10002244:	19a4      	adds	r4, r4, r6
10002246:	417d      	adcs	r5, r7
10002248:	0006      	movs	r6, r0
1000224a:	000f      	movs	r7, r1
1000224c:	f7ff ff16 	bl	1000207c <__aeabi_llsl>
10002250:	1a24      	subs	r4, r4, r0
10002252:	418d      	sbcs	r5, r1
10002254:	9b0a      	ldr	r3, [sp, #40]	; 0x28
10002256:	2b00      	cmp	r3, #0
10002258:	d001      	beq.n	1000225e <__udivmoddi4+0xc4>
1000225a:	601e      	str	r6, [r3, #0]
1000225c:	605f      	str	r7, [r3, #4]
1000225e:	0020      	movs	r0, r4
10002260:	0029      	movs	r1, r5
10002262:	b005      	add	sp, #20
10002264:	bdf0      	pop	{r4, r5, r6, r7, pc}
10002266:	2400      	movs	r4, #0
10002268:	2500      	movs	r5, #0
1000226a:	e7c4      	b.n	100021f6 <__udivmoddi4+0x5c>
1000226c:	19b6      	adds	r6, r6, r6
1000226e:	417f      	adcs	r7, r7
10002270:	e7dc      	b.n	1000222c <__udivmoddi4+0x92>
10002272:	2400      	movs	r4, #0
10002274:	2500      	movs	r5, #0
10002276:	e7ed      	b.n	10002254 <__udivmoddi4+0xba>

10002278 <pwm_set>:
 * @retval -ENOTSUP If requested period or pulse cycles are not supported.
 * @retval -errno Other negative errno code on failure.
 */
static inline int pwm_set(const struct device *dev, uint32_t channel,
			  uint32_t period, uint32_t pulse, pwm_flags_t flags)
{
10002278:	b5f0      	push	{r4, r5, r6, r7, lr}
1000227a:	b08b      	sub	sp, #44	; 0x2c
1000227c:	9304      	str	r3, [sp, #16]
1000227e:	ab10      	add	r3, sp, #64	; 0x40
10002280:	881b      	ldrh	r3, [r3, #0]
10002282:	0004      	movs	r4, r0
10002284:	0015      	movs	r5, r2
10002286:	9103      	str	r1, [sp, #12]
10002288:	9305      	str	r3, [sp, #20]
	return api->get_cycles_per_sec(dev, channel, cycles);
1000228a:	6883      	ldr	r3, [r0, #8]
1000228c:	9903      	ldr	r1, [sp, #12]
1000228e:	685b      	ldr	r3, [r3, #4]
10002290:	aa08      	add	r2, sp, #32
10002292:	4798      	blx	r3
	uint64_t pulse_cycles;
	uint64_t period_cycles;
	uint64_t cycles_per_sec;

	err = pwm_get_cycles_per_sec(dev, channel, &cycles_per_sec);
	if (err < 0) {
10002294:	2800      	cmp	r0, #0
10002296:	db2b      	blt.n	100022f0 <pwm_set+0x78>
		return err;
	}

	period_cycles = (period * cycles_per_sec) / NSEC_PER_SEC;
10002298:	9e08      	ldr	r6, [sp, #32]
1000229a:	9f09      	ldr	r7, [sp, #36]	; 0x24
1000229c:	0028      	movs	r0, r5
1000229e:	0032      	movs	r2, r6
100022a0:	003b      	movs	r3, r7
100022a2:	2100      	movs	r1, #0
100022a4:	f7ff ff50 	bl	10002148 <__aeabi_lmul>
100022a8:	2300      	movs	r3, #0
100022aa:	4a15      	ldr	r2, [pc, #84]	; (10002300 <pwm_set+0x88>)
100022ac:	9106      	str	r1, [sp, #24]
100022ae:	f7fe f8a7 	bl	10000400 <__aeabi_uldivmod>
	if (period_cycles > UINT32_MAX) {
100022b2:	9906      	ldr	r1, [sp, #24]
100022b4:	4b13      	ldr	r3, [pc, #76]	; (10002304 <pwm_set+0x8c>)
	period_cycles = (period * cycles_per_sec) / NSEC_PER_SEC;
100022b6:	0005      	movs	r5, r0
100022b8:	9007      	str	r0, [sp, #28]
	if (period_cycles > UINT32_MAX) {
100022ba:	4299      	cmp	r1, r3
100022bc:	d81a      	bhi.n	100022f4 <pwm_set+0x7c>
		return -ENOTSUP;
	}

	pulse_cycles = (pulse * cycles_per_sec) / NSEC_PER_SEC;
100022be:	0032      	movs	r2, r6
100022c0:	003b      	movs	r3, r7
100022c2:	2100      	movs	r1, #0
100022c4:	9804      	ldr	r0, [sp, #16]
100022c6:	f7ff ff3f 	bl	10002148 <__aeabi_lmul>
100022ca:	2300      	movs	r3, #0
100022cc:	4a0c      	ldr	r2, [pc, #48]	; (10002300 <pwm_set+0x88>)
100022ce:	000e      	movs	r6, r1
100022d0:	f7fe f896 	bl	10000400 <__aeabi_uldivmod>
	if (pulse_cycles > UINT32_MAX) {
100022d4:	4a0b      	ldr	r2, [pc, #44]	; (10002304 <pwm_set+0x8c>)
	pulse_cycles = (pulse * cycles_per_sec) / NSEC_PER_SEC;
100022d6:	0003      	movs	r3, r0
	if (pulse_cycles > UINT32_MAX) {
100022d8:	4296      	cmp	r6, r2
100022da:	d80b      	bhi.n	100022f4 <pwm_set+0x7c>
	const struct pwm_driver_api *api =
100022dc:	68a2      	ldr	r2, [r4, #8]
	if (pulse > period) {
100022de:	4285      	cmp	r5, r0
100022e0:	d30b      	bcc.n	100022fa <pwm_set+0x82>
	return api->set_cycles(dev, channel, period, pulse, flags);
100022e2:	9905      	ldr	r1, [sp, #20]
100022e4:	0020      	movs	r0, r4
100022e6:	9100      	str	r1, [sp, #0]
100022e8:	6816      	ldr	r6, [r2, #0]
100022ea:	9903      	ldr	r1, [sp, #12]
100022ec:	002a      	movs	r2, r5
100022ee:	47b0      	blx	r6
		return -ENOTSUP;
	}

	return pwm_set_cycles(dev, channel, (uint32_t)period_cycles,
			      (uint32_t)pulse_cycles, flags);
}
100022f0:	b00b      	add	sp, #44	; 0x2c
100022f2:	bdf0      	pop	{r4, r5, r6, r7, pc}
		return -ENOTSUP;
100022f4:	2086      	movs	r0, #134	; 0x86
		return -EINVAL;
100022f6:	4240      	negs	r0, r0
100022f8:	e7fa      	b.n	100022f0 <pwm_set+0x78>
100022fa:	2016      	movs	r0, #22
100022fc:	e7fb      	b.n	100022f6 <pwm_set+0x7e>
100022fe:	46c0      	nop			; (mov r8, r8)
10002300:	3b9aca00 	.word	0x3b9aca00
10002304:	3b9ac9ff 	.word	0x3b9ac9ff

10002308 <main>:
	DT_FOREACH_PROP_ELEM(DT_PATH(zephyr_user), io_channels,
			     DT_SPEC_AND_COMMA)
};

void main(void)
{   /*%%%%%%%%%%%------MAIN-ADC-------%%%%%%%%%%%*/
10002308:	b5f0      	push	{r4, r5, r6, r7, lr}
1000230a:	b08d      	sub	sp, #52	; 0x34
	int err;
	uint16_t buf;
	struct adc_sequence sequence = {
1000230c:	ac07      	add	r4, sp, #28
1000230e:	2214      	movs	r2, #20
10002310:	2100      	movs	r1, #0
10002312:	0020      	movs	r0, r4
10002314:	f003 fb64 	bl	100059e0 <memset>
10002318:	230e      	movs	r3, #14
1000231a:	aa02      	add	r2, sp, #8
1000231c:	189b      	adds	r3, r3, r2
1000231e:	60a3      	str	r3, [r4, #8]
10002320:	2302      	movs	r3, #2
10002322:	60e3      	str	r3, [r4, #12]
 */
__syscall bool device_is_ready(const struct device *dev);

static inline bool z_impl_device_is_ready(const struct device *dev)
{
	return z_device_is_ready(dev);
10002324:	4d52      	ldr	r5, [pc, #328]	; (10002470 <main+0x168>)
10002326:	0028      	movs	r0, r5
10002328:	f003 fe4c 	bl	10005fc4 <z_device_is_ready>
		.buffer_size = sizeof(buf),
	};

	/* Configure channels individually prior to sampling. */
	for (size_t i = 0U; i < ARRAY_SIZE(adc_channels); i++) {
		if (!device_is_ready(adc_channels[i].dev)) {
1000232c:	2800      	cmp	r0, #0
1000232e:	d016      	beq.n	1000235e <main+0x56>
					   const struct adc_channel_cfg *channel_cfg)
{
	const struct adc_driver_api *api =
				(const struct adc_driver_api *)dev->api;

	return api->channel_setup(dev, channel_cfg);
10002330:	68ab      	ldr	r3, [r5, #8]
10002332:	0028      	movs	r0, r5
10002334:	494f      	ldr	r1, [pc, #316]	; (10002474 <main+0x16c>)
10002336:	681b      	ldr	r3, [r3, #0]
10002338:	4798      	blx	r3
1000233a:	1e02      	subs	r2, r0, #0
			printk("ADC controller device not ready\n");
			return;
		}

		err = adc_channel_setup_dt(&adc_channels[i]);
		if (err < 0) {
1000233c:	db14      	blt.n	10002368 <main+0x60>
	uint32_t period;
	uint8_t dir = 0U;
	int ret;
	int T;

	printk("PWM-based blinky\n");
1000233e:	484e      	ldr	r0, [pc, #312]	; (10002478 <main+0x170>)
10002340:	f003 fa0f 	bl	10005762 <printk>
10002344:	4b4d      	ldr	r3, [pc, #308]	; (1000247c <main+0x174>)
10002346:	0018      	movs	r0, r3
10002348:	9303      	str	r3, [sp, #12]
1000234a:	f003 fe3b 	bl	10005fc4 <z_device_is_ready>

	if (!device_is_ready(pwm_led0.dev)) {
1000234e:	2800      	cmp	r0, #0
10002350:	d10f      	bne.n	10002372 <main+0x6a>
		printk("Error: PWM device %s is not ready\n",
10002352:	9b03      	ldr	r3, [sp, #12]
10002354:	484a      	ldr	r0, [pc, #296]	; (10002480 <main+0x178>)
10002356:	6819      	ldr	r1, [r3, #0]

			printk("Periodo = %"PRId32" ns\n", T);

			ret = pwm_set_dt(&pwm_led0, T, T / 2U);
			if (ret) {
				printk("Error %d: failed to set pulse width\n", ret);
10002358:	f003 fa03 	bl	10005762 <printk>
				return;
1000235c:	e002      	b.n	10002364 <main+0x5c>
			printk("ADC controller device not ready\n");
1000235e:	4849      	ldr	r0, [pc, #292]	; (10002484 <main+0x17c>)
10002360:	f003 f9ff 	bl	10005762 <printk>
			printk("\n");
		}

		k_sleep(K_MSEC(1000));
	}
}
10002364:	b00d      	add	sp, #52	; 0x34
10002366:	bdf0      	pop	{r4, r5, r6, r7, pc}
			printk("Could not setup channel #%d (%d)\n", i, err);
10002368:	2100      	movs	r1, #0
1000236a:	4847      	ldr	r0, [pc, #284]	; (10002488 <main+0x180>)
1000236c:	f003 f9f9 	bl	10005762 <printk>
			return;
10002370:	e7f8      	b.n	10002364 <main+0x5c>
	printk("Calibrating for channel %d...\n", pwm_led0.channel);
10002372:	2109      	movs	r1, #9
10002374:	4845      	ldr	r0, [pc, #276]	; (1000248c <main+0x184>)
10002376:	f003 f9f4 	bl	10005762 <printk>
	while (pwm_set_dt(&pwm_led0, max_period, max_period / 2U)) {
1000237a:	2606      	movs	r6, #6
	max_period = MAX_PERIOD;
1000237c:	4f44      	ldr	r7, [pc, #272]	; (10002490 <main+0x188>)
 * @see pwm_set_pulse_dt()
 */
static inline int pwm_set_dt(const struct pwm_dt_spec *spec, uint32_t period,
			     uint32_t pulse)
{
	return pwm_set(spec->dev, spec->channel, period, pulse, spec->flags);
1000237e:	2300      	movs	r3, #0
10002380:	9702      	str	r7, [sp, #8]
	while (pwm_set_dt(&pwm_led0, max_period, max_period / 2U)) {
10002382:	087f      	lsrs	r7, r7, #1
10002384:	9300      	str	r3, [sp, #0]
10002386:	2109      	movs	r1, #9
10002388:	003b      	movs	r3, r7
1000238a:	483c      	ldr	r0, [pc, #240]	; (1000247c <main+0x174>)
1000238c:	9a02      	ldr	r2, [sp, #8]
1000238e:	f7ff ff73 	bl	10002278 <pwm_set>
10002392:	2800      	cmp	r0, #0
10002394:	d11f      	bne.n	100023d6 <main+0xce>
	printk("Done calibrating; maximum/minimum periods %u/%lu nsec\n",
10002396:	483f      	ldr	r0, [pc, #252]	; (10002494 <main+0x18c>)
10002398:	4a3f      	ldr	r2, [pc, #252]	; (10002498 <main+0x190>)
1000239a:	9902      	ldr	r1, [sp, #8]
1000239c:	f003 f9e1 	bl	10005762 <printk>
		printk("ADC reading:\n");
100023a0:	483e      	ldr	r0, [pc, #248]	; (1000249c <main+0x194>)
100023a2:	f003 f9de 	bl	10005762 <printk>
			printk("- %s, channel %d: ",
100023a6:	2200      	movs	r2, #0
100023a8:	483d      	ldr	r0, [pc, #244]	; (100024a0 <main+0x198>)
100023aa:	6829      	ldr	r1, [r5, #0]
100023ac:	f003 f9d9 	bl	10005762 <printk>
{
	if (!spec->channel_cfg_dt_node_exists) {
		return -ENOTSUP;
	}

	seq->channels = BIT(spec->channel_id);
100023b0:	2301      	movs	r3, #1
100023b2:	6063      	str	r3, [r4, #4]
	seq->resolution = spec->resolution;
100023b4:	330b      	adds	r3, #11
100023b6:	8223      	strh	r3, [r4, #16]
	const struct adc_driver_api *api =
100023b8:	68af      	ldr	r7, [r5, #8]
	return api->read(dev, sequence);
100023ba:	0021      	movs	r1, r4
100023bc:	0028      	movs	r0, r5
100023be:	687b      	ldr	r3, [r7, #4]
100023c0:	4798      	blx	r3
100023c2:	1e01      	subs	r1, r0, #0
			if (err < 0) {
100023c4:	da0d      	bge.n	100023e2 <main+0xda>
				printk("Could not read (%d)\n", err);
100023c6:	4837      	ldr	r0, [pc, #220]	; (100024a4 <main+0x19c>)
100023c8:	f003 f9cb 	bl	10005762 <printk>
		union { struct { uintptr_t lo, hi; } split; k_timeout_t val; } parm0 = { .val = timeout };
		return (int32_t) arch_syscall_invoke2(parm0.split.lo, parm0.split.hi, K_SYSCALL_K_SLEEP);
	}
#endif
	compiler_barrier();
	return z_impl_k_sleep(timeout);
100023cc:	2100      	movs	r1, #0
100023ce:	4836      	ldr	r0, [pc, #216]	; (100024a8 <main+0x1a0>)
100023d0:	f002 ff16 	bl	10005200 <z_impl_k_sleep>
	while (1) {
100023d4:	e7e4      	b.n	100023a0 <main+0x98>
		if (max_period < (4U * MIN_PERIOD)) {
100023d6:	3e01      	subs	r6, #1
100023d8:	2e00      	cmp	r6, #0
100023da:	d1d0      	bne.n	1000237e <main+0x76>
			printk("Error: PWM device "
100023dc:	4833      	ldr	r0, [pc, #204]	; (100024ac <main+0x1a4>)
100023de:	4934      	ldr	r1, [pc, #208]	; (100024b0 <main+0x1a8>)
100023e0:	e7ba      	b.n	10002358 <main+0x50>
				printk("%"PRIu16, buf);
100023e2:	ab02      	add	r3, sp, #8
100023e4:	89d9      	ldrh	r1, [r3, #14]
100023e6:	4833      	ldr	r0, [pc, #204]	; (100024b4 <main+0x1ac>)
100023e8:	f003 f9bb 	bl	10005762 <printk>
			val_mv = buf;
100023ec:	ab02      	add	r3, sp, #8
100023ee:	89de      	ldrh	r6, [r3, #14]
		vref_mv = (int32_t)adc_ref_internal(spec->dev);
100023f0:	893b      	ldrh	r3, [r7, #8]
	int ret = adc_gain_invert(gain, &adc_mv);
100023f2:	2008      	movs	r0, #8
	int32_t adc_mv = *valp * ref_mv;
100023f4:	4373      	muls	r3, r6
	int ret = adc_gain_invert(gain, &adc_mv);
100023f6:	a906      	add	r1, sp, #24
	int32_t adc_mv = *valp * ref_mv;
100023f8:	9306      	str	r3, [sp, #24]
	int ret = adc_gain_invert(gain, &adc_mv);
100023fa:	f001 fb81 	bl	10003b00 <adc_gain_invert>
	if (ret == 0) {
100023fe:	2800      	cmp	r0, #0
10002400:	d106      	bne.n	10002410 <main+0x108>
		*valp = (adc_mv >> resolution);
10002402:	9e06      	ldr	r6, [sp, #24]
10002404:	1336      	asrs	r6, r6, #12
				printk(" = %"PRId32" mV\n", val_mv);
10002406:	0031      	movs	r1, r6
10002408:	482b      	ldr	r0, [pc, #172]	; (100024b8 <main+0x1b0>)
1000240a:	f003 f9aa 	bl	10005762 <printk>
1000240e:	e004      	b.n	1000241a <main+0x112>
			if (err < 0) {
10002410:	2800      	cmp	r0, #0
10002412:	daf8      	bge.n	10002406 <main+0xfe>
				printk(" (value in mV not available)\n");
10002414:	4829      	ldr	r0, [pc, #164]	; (100024bc <main+0x1b4>)
10002416:	f003 f9a4 	bl	10005762 <printk>
			T = (period - MIN_PERIOD) * ( (float)buf / (float)4095) + MIN_PERIOD;
1000241a:	ab02      	add	r3, sp, #8
1000241c:	89d8      	ldrh	r0, [r3, #14]
1000241e:	f7fe fb99 	bl	10000b54 <__aeabi_ui2f>
10002422:	4927      	ldr	r1, [pc, #156]	; (100024c0 <main+0x1b8>)
10002424:	f7fe f9a0 	bl	10000768 <__aeabi_fdiv>
10002428:	9b02      	ldr	r3, [sp, #8]
1000242a:	4a26      	ldr	r2, [pc, #152]	; (100024c4 <main+0x1bc>)
1000242c:	1c06      	adds	r6, r0, #0
1000242e:	1898      	adds	r0, r3, r2
10002430:	f7fe fb90 	bl	10000b54 <__aeabi_ui2f>
10002434:	1c01      	adds	r1, r0, #0
10002436:	1c30      	adds	r0, r6, #0
10002438:	f7fe fa78 	bl	1000092c <__aeabi_fmul>
1000243c:	4922      	ldr	r1, [pc, #136]	; (100024c8 <main+0x1c0>)
1000243e:	f7fe f81f 	bl	10000480 <__aeabi_fadd>
10002442:	f7fe fb69 	bl	10000b18 <__aeabi_f2iz>
10002446:	0006      	movs	r6, r0
			printk("Periodo = %"PRId32" ns\n", T);
10002448:	4820      	ldr	r0, [pc, #128]	; (100024cc <main+0x1c4>)
1000244a:	0031      	movs	r1, r6
1000244c:	f003 f989 	bl	10005762 <printk>
10002450:	2200      	movs	r2, #0
10002452:	2109      	movs	r1, #9
10002454:	9200      	str	r2, [sp, #0]
10002456:	9803      	ldr	r0, [sp, #12]
10002458:	0032      	movs	r2, r6
			ret = pwm_set_dt(&pwm_led0, T, T / 2U);
1000245a:	0873      	lsrs	r3, r6, #1
1000245c:	f7ff ff0c 	bl	10002278 <pwm_set>
10002460:	1e01      	subs	r1, r0, #0
			if (ret) {
10002462:	d001      	beq.n	10002468 <main+0x160>
				printk("Error %d: failed to set pulse width\n", ret);
10002464:	481a      	ldr	r0, [pc, #104]	; (100024d0 <main+0x1c8>)
10002466:	e777      	b.n	10002358 <main+0x50>
			printk("\n");
10002468:	481a      	ldr	r0, [pc, #104]	; (100024d4 <main+0x1cc>)
1000246a:	f003 f97a 	bl	10005762 <printk>
1000246e:	e7ad      	b.n	100023cc <main+0xc4>
10002470:	100062f0 	.word	0x100062f0
10002474:	10006472 	.word	0x10006472
10002478:	1000665b 	.word	0x1000665b
1000247c:	10006308 	.word	0x10006308
10002480:	1000666d 	.word	0x1000666d
10002484:	10006618 	.word	0x10006618
10002488:	10006639 	.word	0x10006639
1000248c:	10006690 	.word	0x10006690
10002490:	3b9aca00 	.word	0x3b9aca00
10002494:	100066e9 	.word	0x100066e9
10002498:	00773594 	.word	0x00773594
1000249c:	10006720 	.word	0x10006720
100024a0:	1000672e 	.word	0x1000672e
100024a4:	10006741 	.word	0x10006741
100024a8:	00002710 	.word	0x00002710
100024ac:	100066af 	.word	0x100066af
100024b0:	01dcd650 	.word	0x01dcd650
100024b4:	10006756 	.word	0x10006756
100024b8:	10006777 	.word	0x10006777
100024bc:	10006759 	.word	0x10006759
100024c0:	457ff000 	.word	0x457ff000
100024c4:	ff88ca6c 	.word	0xff88ca6c
100024c8:	4aee6b28 	.word	0x4aee6b28
100024cc:	10006781 	.word	0x10006781
100024d0:	10006792 	.word	0x10006792
100024d4:	100067dc 	.word	0x100067dc

100024d8 <cbvprintf_package>:
	return cb(str, strl, ctx);
}

int cbvprintf_package(void *packaged, size_t len, uint32_t flags,
		      const char *fmt, va_list ap)
{
100024d8:	b5f0      	push	{r4, r5, r6, r7, lr}
100024da:	b095      	sub	sp, #84	; 0x54
100024dc:	9304      	str	r3, [sp, #16]
	const char *s;
	bool parsing = false;
	/* Flag indicates that rw strings are stored as array with positions,
	 * instead of appending them to the package.
	 */
	bool rws_pos_en = !!(flags & CBPRINTF_PACKAGE_ADD_RW_STR_POS);
100024de:	2304      	movs	r3, #4
{
100024e0:	9209      	str	r2, [sp, #36]	; 0x24
	bool rws_pos_en = !!(flags & CBPRINTF_PACKAGE_ADD_RW_STR_POS);
100024e2:	401a      	ands	r2, r3
	/* Get number of first read only strings present in the string.
	 * There is always at least 1 (fmt) but flags can indicate more, e.g
	 * fixed prefix appended to all strings.
	 */
	int fros_cnt = 1 + Z_CBPRINTF_PACKAGE_FIRST_RO_STR_CNT_GET(flags);
100024e4:	9b09      	ldr	r3, [sp, #36]	; 0x24
	bool rws_pos_en = !!(flags & CBPRINTF_PACKAGE_ADD_RW_STR_POS);
100024e6:	9208      	str	r2, [sp, #32]
	int fros_cnt = 1 + Z_CBPRINTF_PACKAGE_FIRST_RO_STR_CNT_GET(flags);
100024e8:	08da      	lsrs	r2, r3, #3
100024ea:	2307      	movs	r3, #7
100024ec:	401a      	ands	r2, r3
100024ee:	3201      	adds	r2, #1
{
100024f0:	0007      	movs	r7, r0
100024f2:	9c1a      	ldr	r4, [sp, #104]	; 0x68
100024f4:	9102      	str	r1, [sp, #8]
	int fros_cnt = 1 + Z_CBPRINTF_PACKAGE_FIRST_RO_STR_CNT_GET(flags);
100024f6:	920b      	str	r2, [sp, #44]	; 0x2c
	bool is_str_arg = false;
	union cbprintf_package_hdr *pkg_hdr = packaged;

	/* Buffer must be aligned at least to size of a pointer. */
	if ((uintptr_t)packaged % sizeof(void *)) {
100024f8:	0782      	lsls	r2, r0, #30
100024fa:	d000      	beq.n	100024fe <cbvprintf_package+0x26>
100024fc:	e1d2      	b.n	100028a4 <cbvprintf_package+0x3cc>
	 * which is guaranteed to be at least 4 bytes, we just reserve
	 * multiple of pointer size for the above to preserve alignment.
	 *
	 * Refer to union cbprintf_package_hdr for more details.
	 */
	buf += sizeof(*pkg_hdr);
100024fe:	1d02      	adds	r2, r0, #4
10002500:	9200      	str	r2, [sp, #0]
	 * When buf0 is NULL we don't store anything.
	 * Instead we count the needed space to store the data.
	 * In this case, incoming len argument indicates the anticipated
	 * buffer "misalignment" offset.
	 */
	if (buf0 == NULL) {
10002502:	2800      	cmp	r0, #0
10002504:	d004      	beq.n	10002510 <cbvprintf_package+0x38>

	/*
	 * Otherwise we must ensure we can store at least
	 * the pointer to the format string itself.
	 */
	if (buf0 != NULL && BUF_OFFSET + sizeof(char *) > len) {
10002506:	2907      	cmp	r1, #7
10002508:	d80a      	bhi.n	10002520 <cbvprintf_package+0x48>
		return -ENOSPC;
1000250a:	201c      	movs	r0, #28
		return -EFAULT;
1000250c:	4240      	negs	r0, r0
1000250e:	e154      	b.n	100027ba <cbvprintf_package+0x2e2>
		buf += len % CBPRINTF_PACKAGE_ALIGNMENT;
10002510:	9a02      	ldr	r2, [sp, #8]
10002512:	401a      	ands	r2, r3
10002514:	0013      	movs	r3, r2
10002516:	3204      	adds	r2, #4
10002518:	9200      	str	r2, [sp, #0]
		len = CBPRINTF_PACKAGE_ALIGNMENT - (len % CBPRINTF_PACKAGE_ALIGNMENT);
1000251a:	2208      	movs	r2, #8
1000251c:	1ad3      	subs	r3, r2, r3
1000251e:	9302      	str	r3, [sp, #8]
	 * which is in the middle of the following while() loop. That's the
	 * reason for the post-decrement on fmt as it will be incremented
	 * prior to the next (actually first) round of that loop.
	 */
	s = fmt--;
	align = VA_STACK_ALIGN(char *);
10002520:	2504      	movs	r5, #4
	s = fmt--;
10002522:	9b04      	ldr	r3, [sp, #16]
	size = sizeof(char *);
10002524:	002e      	movs	r6, r5
	s = fmt--;
10002526:	3b01      	subs	r3, #1
10002528:	9305      	str	r3, [sp, #20]
	unsigned int s_ro_cnt = 0; /* number of ro strings */
1000252a:	2300      	movs	r3, #0
1000252c:	9307      	str	r3, [sp, #28]
	unsigned int s_rw_cnt = 0; /* number of rw strings */
1000252e:	930a      	str	r3, [sp, #40]	; 0x28
	unsigned int s_idx = 0;    /* index into str_ptr_pos[] */
10002530:	9303      	str	r3, [sp, #12]
	bool parsing = false;
10002532:	9301      	str	r3, [sp, #4]
	int arg_idx	      = -1; /* Argument index. Preincremented thus starting from -1.*/
10002534:	3b01      	subs	r3, #1
10002536:	9306      	str	r3, [sp, #24]

		/* copy va_list data over to our buffer */
		if (is_str_arg) {
			s = va_arg(ap, char *);
process_string:
			if (buf0 != NULL) {
10002538:	2f00      	cmp	r7, #0
1000253a:	d002      	beq.n	10002542 <cbvprintf_package+0x6a>
				*(const char **)buf = s;
1000253c:	9b00      	ldr	r3, [sp, #0]
1000253e:	9a04      	ldr	r2, [sp, #16]
10002540:	601a      	str	r2, [r3, #0]
			}

			bool is_ro = (fros_cnt-- > 0) ? true : ptr_in_rodata(s);
10002542:	9b0b      	ldr	r3, [sp, #44]	; 0x2c
10002544:	2b00      	cmp	r3, #0
10002546:	dd00      	ble.n	1000254a <cbvprintf_package+0x72>
10002548:	e0eb      	b.n	10002722 <cbvprintf_package+0x24a>
#else
	#define RO_START 0
	#define RO_END 0
#endif

	return (((const char *)addr >= (const char *)RO_START) &&
1000254a:	4b9d      	ldr	r3, [pc, #628]	; (100027c0 <cbvprintf_package+0x2e8>)
1000254c:	9a04      	ldr	r2, [sp, #16]
1000254e:	429a      	cmp	r2, r3
10002550:	d303      	bcc.n	1000255a <cbvprintf_package+0x82>
10002552:	4b9c      	ldr	r3, [pc, #624]	; (100027c4 <cbvprintf_package+0x2ec>)
10002554:	429a      	cmp	r2, r3
10002556:	d200      	bcs.n	1000255a <cbvprintf_package+0x82>
10002558:	e0e3      	b.n	10002722 <cbvprintf_package+0x24a>
			bool do_ro = !!(flags & CBPRINTF_PACKAGE_ADD_RO_STR_POS);

			if (is_ro && !do_ro) {
				/* nothing to do */
			} else {
				uint32_t s_ptr_idx = BUF_OFFSET / sizeof(int);
1000255a:	9b00      	ldr	r3, [sp, #0]
				 * In the do_ro case we must consider
				 * room for possible STR_POS_RO_FLAG.
				 * Otherwise the index range is 8 bits
				 * and any overflow is caught later.
				 */
				if (do_ro && s_ptr_idx > STR_POS_MASK) {
1000255c:	9909      	ldr	r1, [sp, #36]	; 0x24
				uint32_t s_ptr_idx = BUF_OFFSET / sizeof(int);
1000255e:	1bda      	subs	r2, r3, r7
10002560:	0893      	lsrs	r3, r2, #2
				if (do_ro && s_ptr_idx > STR_POS_MASK) {
10002562:	0789      	lsls	r1, r1, #30
10002564:	d500      	bpl.n	10002568 <cbvprintf_package+0x90>
10002566:	e109      	b.n	1000277c <cbvprintf_package+0x2a4>
					__ASSERT(false, "String with too many arguments");
					return -EINVAL;
				}

				if (s_idx >= ARRAY_SIZE(str_ptr_pos)) {
10002568:	9a03      	ldr	r2, [sp, #12]
1000256a:	2a0f      	cmp	r2, #15
1000256c:	d900      	bls.n	10002570 <cbvprintf_package+0x98>
1000256e:	e0b4      	b.n	100026da <cbvprintf_package+0x202>
					__ASSERT(false, "str_ptr_pos[] too small");
					return -EINVAL;
				}

				if (buf0 != NULL) {
10002570:	2f00      	cmp	r7, #0
10002572:	d100      	bne.n	10002576 <cbvprintf_package+0x9e>
10002574:	e10a      	b.n	1000278c <cbvprintf_package+0x2b4>
					/*
					 * Remember string pointer location.
					 * We will append non-ro strings later.
					 */
					str_ptr_pos[s_idx] = s_ptr_idx;
10002576:	9903      	ldr	r1, [sp, #12]
10002578:	aa0c      	add	r2, sp, #48	; 0x30
1000257a:	5453      	strb	r3, [r2, r1]
					str_ptr_arg[s_idx] = arg_idx;
1000257c:	000a      	movs	r2, r1
1000257e:	9906      	ldr	r1, [sp, #24]
10002580:	ab10      	add	r3, sp, #64	; 0x40
10002582:	5499      	strb	r1, [r3, r2]
					if (is_ro) {
						/* flag read-only string. */
						str_ptr_pos[s_idx] |= STR_POS_RO_FLAG;
						s_ro_cnt++;
					} else {
						s_rw_cnt++;
10002584:	9b0a      	ldr	r3, [sp, #40]	; 0x28
10002586:	3301      	adds	r3, #1
10002588:	930a      	str	r3, [sp, #40]	; 0x28
1000258a:	e0ee      	b.n	1000276a <cbvprintf_package+0x292>
			switch (*fmt) {
1000258c:	287a      	cmp	r0, #122	; 0x7a
1000258e:	d861      	bhi.n	10002654 <cbvprintf_package+0x17c>
10002590:	284b      	cmp	r0, #75	; 0x4b
10002592:	d80e      	bhi.n	100025b2 <cbvprintf_package+0xda>
10002594:	2847      	cmp	r0, #71	; 0x47
10002596:	d85d      	bhi.n	10002654 <cbvprintf_package+0x17c>
10002598:	2829      	cmp	r0, #41	; 0x29
1000259a:	d82b      	bhi.n	100025f4 <cbvprintf_package+0x11c>
1000259c:	2825      	cmp	r0, #37	; 0x25
1000259e:	d056      	beq.n	1000264e <cbvprintf_package+0x176>
100025a0:	d858      	bhi.n	10002654 <cbvprintf_package+0x17c>
100025a2:	2820      	cmp	r0, #32
100025a4:	d07f      	beq.n	100026a6 <cbvprintf_package+0x1ce>
100025a6:	3823      	subs	r0, #35	; 0x23
100025a8:	4243      	negs	r3, r0
100025aa:	4158      	adcs	r0, r3
100025ac:	b2c3      	uxtb	r3, r0
				parsing = false;
100025ae:	9301      	str	r3, [sp, #4]
				continue;
100025b0:	e079      	b.n	100026a6 <cbvprintf_package+0x1ce>
			switch (*fmt) {
100025b2:	384c      	subs	r0, #76	; 0x4c
100025b4:	282e      	cmp	r0, #46	; 0x2e
100025b6:	d84d      	bhi.n	10002654 <cbvprintf_package+0x17c>
100025b8:	f7fd fdf6 	bl	100001a8 <__gnu_thumb1_case_uqi>
100025bc:	4c4c4c75 	.word	0x4c4c4c75
100025c0:	4c4c4c4c 	.word	0x4c4c4c4c
100025c4:	4c4c4c4c 	.word	0x4c4c4c4c
100025c8:	4c4c4c4e 	.word	0x4c4c4c4e
100025cc:	4c4c4c4c 	.word	0x4c4c4c4c
100025d0:	4e4c5d4c 	.word	0x4e4c5d4c
100025d4:	5d5d5d4e 	.word	0x5d5d5d4e
100025d8:	4c734e75 	.word	0x4c734e75
100025dc:	4e184c75 	.word	0x4e184c75
100025e0:	894c4c18 	.word	0x894c4c18
100025e4:	4c4c4e87 	.word	0x4c4c4e87
100025e8:	4c4e      	.short	0x4c4e
100025ea:	87          	.byte	0x87
100025eb:	00          	.byte	0x00
100025ec:	2300      	movs	r3, #0
				parsing = false;
100025ee:	9301      	str	r3, [sp, #4]
			switch (*fmt) {
100025f0:	2504      	movs	r5, #4
100025f2:	e03e      	b.n	10002672 <cbvprintf_package+0x19a>
100025f4:	2101      	movs	r1, #1
100025f6:	000a      	movs	r2, r1
100025f8:	382a      	subs	r0, #42	; 0x2a
100025fa:	b2c0      	uxtb	r0, r0
100025fc:	4082      	lsls	r2, r0
100025fe:	4b72      	ldr	r3, [pc, #456]	; (100027c8 <cbvprintf_package+0x2f0>)
10002600:	421a      	tst	r2, r3
10002602:	d150      	bne.n	100026a6 <cbvprintf_package+0x1ce>
10002604:	20e2      	movs	r0, #226	; 0xe2
10002606:	0013      	movs	r3, r2
10002608:	0580      	lsls	r0, r0, #22
1000260a:	4003      	ands	r3, r0
1000260c:	4202      	tst	r2, r0
1000260e:	d132      	bne.n	10002676 <cbvprintf_package+0x19e>
10002610:	0010      	movs	r0, r2
10002612:	4008      	ands	r0, r1
10002614:	9001      	str	r0, [sp, #4]
10002616:	420a      	tst	r2, r1
10002618:	d045      	beq.n	100026a6 <cbvprintf_package+0x1ce>
		buf = (void *) ROUND_UP(buf, align);
1000261a:	9a00      	ldr	r2, [sp, #0]
1000261c:	4269      	negs	r1, r5
1000261e:	3a01      	subs	r2, #1
10002620:	1952      	adds	r2, r2, r5
10002622:	4011      	ands	r1, r2
10002624:	9100      	str	r1, [sp, #0]
		if (buf0 != NULL && BUF_OFFSET + size > len) {
10002626:	2f00      	cmp	r7, #0
10002628:	d065      	beq.n	100026f6 <cbvprintf_package+0x21e>
1000262a:	1bf2      	subs	r2, r6, r7
1000262c:	1852      	adds	r2, r2, r1
1000262e:	9902      	ldr	r1, [sp, #8]
10002630:	428a      	cmp	r2, r1
10002632:	d900      	bls.n	10002636 <cbvprintf_package+0x15e>
10002634:	e769      	b.n	1000250a <cbvprintf_package+0x32>
		if (is_str_arg) {
10002636:	2b00      	cmp	r3, #0
10002638:	d16a      	bne.n	10002710 <cbvprintf_package+0x238>
				s_idx++;
			}
			buf += sizeof(char *);

			is_str_arg = false;
		} else if (size == sizeof(int)) {
1000263a:	2e04      	cmp	r6, #4
1000263c:	d14b      	bne.n	100026d6 <cbvprintf_package+0x1fe>
			int v = va_arg(ap, int);
1000263e:	cc08      	ldmia	r4!, {r3}

			if (buf0 != NULL) {
				*(int *)buf = v;
10002640:	9a00      	ldr	r2, [sp, #0]
10002642:	6013      	str	r3, [r2, #0]
			}
			buf += sizeof(int);
10002644:	9b00      	ldr	r3, [sp, #0]
10002646:	2604      	movs	r6, #4
10002648:	3304      	adds	r3, #4
1000264a:	9300      	str	r3, [sp, #0]
1000264c:	e02b      	b.n	100026a6 <cbvprintf_package+0x1ce>
				arg_idx--;
1000264e:	9b06      	ldr	r3, [sp, #24]
10002650:	3b01      	subs	r3, #1
10002652:	9306      	str	r3, [sp, #24]
				parsing = false;
10002654:	2300      	movs	r3, #0
10002656:	e7aa      	b.n	100025ae <cbvprintf_package+0xd6>
				if (fmt[-1] == 'l') {
10002658:	9b05      	ldr	r3, [sp, #20]
1000265a:	785a      	ldrb	r2, [r3, #1]
1000265c:	2300      	movs	r3, #0
				parsing = false;
1000265e:	9301      	str	r3, [sp, #4]
				if (fmt[-1] == 'l') {
10002660:	2a6c      	cmp	r2, #108	; 0x6c
10002662:	d1da      	bne.n	1000261a <cbvprintf_package+0x142>
				align = VA_STACK_ALIGN(void *);
10002664:	2504      	movs	r5, #4
					if (fmt[-2] == 'l') {
10002666:	9a05      	ldr	r2, [sp, #20]
				size = sizeof(void *);
10002668:	002e      	movs	r6, r5
					if (fmt[-2] == 'l') {
1000266a:	7812      	ldrb	r2, [r2, #0]
1000266c:	2a6c      	cmp	r2, #108	; 0x6c
1000266e:	d1d4      	bne.n	1000261a <cbvprintf_package+0x142>
						align = VA_STACK_ALIGN(long long);
10002670:	196d      	adds	r5, r5, r5
			switch (*fmt) {
10002672:	002e      	movs	r6, r5
10002674:	e7d1      	b.n	1000261a <cbvprintf_package+0x142>
					v.ld = va_arg(ap, long double);
10002676:	2507      	movs	r5, #7
				buf = (void *) ROUND_UP(buf, align);
10002678:	9900      	ldr	r1, [sp, #0]
					v.ld = va_arg(ap, long double);
1000267a:	3407      	adds	r4, #7
1000267c:	43ac      	bics	r4, r5
				buf = (void *) ROUND_UP(buf, align);
1000267e:	1949      	adds	r1, r1, r5
10002680:	43a9      	bics	r1, r5
					v.ld = va_arg(ap, long double);
10002682:	cc0c      	ldmia	r4!, {r2, r3}
				if (buf0 != NULL) {
10002684:	2f00      	cmp	r7, #0
10002686:	d008      	beq.n	1000269a <cbvprintf_package+0x1c2>
					if (BUF_OFFSET + size > len) {
10002688:	3501      	adds	r5, #1
1000268a:	1bed      	subs	r5, r5, r7
1000268c:	9e02      	ldr	r6, [sp, #8]
1000268e:	186d      	adds	r5, r5, r1
10002690:	42b5      	cmp	r5, r6
10002692:	d900      	bls.n	10002696 <cbvprintf_package+0x1be>
10002694:	e739      	b.n	1000250a <cbvprintf_package+0x32>
						*(long double *)buf = v.ld;
10002696:	600a      	str	r2, [r1, #0]
10002698:	604b      	str	r3, [r1, #4]
				parsing = false;
1000269a:	2300      	movs	r3, #0
				buf += size;
1000269c:	3108      	adds	r1, #8
1000269e:	9100      	str	r1, [sp, #0]
				parsing = false;
100026a0:	9301      	str	r3, [sp, #4]
			switch (*fmt) {
100026a2:	2508      	movs	r5, #8
100026a4:	002e      	movs	r6, r5
100026a6:	9b05      	ldr	r3, [sp, #20]
100026a8:	3301      	adds	r3, #1
100026aa:	9305      	str	r3, [sp, #20]
			if (*++fmt == '\0') {
100026ac:	9b05      	ldr	r3, [sp, #20]
100026ae:	7898      	ldrb	r0, [r3, #2]
100026b0:	2800      	cmp	r0, #0
100026b2:	d077      	beq.n	100027a4 <cbvprintf_package+0x2cc>
			if (!parsing) {
100026b4:	9b01      	ldr	r3, [sp, #4]
100026b6:	2b00      	cmp	r3, #0
100026b8:	d000      	beq.n	100026bc <cbvprintf_package+0x1e4>
100026ba:	e767      	b.n	1000258c <cbvprintf_package+0xb4>
				if (*fmt == '%') {
100026bc:	2825      	cmp	r0, #37	; 0x25
100026be:	d1f2      	bne.n	100026a6 <cbvprintf_package+0x1ce>
					arg_idx++;
100026c0:	9b06      	ldr	r3, [sp, #24]
100026c2:	3301      	adds	r3, #1
100026c4:	9306      	str	r3, [sp, #24]
					parsing = true;
100026c6:	2301      	movs	r3, #1
100026c8:	9301      	str	r3, [sp, #4]
				align = VA_STACK_ALIGN(size_t);
100026ca:	2504      	movs	r5, #4
100026cc:	e7ea      	b.n	100026a4 <cbvprintf_package+0x1cc>
			switch (*fmt) {
100026ce:	2200      	movs	r2, #0
100026d0:	9b01      	ldr	r3, [sp, #4]
100026d2:	9201      	str	r2, [sp, #4]
100026d4:	e78c      	b.n	100025f0 <cbvprintf_package+0x118>

			if (buf0 != NULL) {
				*(long *)buf = v;
			}
			buf += sizeof(long);
		} else if (size == sizeof(long long)) {
100026d6:	2e08      	cmp	r6, #8
100026d8:	d001      	beq.n	100026de <cbvprintf_package+0x206>
					return -EINVAL;
100026da:	2016      	movs	r0, #22
100026dc:	e716      	b.n	1000250c <cbvprintf_package+0x34>
			long long v = va_arg(ap, long long);
100026de:	2307      	movs	r3, #7

			if (buf0 != NULL) {
				if (Z_CBPRINTF_VA_STACK_LL_DBL_MEMCPY) {
					memcpy(buf, &v, sizeof(long long));
				} else {
					*(long long *)buf = v;
100026e0:	9900      	ldr	r1, [sp, #0]
			long long v = va_arg(ap, long long);
100026e2:	3407      	adds	r4, #7
100026e4:	439c      	bics	r4, r3
100026e6:	cc0c      	ldmia	r4!, {r2, r3}
					*(long long *)buf = v;
100026e8:	600a      	str	r2, [r1, #0]
100026ea:	604b      	str	r3, [r1, #4]
				}
			}
			buf += sizeof(long long);
100026ec:	9b00      	ldr	r3, [sp, #0]
100026ee:	2608      	movs	r6, #8
100026f0:	3308      	adds	r3, #8
100026f2:	9300      	str	r3, [sp, #0]
100026f4:	e7d7      	b.n	100026a6 <cbvprintf_package+0x1ce>
		if (is_str_arg) {
100026f6:	2b00      	cmp	r3, #0
100026f8:	d10a      	bne.n	10002710 <cbvprintf_package+0x238>
		} else if (size == sizeof(int)) {
100026fa:	2e04      	cmp	r6, #4
100026fc:	d101      	bne.n	10002702 <cbvprintf_package+0x22a>
			int v = va_arg(ap, int);
100026fe:	3404      	adds	r4, #4
			if (buf0 != NULL) {
10002700:	e7a0      	b.n	10002644 <cbvprintf_package+0x16c>
		} else if (size == sizeof(long long)) {
10002702:	2e08      	cmp	r6, #8
10002704:	d1e9      	bne.n	100026da <cbvprintf_package+0x202>
			long long v = va_arg(ap, long long);
10002706:	2307      	movs	r3, #7
10002708:	3407      	adds	r4, #7
1000270a:	439c      	bics	r4, r3
1000270c:	3408      	adds	r4, #8
			if (buf0 != NULL) {
1000270e:	e7ed      	b.n	100026ec <cbvprintf_package+0x214>
			if (*++fmt == '\0') {
10002710:	9b05      	ldr	r3, [sp, #20]
10002712:	3302      	adds	r3, #2
10002714:	9305      	str	r3, [sp, #20]
			bool is_ro = (fros_cnt-- > 0) ? true : ptr_in_rodata(s);
10002716:	9b0b      	ldr	r3, [sp, #44]	; 0x2c
10002718:	3b01      	subs	r3, #1
1000271a:	930b      	str	r3, [sp, #44]	; 0x2c
			s = va_arg(ap, char *);
1000271c:	cc08      	ldmia	r4!, {r3}
1000271e:	9304      	str	r3, [sp, #16]
10002720:	e70a      	b.n	10002538 <cbvprintf_package+0x60>
			if (is_ro && !do_ro) {
10002722:	9b09      	ldr	r3, [sp, #36]	; 0x24
10002724:	079b      	lsls	r3, r3, #30
10002726:	d523      	bpl.n	10002770 <cbvprintf_package+0x298>
			bool is_ro = (fros_cnt-- > 0) ? true : ptr_in_rodata(s);
10002728:	2101      	movs	r1, #1
				uint32_t s_ptr_idx = BUF_OFFSET / sizeof(int);
1000272a:	9b00      	ldr	r3, [sp, #0]
1000272c:	1bda      	subs	r2, r3, r7
1000272e:	0893      	lsrs	r3, r2, #2
				if (do_ro && s_ptr_idx > STR_POS_MASK) {
10002730:	2080      	movs	r0, #128	; 0x80
10002732:	0080      	lsls	r0, r0, #2
10002734:	4282      	cmp	r2, r0
10002736:	d2d0      	bcs.n	100026da <cbvprintf_package+0x202>
				if (s_idx >= ARRAY_SIZE(str_ptr_pos)) {
10002738:	9a03      	ldr	r2, [sp, #12]
1000273a:	2a0f      	cmp	r2, #15
1000273c:	d8cd      	bhi.n	100026da <cbvprintf_package+0x202>
				if (buf0 != NULL) {
1000273e:	2f00      	cmp	r7, #0
10002740:	d01e      	beq.n	10002780 <cbvprintf_package+0x2a8>
					str_ptr_pos[s_idx] = s_ptr_idx;
10002742:	9803      	ldr	r0, [sp, #12]
10002744:	b2db      	uxtb	r3, r3
10002746:	aa0c      	add	r2, sp, #48	; 0x30
10002748:	5413      	strb	r3, [r2, r0]
1000274a:	469c      	mov	ip, r3
					str_ptr_arg[s_idx] = arg_idx;
1000274c:	9b06      	ldr	r3, [sp, #24]
1000274e:	aa10      	add	r2, sp, #64	; 0x40
10002750:	5413      	strb	r3, [r2, r0]
					if (is_ro) {
10002752:	2900      	cmp	r1, #0
10002754:	d100      	bne.n	10002758 <cbvprintf_package+0x280>
10002756:	e715      	b.n	10002584 <cbvprintf_package+0xac>
						str_ptr_pos[s_idx] |= STR_POS_RO_FLAG;
10002758:	2280      	movs	r2, #128	; 0x80
1000275a:	4663      	mov	r3, ip
1000275c:	4252      	negs	r2, r2
1000275e:	4313      	orrs	r3, r2
10002760:	aa0c      	add	r2, sp, #48	; 0x30
10002762:	5413      	strb	r3, [r2, r0]
						s_ro_cnt++;
10002764:	9b07      	ldr	r3, [sp, #28]
10002766:	3301      	adds	r3, #1
10002768:	9307      	str	r3, [sp, #28]
				s_idx++;
1000276a:	9b03      	ldr	r3, [sp, #12]
1000276c:	3301      	adds	r3, #1
1000276e:	9303      	str	r3, [sp, #12]
			buf += sizeof(char *);
10002770:	9b00      	ldr	r3, [sp, #0]
10002772:	3304      	adds	r3, #4
10002774:	9300      	str	r3, [sp, #0]
			is_str_arg = false;
10002776:	9b05      	ldr	r3, [sp, #20]
10002778:	3b01      	subs	r3, #1
1000277a:	e796      	b.n	100026aa <cbvprintf_package+0x1d2>
			bool is_ro = (fros_cnt-- > 0) ? true : ptr_in_rodata(s);
1000277c:	2100      	movs	r1, #0
1000277e:	e7d7      	b.n	10002730 <cbvprintf_package+0x258>
				} else if (is_ro) {
10002780:	2900      	cmp	r1, #0
10002782:	d003      	beq.n	1000278c <cbvprintf_package+0x2b4>
					len += 1;
10002784:	9b02      	ldr	r3, [sp, #8]
10002786:	3301      	adds	r3, #1
					len += strlen(s) + 1 + 1;
10002788:	9302      	str	r3, [sp, #8]
1000278a:	e7ee      	b.n	1000276a <cbvprintf_package+0x292>
					len += 2;
1000278c:	9b02      	ldr	r3, [sp, #8]
1000278e:	3302      	adds	r3, #2
10002790:	9302      	str	r3, [sp, #8]
				} else if (rws_pos_en) {
10002792:	9b08      	ldr	r3, [sp, #32]
10002794:	2b00      	cmp	r3, #0
10002796:	d1e8      	bne.n	1000276a <cbvprintf_package+0x292>
					len += strlen(s) + 1 + 1;
10002798:	9804      	ldr	r0, [sp, #16]
1000279a:	f003 f906 	bl	100059aa <strlen>
1000279e:	9b02      	ldr	r3, [sp, #8]
100027a0:	181b      	adds	r3, r3, r0
100027a2:	e7f1      	b.n	10002788 <cbvprintf_package+0x2b0>
	 * We remember the size of the argument list as a multiple of
	 * sizeof(int) and limit it to a 8-bit field. That means 1020 bytes
	 * worth of va_list, or about 127 arguments on a 64-bit system
	 * (twice that on 32-bit systems). That ought to be good enough.
	 */
	if (BUF_OFFSET / sizeof(int) > 255) {
100027a4:	2280      	movs	r2, #128	; 0x80
100027a6:	9b00      	ldr	r3, [sp, #0]
100027a8:	00d2      	lsls	r2, r2, #3
100027aa:	1bdb      	subs	r3, r3, r7
100027ac:	4293      	cmp	r3, r2
100027ae:	d294      	bcs.n	100026da <cbvprintf_package+0x202>

	/*
	 * If all we wanted was to count required buffer size
	 * then we have it now.
	 */
	if (buf0 == NULL) {
100027b0:	2f00      	cmp	r7, #0
100027b2:	d10b      	bne.n	100027cc <cbvprintf_package+0x2f4>
		return BUF_OFFSET + len - CBPRINTF_PACKAGE_ALIGNMENT;
100027b4:	9802      	ldr	r0, [sp, #8]
100027b6:	3808      	subs	r0, #8
100027b8:	18c0      	adds	r0, r0, r3
	return BUF_OFFSET;

#undef BUF_OFFSET
#undef STR_POS_RO_FLAG
#undef STR_POS_MASK
}
100027ba:	b015      	add	sp, #84	; 0x54
100027bc:	bdf0      	pop	{r4, r5, r6, r7, pc}
100027be:	46c0      	nop			; (mov r8, r8)
100027c0:	10006260 	.word	0x10006260
100027c4:	10006c38 	.word	0x10006c38
100027c8:	0000ffda 	.word	0x0000ffda
	pkg_hdr->desc.len = BUF_OFFSET / sizeof(int);
100027cc:	089b      	lsrs	r3, r3, #2
		pkg_hdr->desc.rw_str_cnt = s_rw_cnt;
100027ce:	2228      	movs	r2, #40	; 0x28
	*(char **)buf0 = NULL;
100027d0:	6038      	str	r0, [r7, #0]
	pkg_hdr->desc.len = BUF_OFFSET / sizeof(int);
100027d2:	703b      	strb	r3, [r7, #0]
		pkg_hdr->desc.rw_str_cnt = s_rw_cnt;
100027d4:	466b      	mov	r3, sp
100027d6:	189b      	adds	r3, r3, r2
	if (rws_pos_en) {
100027d8:	9a08      	ldr	r2, [sp, #32]
		pkg_hdr->desc.rw_str_cnt = s_rw_cnt;
100027da:	781b      	ldrb	r3, [r3, #0]
	if (rws_pos_en) {
100027dc:	2a00      	cmp	r2, #0
100027de:	d00c      	beq.n	100027fa <cbvprintf_package+0x322>
		pkg_hdr->desc.rw_str_cnt = s_rw_cnt;
100027e0:	70fb      	strb	r3, [r7, #3]
	pkg_hdr->desc.ro_str_cnt = s_ro_cnt;
100027e2:	9b07      	ldr	r3, [sp, #28]
100027e4:	70bb      	strb	r3, [r7, #2]
	if (s_ro_cnt) {
100027e6:	2b00      	cmp	r3, #0
100027e8:	d120      	bne.n	1000282c <cbvprintf_package+0x354>
			*buf++ = str_ptr_arg[i];
100027ea:	2600      	movs	r6, #0
100027ec:	ad0c      	add	r5, sp, #48	; 0x30
	for (i = 0; i < s_idx; i++) {
100027ee:	9b03      	ldr	r3, [sp, #12]
100027f0:	42b3      	cmp	r3, r6
100027f2:	d120      	bne.n	10002836 <cbvprintf_package+0x35e>
	return BUF_OFFSET;
100027f4:	9b00      	ldr	r3, [sp, #0]
100027f6:	1bd8      	subs	r0, r3, r7
100027f8:	e7df      	b.n	100027ba <cbvprintf_package+0x2e2>
		pkg_hdr->desc.str_cnt = s_rw_cnt;
100027fa:	707b      	strb	r3, [r7, #1]
		pkg_hdr->desc.rw_str_cnt = 0;
100027fc:	e7f1      	b.n	100027e2 <cbvprintf_package+0x30a>
			if (!(str_ptr_pos[i] & STR_POS_RO_FLAG)) {
100027fe:	ac0c      	add	r4, sp, #48	; 0x30
10002800:	56e4      	ldrsb	r4, [r4, r3]
10002802:	a90c      	add	r1, sp, #48	; 0x30
10002804:	5c59      	ldrb	r1, [r3, r1]
10002806:	2c00      	cmp	r4, #0
10002808:	da0b      	bge.n	10002822 <cbvprintf_package+0x34a>
			if (BUF_OFFSET + 1 > len) {
1000280a:	9c00      	ldr	r4, [sp, #0]
1000280c:	9d02      	ldr	r5, [sp, #8]
1000280e:	18a4      	adds	r4, r4, r2
			uint8_t pos = str_ptr_pos[i] & STR_POS_MASK;
10002810:	4001      	ands	r1, r0
			if (BUF_OFFSET + 1 > len) {
10002812:	42ac      	cmp	r4, r5
10002814:	d900      	bls.n	10002818 <cbvprintf_package+0x340>
10002816:	e678      	b.n	1000250a <cbvprintf_package+0x32>
			*buf++ = pos;
10002818:	9c00      	ldr	r4, [sp, #0]
1000281a:	7021      	strb	r1, [r4, #0]
1000281c:	0021      	movs	r1, r4
1000281e:	3101      	adds	r1, #1
10002820:	9100      	str	r1, [sp, #0]
		for (i = 0; i < s_idx; i++) {
10002822:	3301      	adds	r3, #1
10002824:	9903      	ldr	r1, [sp, #12]
10002826:	4299      	cmp	r1, r3
10002828:	d1e9      	bne.n	100027fe <cbvprintf_package+0x326>
1000282a:	e7de      	b.n	100027ea <cbvprintf_package+0x312>
			if (BUF_OFFSET + 1 > len) {
1000282c:	2201      	movs	r2, #1
		for (i = 0; i < s_idx; i++) {
1000282e:	2300      	movs	r3, #0
			uint8_t pos = str_ptr_pos[i] & STR_POS_MASK;
10002830:	207f      	movs	r0, #127	; 0x7f
			if (BUF_OFFSET + 1 > len) {
10002832:	1bd2      	subs	r2, r2, r7
10002834:	e7f6      	b.n	10002824 <cbvprintf_package+0x34c>
		if (s_ro_cnt && str_ptr_pos[i] & STR_POS_RO_FLAG) {
10002836:	9b07      	ldr	r3, [sp, #28]
10002838:	2b00      	cmp	r3, #0
1000283a:	d002      	beq.n	10002842 <cbvprintf_package+0x36a>
1000283c:	782b      	ldrb	r3, [r5, #0]
1000283e:	2b7f      	cmp	r3, #127	; 0x7f
10002840:	d821      	bhi.n	10002886 <cbvprintf_package+0x3ae>
		if (rws_pos_en) {
10002842:	9b08      	ldr	r3, [sp, #32]
10002844:	2b00      	cmp	r3, #0
10002846:	d021      	beq.n	1000288c <cbvprintf_package+0x3b4>
			*buf++ = str_ptr_arg[i];
10002848:	ab10      	add	r3, sp, #64	; 0x40
1000284a:	9a00      	ldr	r2, [sp, #0]
1000284c:	5cf3      	ldrb	r3, [r6, r3]
			size = 0;
1000284e:	2400      	movs	r4, #0
			*buf++ = str_ptr_arg[i];
10002850:	7013      	strb	r3, [r2, #0]
10002852:	0013      	movs	r3, r2
10002854:	3301      	adds	r3, #1
10002856:	9300      	str	r3, [sp, #0]
		if (BUF_OFFSET + 1 + size > len) {
10002858:	2301      	movs	r3, #1
1000285a:	9a00      	ldr	r2, [sp, #0]
1000285c:	1bdb      	subs	r3, r3, r7
1000285e:	191b      	adds	r3, r3, r4
10002860:	18d3      	adds	r3, r2, r3
10002862:	9a02      	ldr	r2, [sp, #8]
10002864:	4293      	cmp	r3, r2
10002866:	d900      	bls.n	1000286a <cbvprintf_package+0x392>
10002868:	e64f      	b.n	1000250a <cbvprintf_package+0x32>
		*buf++ = str_ptr_pos[i];
1000286a:	9b00      	ldr	r3, [sp, #0]
1000286c:	9a00      	ldr	r2, [sp, #0]
1000286e:	3301      	adds	r3, #1
10002870:	9301      	str	r3, [sp, #4]
10002872:	782b      	ldrb	r3, [r5, #0]
		memcpy(buf, s, size);
10002874:	9904      	ldr	r1, [sp, #16]
		*buf++ = str_ptr_pos[i];
10002876:	7013      	strb	r3, [r2, #0]
		memcpy(buf, s, size);
10002878:	9801      	ldr	r0, [sp, #4]
1000287a:	0022      	movs	r2, r4
1000287c:	f003 f8a7 	bl	100059ce <memcpy>
		buf += size;
10002880:	9b01      	ldr	r3, [sp, #4]
10002882:	191b      	adds	r3, r3, r4
10002884:	9300      	str	r3, [sp, #0]
	for (i = 0; i < s_idx; i++) {
10002886:	3601      	adds	r6, #1
10002888:	3501      	adds	r5, #1
1000288a:	e7b0      	b.n	100027ee <cbvprintf_package+0x316>
			s = *(char **)(buf0 + str_ptr_pos[i] * sizeof(int));
1000288c:	782b      	ldrb	r3, [r5, #0]
1000288e:	009b      	lsls	r3, r3, #2
10002890:	18fb      	adds	r3, r7, r3
10002892:	681a      	ldr	r2, [r3, #0]
10002894:	9204      	str	r2, [sp, #16]
			*(char **)(buf0 + str_ptr_pos[i] * sizeof(int)) = NULL;
10002896:	9a08      	ldr	r2, [sp, #32]
			size = strlen(s) + 1;
10002898:	9804      	ldr	r0, [sp, #16]
			*(char **)(buf0 + str_ptr_pos[i] * sizeof(int)) = NULL;
1000289a:	601a      	str	r2, [r3, #0]
			size = strlen(s) + 1;
1000289c:	f003 f885 	bl	100059aa <strlen>
100028a0:	1c44      	adds	r4, r0, #1
100028a2:	e7d9      	b.n	10002858 <cbvprintf_package+0x380>
		return -EFAULT;
100028a4:	200e      	movs	r0, #14
100028a6:	e631      	b.n	1000250c <cbvprintf_package+0x34>

100028a8 <__printk_hook_install>:
 * routine that outputs one ASCII character at a time.
 * @param fn putc routine to install
 */
void __printk_hook_install(int (*fn)(int c))
{
	_char_out = fn;
100028a8:	4b01      	ldr	r3, [pc, #4]	; (100028b0 <__printk_hook_install+0x8>)
100028aa:	6018      	str	r0, [r3, #0]
}
100028ac:	4770      	bx	lr
100028ae:	46c0      	nop			; (mov r8, r8)
100028b0:	200000a0 	.word	0x200000a0

100028b4 <z_cbvprintf_impl>:
	return (int)count;
}

int z_cbvprintf_impl(cbprintf_cb out, void *ctx, const char *fp,
		     va_list ap, uint32_t flags)
{
100028b4:	b5f0      	push	{r4, r5, r6, r7, lr}
100028b6:	001c      	movs	r4, r3
	char buf[CONVERTED_BUFLEN];
	size_t count = 0;
100028b8:	2700      	movs	r7, #0
{
100028ba:	b099      	sub	sp, #100	; 0x64
100028bc:	9004      	str	r0, [sp, #16]
100028be:	9105      	str	r1, [sp, #20]
100028c0:	9208      	str	r2, [sp, #32]
		return rc; \
	} \
	count += rc; \
} while (false)

	while (*fp != 0) {
100028c2:	9b08      	ldr	r3, [sp, #32]
100028c4:	7818      	ldrb	r0, [r3, #0]
100028c6:	2800      	cmp	r0, #0
100028c8:	d101      	bne.n	100028ce <z_cbvprintf_impl+0x1a>
			OUTC(' ');
			--width;
		}
	}

	return count;
100028ca:	0038      	movs	r0, r7
100028cc:	e327      	b.n	10002f1e <z_cbvprintf_impl+0x66a>
			OUTC(*fp++);
100028ce:	9b08      	ldr	r3, [sp, #32]
100028d0:	3301      	adds	r3, #1
100028d2:	9307      	str	r3, [sp, #28]
		if (*fp != '%') {
100028d4:	2825      	cmp	r0, #37	; 0x25
100028d6:	d007      	beq.n	100028e8 <z_cbvprintf_impl+0x34>
			OUTC('%');
100028d8:	9905      	ldr	r1, [sp, #20]
100028da:	9b04      	ldr	r3, [sp, #16]
100028dc:	4798      	blx	r3
100028de:	2800      	cmp	r0, #0
100028e0:	da00      	bge.n	100028e4 <z_cbvprintf_impl+0x30>
100028e2:	e31c      	b.n	10002f1e <z_cbvprintf_impl+0x66a>
100028e4:	3701      	adds	r7, #1
		if (bps == NULL) {
100028e6:	e1e3      	b.n	10002cb0 <z_cbvprintf_impl+0x3fc>
		} state = {
100028e8:	ad12      	add	r5, sp, #72	; 0x48
100028ea:	2218      	movs	r2, #24
100028ec:	2100      	movs	r1, #0
100028ee:	0028      	movs	r0, r5
100028f0:	f003 f876 	bl	100059e0 <memset>
	if (*sp == '%') {
100028f4:	9b08      	ldr	r3, [sp, #32]
100028f6:	785b      	ldrb	r3, [r3, #1]
100028f8:	2b25      	cmp	r3, #37	; 0x25
100028fa:	d114      	bne.n	10002926 <z_cbvprintf_impl+0x72>
		conv->specifier = *sp++;
100028fc:	9a08      	ldr	r2, [sp, #32]
100028fe:	72eb      	strb	r3, [r5, #11]
10002900:	3202      	adds	r2, #2
10002902:	9207      	str	r2, [sp, #28]
		if (conv->width_star) {
10002904:	ab12      	add	r3, sp, #72	; 0x48
10002906:	7a5a      	ldrb	r2, [r3, #9]
10002908:	07d1      	lsls	r1, r2, #31
1000290a:	d400      	bmi.n	1000290e <z_cbvprintf_impl+0x5a>
1000290c:	e17f      	b.n	10002c0e <z_cbvprintf_impl+0x35a>
			width = va_arg(ap, int);
1000290e:	cc02      	ldmia	r4!, {r1}
10002910:	9103      	str	r1, [sp, #12]
			if (width < 0) {
10002912:	2900      	cmp	r1, #0
10002914:	db00      	blt.n	10002918 <z_cbvprintf_impl+0x64>
10002916:	e17f      	b.n	10002c18 <z_cbvprintf_impl+0x364>
				conv->flag_dash = true;
10002918:	2104      	movs	r1, #4
1000291a:	7a18      	ldrb	r0, [r3, #8]
1000291c:	4301      	orrs	r1, r0
1000291e:	7219      	strb	r1, [r3, #8]
				width = -width;
10002920:	9b03      	ldr	r3, [sp, #12]
		int width = -1;
10002922:	425b      	negs	r3, r3
10002924:	e177      	b.n	10002c16 <z_cbvprintf_impl+0x362>
10002926:	2200      	movs	r2, #0
		switch (*sp) {
10002928:	2601      	movs	r6, #1
1000292a:	0015      	movs	r5, r2
1000292c:	0010      	movs	r0, r2
1000292e:	4694      	mov	ip, r2
10002930:	9203      	str	r2, [sp, #12]
10002932:	9b07      	ldr	r3, [sp, #28]
10002934:	781b      	ldrb	r3, [r3, #0]
10002936:	2b2b      	cmp	r3, #43	; 0x2b
10002938:	d06f      	beq.n	10002a1a <z_cbvprintf_impl+0x166>
1000293a:	d868      	bhi.n	10002a0e <z_cbvprintf_impl+0x15a>
1000293c:	2b20      	cmp	r3, #32
1000293e:	d071      	beq.n	10002a24 <z_cbvprintf_impl+0x170>
10002940:	2b23      	cmp	r3, #35	; 0x23
10002942:	d071      	beq.n	10002a28 <z_cbvprintf_impl+0x174>
10002944:	2a00      	cmp	r2, #0
10002946:	d005      	beq.n	10002954 <z_cbvprintf_impl+0xa0>
10002948:	ae12      	add	r6, sp, #72	; 0x48
1000294a:	7a32      	ldrb	r2, [r6, #8]
1000294c:	0011      	movs	r1, r2
1000294e:	2240      	movs	r2, #64	; 0x40
10002950:	430a      	orrs	r2, r1
10002952:	7232      	strb	r2, [r6, #8]
10002954:	2d00      	cmp	r5, #0
10002956:	d004      	beq.n	10002962 <z_cbvprintf_impl+0xae>
10002958:	2220      	movs	r2, #32
1000295a:	ad12      	add	r5, sp, #72	; 0x48
1000295c:	7a2e      	ldrb	r6, [r5, #8]
1000295e:	4332      	orrs	r2, r6
10002960:	722a      	strb	r2, [r5, #8]
10002962:	2800      	cmp	r0, #0
10002964:	d004      	beq.n	10002970 <z_cbvprintf_impl+0xbc>
10002966:	2210      	movs	r2, #16
10002968:	a812      	add	r0, sp, #72	; 0x48
1000296a:	7a05      	ldrb	r5, [r0, #8]
1000296c:	432a      	orrs	r2, r5
1000296e:	7202      	strb	r2, [r0, #8]
10002970:	9a03      	ldr	r2, [sp, #12]
10002972:	2a00      	cmp	r2, #0
10002974:	d004      	beq.n	10002980 <z_cbvprintf_impl+0xcc>
10002976:	2208      	movs	r2, #8
10002978:	a912      	add	r1, sp, #72	; 0x48
1000297a:	7a08      	ldrb	r0, [r1, #8]
1000297c:	4302      	orrs	r2, r0
1000297e:	720a      	strb	r2, [r1, #8]
10002980:	4662      	mov	r2, ip
10002982:	2a00      	cmp	r2, #0
10002984:	d004      	beq.n	10002990 <z_cbvprintf_impl+0xdc>
10002986:	2204      	movs	r2, #4
10002988:	a912      	add	r1, sp, #72	; 0x48
1000298a:	7a08      	ldrb	r0, [r1, #8]
1000298c:	4302      	orrs	r2, r0
1000298e:	720a      	strb	r2, [r1, #8]
	if (conv->flag_zero && conv->flag_dash) {
10002990:	2144      	movs	r1, #68	; 0x44
10002992:	a812      	add	r0, sp, #72	; 0x48
10002994:	7a02      	ldrb	r2, [r0, #8]
10002996:	4011      	ands	r1, r2
10002998:	2944      	cmp	r1, #68	; 0x44
1000299a:	d102      	bne.n	100029a2 <z_cbvprintf_impl+0xee>
		conv->flag_zero = false;
1000299c:	2140      	movs	r1, #64	; 0x40
1000299e:	438a      	bics	r2, r1
100029a0:	7202      	strb	r2, [r0, #8]
	conv->width_present = true;
100029a2:	2280      	movs	r2, #128	; 0x80
100029a4:	7a01      	ldrb	r1, [r0, #8]
100029a6:	4252      	negs	r2, r2
100029a8:	430a      	orrs	r2, r1
100029aa:	7202      	strb	r2, [r0, #8]
	size_t val = 0;
100029ac:	2100      	movs	r1, #0
		val = 10U * val + *sp++ - '0';
100029ae:	250a      	movs	r5, #10
100029b0:	9a07      	ldr	r2, [sp, #28]
	if (*sp == '*') {
100029b2:	2b2a      	cmp	r3, #42	; 0x2a
100029b4:	d140      	bne.n	10002a38 <z_cbvprintf_impl+0x184>
		conv->width_star = true;
100029b6:	7a41      	ldrb	r1, [r0, #9]
100029b8:	3b29      	subs	r3, #41	; 0x29
100029ba:	430b      	orrs	r3, r1
		return ++sp;
100029bc:	3201      	adds	r2, #1
		conv->width_star = true;
100029be:	7243      	strb	r3, [r0, #9]
	conv->prec_present = (*sp == '.');
100029c0:	7815      	ldrb	r5, [r2, #0]
100029c2:	2602      	movs	r6, #2
100029c4:	0029      	movs	r1, r5
100029c6:	392e      	subs	r1, #46	; 0x2e
100029c8:	424b      	negs	r3, r1
100029ca:	4159      	adcs	r1, r3
100029cc:	a812      	add	r0, sp, #72	; 0x48
100029ce:	7a43      	ldrb	r3, [r0, #9]
100029d0:	0049      	lsls	r1, r1, #1
100029d2:	43b3      	bics	r3, r6
100029d4:	430b      	orrs	r3, r1
100029d6:	7243      	strb	r3, [r0, #9]
	if (!conv->prec_present) {
100029d8:	2d2e      	cmp	r5, #46	; 0x2e
100029da:	d145      	bne.n	10002a68 <z_cbvprintf_impl+0x1b4>
	if (*sp == '*') {
100029dc:	7853      	ldrb	r3, [r2, #1]
100029de:	2b2a      	cmp	r3, #42	; 0x2a
100029e0:	d03d      	beq.n	10002a5e <z_cbvprintf_impl+0x1aa>
	size_t val = 0;
100029e2:	2300      	movs	r3, #0
	++sp;
100029e4:	3201      	adds	r2, #1
		val = 10U * val + *sp++ - '0';
100029e6:	3608      	adds	r6, #8
			(((unsigned)c) <= (unsigned)'~'));
}

static inline int isdigit(int a)
{
	return (int)(((unsigned)(a)-(unsigned)'0') < 10U);
100029e8:	7811      	ldrb	r1, [r2, #0]
100029ea:	1c55      	adds	r5, r2, #1
100029ec:	0008      	movs	r0, r1
100029ee:	3830      	subs	r0, #48	; 0x30
	while (isdigit((int)(unsigned char)*sp)) {
100029f0:	2809      	cmp	r0, #9
100029f2:	d963      	bls.n	10002abc <z_cbvprintf_impl+0x208>
	conv->prec_value = prec;
100029f4:	a912      	add	r1, sp, #72	; 0x48
100029f6:	9316      	str	r3, [sp, #88]	; 0x58
	conv->unsupported |= ((conv->prec_value < 0)
100029f8:	7a0d      	ldrb	r5, [r1, #8]
100029fa:	07a8      	lsls	r0, r5, #30
100029fc:	4318      	orrs	r0, r3
100029fe:	2302      	movs	r3, #2
10002a00:	439d      	bics	r5, r3
10002a02:	002b      	movs	r3, r5
10002a04:	0fc0      	lsrs	r0, r0, #31
10002a06:	0040      	lsls	r0, r0, #1
10002a08:	4303      	orrs	r3, r0
10002a0a:	720b      	strb	r3, [r1, #8]
	return sp;
10002a0c:	e02c      	b.n	10002a68 <z_cbvprintf_impl+0x1b4>
		switch (*sp) {
10002a0e:	2b2d      	cmp	r3, #45	; 0x2d
10002a10:	d00c      	beq.n	10002a2c <z_cbvprintf_impl+0x178>
10002a12:	2b30      	cmp	r3, #48	; 0x30
10002a14:	d196      	bne.n	10002944 <z_cbvprintf_impl+0x90>
10002a16:	0032      	movs	r2, r6
10002a18:	e000      	b.n	10002a1c <z_cbvprintf_impl+0x168>
10002a1a:	9603      	str	r6, [sp, #12]
			++sp;
10002a1c:	9b07      	ldr	r3, [sp, #28]
10002a1e:	3301      	adds	r3, #1
10002a20:	9307      	str	r3, [sp, #28]
	} while (loop);
10002a22:	e786      	b.n	10002932 <z_cbvprintf_impl+0x7e>
		switch (*sp) {
10002a24:	0030      	movs	r0, r6
10002a26:	e7f9      	b.n	10002a1c <z_cbvprintf_impl+0x168>
10002a28:	0035      	movs	r5, r6
10002a2a:	e7f7      	b.n	10002a1c <z_cbvprintf_impl+0x168>
10002a2c:	46b4      	mov	ip, r6
10002a2e:	e7f5      	b.n	10002a1c <z_cbvprintf_impl+0x168>
		val = 10U * val + *sp++ - '0';
10002a30:	0032      	movs	r2, r6
10002a32:	4369      	muls	r1, r5
10002a34:	3930      	subs	r1, #48	; 0x30
10002a36:	1859      	adds	r1, r3, r1
10002a38:	7813      	ldrb	r3, [r2, #0]
10002a3a:	1c56      	adds	r6, r2, #1
10002a3c:	0018      	movs	r0, r3
10002a3e:	3830      	subs	r0, #48	; 0x30
	while (isdigit((int)(unsigned char)*sp)) {
10002a40:	2809      	cmp	r0, #9
10002a42:	d9f5      	bls.n	10002a30 <z_cbvprintf_impl+0x17c>
	if (sp != wp) {
10002a44:	9b07      	ldr	r3, [sp, #28]
10002a46:	4293      	cmp	r3, r2
10002a48:	d0ba      	beq.n	100029c0 <z_cbvprintf_impl+0x10c>
		conv->unsupported |= ((conv->width_value < 0)
10002a4a:	2502      	movs	r5, #2
		conv->width_value = width;
10002a4c:	ab12      	add	r3, sp, #72	; 0x48
		conv->unsupported |= ((conv->width_value < 0)
10002a4e:	7a18      	ldrb	r0, [r3, #8]
		conv->width_value = width;
10002a50:	9115      	str	r1, [sp, #84]	; 0x54
		conv->unsupported |= ((conv->width_value < 0)
10002a52:	0fc9      	lsrs	r1, r1, #31
10002a54:	0049      	lsls	r1, r1, #1
10002a56:	43a8      	bics	r0, r5
10002a58:	4301      	orrs	r1, r0
10002a5a:	7219      	strb	r1, [r3, #8]
10002a5c:	e7b0      	b.n	100029c0 <z_cbvprintf_impl+0x10c>
		conv->prec_star = true;
10002a5e:	2304      	movs	r3, #4
10002a60:	7a41      	ldrb	r1, [r0, #9]
		return ++sp;
10002a62:	3202      	adds	r2, #2
		conv->prec_star = true;
10002a64:	430b      	orrs	r3, r1
10002a66:	7243      	strb	r3, [r0, #9]
	switch (*sp) {
10002a68:	7811      	ldrb	r1, [r2, #0]
10002a6a:	ab12      	add	r3, sp, #72	; 0x48
10002a6c:	296c      	cmp	r1, #108	; 0x6c
10002a6e:	d045      	beq.n	10002afc <z_cbvprintf_impl+0x248>
10002a70:	d829      	bhi.n	10002ac6 <z_cbvprintf_impl+0x212>
10002a72:	2968      	cmp	r1, #104	; 0x68
10002a74:	d030      	beq.n	10002ad8 <z_cbvprintf_impl+0x224>
10002a76:	296a      	cmp	r1, #106	; 0x6a
10002a78:	d04c      	beq.n	10002b14 <z_cbvprintf_impl+0x260>
10002a7a:	294c      	cmp	r1, #76	; 0x4c
10002a7c:	d054      	beq.n	10002b28 <z_cbvprintf_impl+0x274>
	conv->specifier = *sp++;
10002a7e:	7811      	ldrb	r1, [r2, #0]
10002a80:	1c53      	adds	r3, r2, #1
10002a82:	aa12      	add	r2, sp, #72	; 0x48
10002a84:	9307      	str	r3, [sp, #28]
10002a86:	72d1      	strb	r1, [r2, #11]
		if (conv->length_mod == LENGTH_UPPER_L) {
10002a88:	7a53      	ldrb	r3, [r2, #9]
	switch (conv->specifier) {
10002a8a:	2978      	cmp	r1, #120	; 0x78
10002a8c:	d900      	bls.n	10002a90 <z_cbvprintf_impl+0x1dc>
10002a8e:	e0b9      	b.n	10002c04 <z_cbvprintf_impl+0x350>
10002a90:	296d      	cmp	r1, #109	; 0x6d
10002a92:	d850      	bhi.n	10002b36 <z_cbvprintf_impl+0x282>
10002a94:	2969      	cmp	r1, #105	; 0x69
10002a96:	d900      	bls.n	10002a9a <z_cbvprintf_impl+0x1e6>
10002a98:	e0b4      	b.n	10002c04 <z_cbvprintf_impl+0x350>
10002a9a:	2957      	cmp	r1, #87	; 0x57
10002a9c:	d866      	bhi.n	10002b6c <z_cbvprintf_impl+0x2b8>
10002a9e:	2941      	cmp	r1, #65	; 0x41
10002aa0:	d003      	beq.n	10002aaa <z_cbvprintf_impl+0x1f6>
10002aa2:	3945      	subs	r1, #69	; 0x45
10002aa4:	2902      	cmp	r1, #2
10002aa6:	d900      	bls.n	10002aaa <z_cbvprintf_impl+0x1f6>
10002aa8:	e0ac      	b.n	10002c04 <z_cbvprintf_impl+0x350>
		conv->specifier_cat = SPECIFIER_FP;
10002aaa:	2307      	movs	r3, #7
10002aac:	a912      	add	r1, sp, #72	; 0x48
10002aae:	7a8a      	ldrb	r2, [r1, #10]
10002ab0:	439a      	bics	r2, r3
10002ab2:	3b03      	subs	r3, #3
10002ab4:	4313      	orrs	r3, r2
10002ab6:	728b      	strb	r3, [r1, #10]
			unsupported = true;
10002ab8:	2301      	movs	r3, #1
			break;
10002aba:	e073      	b.n	10002ba4 <z_cbvprintf_impl+0x2f0>
		val = 10U * val + *sp++ - '0';
10002abc:	4373      	muls	r3, r6
10002abe:	3b30      	subs	r3, #48	; 0x30
10002ac0:	002a      	movs	r2, r5
10002ac2:	185b      	adds	r3, r3, r1
10002ac4:	e790      	b.n	100029e8 <z_cbvprintf_impl+0x134>
	switch (*sp) {
10002ac6:	2974      	cmp	r1, #116	; 0x74
10002ac8:	d029      	beq.n	10002b1e <z_cbvprintf_impl+0x26a>
10002aca:	297a      	cmp	r1, #122	; 0x7a
10002acc:	d1d7      	bne.n	10002a7e <z_cbvprintf_impl+0x1ca>
		conv->length_mod = LENGTH_Z;
10002ace:	2178      	movs	r1, #120	; 0x78
10002ad0:	7a58      	ldrb	r0, [r3, #9]
10002ad2:	4388      	bics	r0, r1
10002ad4:	3948      	subs	r1, #72	; 0x48
10002ad6:	e00d      	b.n	10002af4 <z_cbvprintf_impl+0x240>
		if (*++sp == 'h') {
10002ad8:	7850      	ldrb	r0, [r2, #1]
10002ada:	2178      	movs	r1, #120	; 0x78
10002adc:	2868      	cmp	r0, #104	; 0x68
10002ade:	d106      	bne.n	10002aee <z_cbvprintf_impl+0x23a>
			conv->length_mod = LENGTH_HH;
10002ae0:	7a58      	ldrb	r0, [r3, #9]
10002ae2:	4388      	bics	r0, r1
10002ae4:	3970      	subs	r1, #112	; 0x70
			conv->length_mod = LENGTH_LL;
10002ae6:	4301      	orrs	r1, r0
10002ae8:	7259      	strb	r1, [r3, #9]
			++sp;
10002aea:	3202      	adds	r2, #2
10002aec:	e7c7      	b.n	10002a7e <z_cbvprintf_impl+0x1ca>
			conv->length_mod = LENGTH_H;
10002aee:	7a58      	ldrb	r0, [r3, #9]
10002af0:	4388      	bics	r0, r1
10002af2:	2110      	movs	r1, #16
10002af4:	4301      	orrs	r1, r0
10002af6:	7259      	strb	r1, [r3, #9]
		if (*++sp == 'h') {
10002af8:	3201      	adds	r2, #1
10002afa:	e7c0      	b.n	10002a7e <z_cbvprintf_impl+0x1ca>
		if (*++sp == 'l') {
10002afc:	7850      	ldrb	r0, [r2, #1]
10002afe:	2178      	movs	r1, #120	; 0x78
10002b00:	286c      	cmp	r0, #108	; 0x6c
10002b02:	d103      	bne.n	10002b0c <z_cbvprintf_impl+0x258>
			conv->length_mod = LENGTH_LL;
10002b04:	7a58      	ldrb	r0, [r3, #9]
10002b06:	4388      	bics	r0, r1
10002b08:	3958      	subs	r1, #88	; 0x58
10002b0a:	e7ec      	b.n	10002ae6 <z_cbvprintf_impl+0x232>
			conv->length_mod = LENGTH_L;
10002b0c:	7a58      	ldrb	r0, [r3, #9]
10002b0e:	4388      	bics	r0, r1
10002b10:	2118      	movs	r1, #24
10002b12:	e7ef      	b.n	10002af4 <z_cbvprintf_impl+0x240>
		conv->length_mod = LENGTH_J;
10002b14:	2178      	movs	r1, #120	; 0x78
10002b16:	7a58      	ldrb	r0, [r3, #9]
10002b18:	4388      	bics	r0, r1
10002b1a:	3950      	subs	r1, #80	; 0x50
10002b1c:	e7ea      	b.n	10002af4 <z_cbvprintf_impl+0x240>
		conv->length_mod = LENGTH_T;
10002b1e:	2178      	movs	r1, #120	; 0x78
10002b20:	7a58      	ldrb	r0, [r3, #9]
10002b22:	4388      	bics	r0, r1
10002b24:	3940      	subs	r1, #64	; 0x40
10002b26:	e7e5      	b.n	10002af4 <z_cbvprintf_impl+0x240>
		conv->unsupported = true;
10002b28:	8918      	ldrh	r0, [r3, #8]
10002b2a:	49a5      	ldr	r1, [pc, #660]	; (10002dc0 <z_cbvprintf_impl+0x50c>)
10002b2c:	4008      	ands	r0, r1
10002b2e:	49a5      	ldr	r1, [pc, #660]	; (10002dc4 <z_cbvprintf_impl+0x510>)
10002b30:	4301      	orrs	r1, r0
10002b32:	8119      	strh	r1, [r3, #8]
		break;
10002b34:	e7e0      	b.n	10002af8 <z_cbvprintf_impl+0x244>
10002b36:	2001      	movs	r0, #1
10002b38:	0005      	movs	r5, r0
	switch (conv->specifier) {
10002b3a:	396e      	subs	r1, #110	; 0x6e
10002b3c:	b2c9      	uxtb	r1, r1
10002b3e:	408d      	lsls	r5, r1
10002b40:	0029      	movs	r1, r5
10002b42:	4da1      	ldr	r5, [pc, #644]	; (10002dc8 <z_cbvprintf_impl+0x514>)
10002b44:	4229      	tst	r1, r5
10002b46:	d138      	bne.n	10002bba <z_cbvprintf_impl+0x306>
10002b48:	2524      	movs	r5, #36	; 0x24
10002b4a:	4229      	tst	r1, r5
10002b4c:	d151      	bne.n	10002bf2 <z_cbvprintf_impl+0x33e>
10002b4e:	4201      	tst	r1, r0
10002b50:	d058      	beq.n	10002c04 <z_cbvprintf_impl+0x350>
		conv->specifier_cat = SPECIFIER_PTR;
10002b52:	2107      	movs	r1, #7
10002b54:	7a90      	ldrb	r0, [r2, #10]
10002b56:	4388      	bics	r0, r1
10002b58:	3904      	subs	r1, #4
10002b5a:	4301      	orrs	r1, r0
10002b5c:	7291      	strb	r1, [r2, #10]
		if (conv->length_mod == LENGTH_UPPER_L) {
10002b5e:	2278      	movs	r2, #120	; 0x78
10002b60:	4013      	ands	r3, r2
10002b62:	3b40      	subs	r3, #64	; 0x40
10002b64:	425a      	negs	r2, r3
10002b66:	4153      	adcs	r3, r2
		if (conv->length_mod != LENGTH_NONE) {
10002b68:	b2db      	uxtb	r3, r3
10002b6a:	e01b      	b.n	10002ba4 <z_cbvprintf_impl+0x2f0>
10002b6c:	2001      	movs	r0, #1
	switch (conv->specifier) {
10002b6e:	000d      	movs	r5, r1
10002b70:	0006      	movs	r6, r0
10002b72:	3d58      	subs	r5, #88	; 0x58
10002b74:	b2ed      	uxtb	r5, r5
10002b76:	40ae      	lsls	r6, r5
10002b78:	0035      	movs	r5, r6
10002b7a:	26e2      	movs	r6, #226	; 0xe2
10002b7c:	0236      	lsls	r6, r6, #8
10002b7e:	4235      	tst	r5, r6
10002b80:	d193      	bne.n	10002aaa <z_cbvprintf_impl+0x1f6>
10002b82:	4e92      	ldr	r6, [pc, #584]	; (10002dcc <z_cbvprintf_impl+0x518>)
10002b84:	4235      	tst	r5, r6
10002b86:	d122      	bne.n	10002bce <z_cbvprintf_impl+0x31a>
10002b88:	2184      	movs	r1, #132	; 0x84
10002b8a:	0289      	lsls	r1, r1, #10
10002b8c:	420d      	tst	r5, r1
10002b8e:	d039      	beq.n	10002c04 <z_cbvprintf_impl+0x350>
		conv->specifier_cat = SPECIFIER_SINT;
10002b90:	2507      	movs	r5, #7
10002b92:	7a91      	ldrb	r1, [r2, #10]
10002b94:	43a9      	bics	r1, r5
10002b96:	4301      	orrs	r1, r0
10002b98:	7291      	strb	r1, [r2, #10]
		if (conv->length_mod == LENGTH_UPPER_L) {
10002b9a:	2178      	movs	r1, #120	; 0x78
10002b9c:	400b      	ands	r3, r1
10002b9e:	2b40      	cmp	r3, #64	; 0x40
10002ba0:	d011      	beq.n	10002bc6 <z_cbvprintf_impl+0x312>
	bool unsupported = false;
10002ba2:	2300      	movs	r3, #0
	conv->unsupported |= unsupported;
10002ba4:	aa12      	add	r2, sp, #72	; 0x48
10002ba6:	7a11      	ldrb	r1, [r2, #8]
10002ba8:	0788      	lsls	r0, r1, #30
10002baa:	0fc0      	lsrs	r0, r0, #31
10002bac:	4303      	orrs	r3, r0
10002bae:	2002      	movs	r0, #2
10002bb0:	005b      	lsls	r3, r3, #1
10002bb2:	4381      	bics	r1, r0
10002bb4:	4319      	orrs	r1, r3
10002bb6:	7211      	strb	r1, [r2, #8]
	return sp;
10002bb8:	e6a4      	b.n	10002904 <z_cbvprintf_impl+0x50>
		conv->specifier_cat = SPECIFIER_UINT;
10002bba:	2107      	movs	r1, #7
10002bbc:	7a95      	ldrb	r5, [r2, #10]
10002bbe:	438d      	bics	r5, r1
10002bc0:	3905      	subs	r1, #5
10002bc2:	4329      	orrs	r1, r5
10002bc4:	e7e8      	b.n	10002b98 <z_cbvprintf_impl+0x2e4>
			conv->invalid = true;
10002bc6:	7a13      	ldrb	r3, [r2, #8]
10002bc8:	4303      	orrs	r3, r0
		conv->invalid = true;
10002bca:	7213      	strb	r3, [r2, #8]
		break;
10002bcc:	e7e9      	b.n	10002ba2 <z_cbvprintf_impl+0x2ee>
		conv->specifier_cat = SPECIFIER_UINT;
10002bce:	2507      	movs	r5, #7
10002bd0:	7a96      	ldrb	r6, [r2, #10]
10002bd2:	43ae      	bics	r6, r5
10002bd4:	3d05      	subs	r5, #5
10002bd6:	4335      	orrs	r5, r6
10002bd8:	7295      	strb	r5, [r2, #10]
		if (conv->length_mod == LENGTH_UPPER_L) {
10002bda:	2578      	movs	r5, #120	; 0x78
10002bdc:	402b      	ands	r3, r5
10002bde:	2b40      	cmp	r3, #64	; 0x40
10002be0:	d102      	bne.n	10002be8 <z_cbvprintf_impl+0x334>
			conv->invalid = true;
10002be2:	7a15      	ldrb	r5, [r2, #8]
10002be4:	4328      	orrs	r0, r5
10002be6:	7210      	strb	r0, [r2, #8]
		if (conv->specifier == 'c') {
10002be8:	2963      	cmp	r1, #99	; 0x63
10002bea:	d1da      	bne.n	10002ba2 <z_cbvprintf_impl+0x2ee>
		if (conv->length_mod != LENGTH_NONE) {
10002bec:	1e5a      	subs	r2, r3, #1
10002bee:	4193      	sbcs	r3, r2
10002bf0:	e7ba      	b.n	10002b68 <z_cbvprintf_impl+0x2b4>
		conv->specifier_cat = SPECIFIER_PTR;
10002bf2:	2107      	movs	r1, #7
10002bf4:	7a90      	ldrb	r0, [r2, #10]
10002bf6:	4388      	bics	r0, r1
10002bf8:	3904      	subs	r1, #4
10002bfa:	4301      	orrs	r1, r0
10002bfc:	7291      	strb	r1, [r2, #10]
		if (conv->length_mod != LENGTH_NONE) {
10002bfe:	2278      	movs	r2, #120	; 0x78
10002c00:	4013      	ands	r3, r2
10002c02:	e7f3      	b.n	10002bec <z_cbvprintf_impl+0x338>
		conv->invalid = true;
10002c04:	2301      	movs	r3, #1
10002c06:	aa12      	add	r2, sp, #72	; 0x48
10002c08:	7a11      	ldrb	r1, [r2, #8]
10002c0a:	430b      	orrs	r3, r1
10002c0c:	e7dd      	b.n	10002bca <z_cbvprintf_impl+0x316>
		} else if (conv->width_present) {
10002c0e:	7a19      	ldrb	r1, [r3, #8]
10002c10:	297f      	cmp	r1, #127	; 0x7f
10002c12:	d90f      	bls.n	10002c34 <z_cbvprintf_impl+0x380>
			width = conv->width_value;
10002c14:	68db      	ldr	r3, [r3, #12]
		int width = -1;
10002c16:	9303      	str	r3, [sp, #12]
		if (conv->prec_star) {
10002c18:	ab12      	add	r3, sp, #72	; 0x48
10002c1a:	0751      	lsls	r1, r2, #29
10002c1c:	d50c      	bpl.n	10002c38 <z_cbvprintf_impl+0x384>
			int arg = va_arg(ap, int);
10002c1e:	cc04      	ldmia	r4!, {r2}
10002c20:	9206      	str	r2, [sp, #24]
			if (arg < 0) {
10002c22:	2a00      	cmp	r2, #0
10002c24:	da0c      	bge.n	10002c40 <z_cbvprintf_impl+0x38c>
				conv->prec_present = false;
10002c26:	2102      	movs	r1, #2
10002c28:	7a5a      	ldrb	r2, [r3, #9]
10002c2a:	438a      	bics	r2, r1
10002c2c:	725a      	strb	r2, [r3, #9]
		int precision = -1;
10002c2e:	2301      	movs	r3, #1
10002c30:	425b      	negs	r3, r3
10002c32:	e004      	b.n	10002c3e <z_cbvprintf_impl+0x38a>
		int width = -1;
10002c34:	2301      	movs	r3, #1
10002c36:	e674      	b.n	10002922 <z_cbvprintf_impl+0x6e>
		} else if (conv->prec_present) {
10002c38:	0792      	lsls	r2, r2, #30
10002c3a:	d5f8      	bpl.n	10002c2e <z_cbvprintf_impl+0x37a>
			precision = conv->prec_value;
10002c3c:	691b      	ldr	r3, [r3, #16]
		int precision = -1;
10002c3e:	9306      	str	r3, [sp, #24]
		conv->pad0_value = 0;
10002c40:	2500      	movs	r5, #0
10002c42:	a912      	add	r1, sp, #72	; 0x48
			= (enum specifier_cat_enum)conv->specifier_cat;
10002c44:	7a8b      	ldrb	r3, [r1, #10]
			= (enum length_mod_enum)conv->length_mod;
10002c46:	7a4a      	ldrb	r2, [r1, #9]
			= (enum specifier_cat_enum)conv->specifier_cat;
10002c48:	075b      	lsls	r3, r3, #29
			= (enum length_mod_enum)conv->length_mod;
10002c4a:	0652      	lsls	r2, r2, #25
		enum specifier_cat_enum specifier_cat
10002c4c:	0f5b      	lsrs	r3, r3, #29
			= (enum length_mod_enum)conv->length_mod;
10002c4e:	0f12      	lsrs	r2, r2, #28
		conv->pad0_value = 0;
10002c50:	60cd      	str	r5, [r1, #12]
		conv->pad0_pre_exp = 0;
10002c52:	610d      	str	r5, [r1, #16]
		if (specifier_cat == SPECIFIER_SINT) {
10002c54:	2b01      	cmp	r3, #1
10002c56:	d130      	bne.n	10002cba <z_cbvprintf_impl+0x406>
			switch (length_mod) {
10002c58:	1ed0      	subs	r0, r2, #3
10002c5a:	2804      	cmp	r0, #4
10002c5c:	d804      	bhi.n	10002c68 <z_cbvprintf_impl+0x3b4>
10002c5e:	f7fd faa3 	bl	100001a8 <__gnu_thumb1_case_uqi>
10002c62:	450e      	.short	0x450e
10002c64:	0e45      	.short	0x0e45
10002c66:	0e          	.byte	0x0e
10002c67:	00          	.byte	0x00
				value->sint = va_arg(ap, int);
10002c68:	6823      	ldr	r3, [r4, #0]
10002c6a:	17d8      	asrs	r0, r3, #31
10002c6c:	9312      	str	r3, [sp, #72]	; 0x48
10002c6e:	6048      	str	r0, [r1, #4]
			if (length_mod == LENGTH_HH) {
10002c70:	2a01      	cmp	r2, #1
10002c72:	d109      	bne.n	10002c88 <z_cbvprintf_impl+0x3d4>
				value->sint = (signed char)value->sint;
10002c74:	b25b      	sxtb	r3, r3
				value->sint = (short)value->sint;
10002c76:	9312      	str	r3, [sp, #72]	; 0x48
10002c78:	17db      	asrs	r3, r3, #31
10002c7a:	604b      	str	r3, [r1, #4]
10002c7c:	e006      	b.n	10002c8c <z_cbvprintf_impl+0x3d8>
					(sint_value_type)va_arg(ap, ptrdiff_t);
10002c7e:	cc08      	ldmia	r4!, {r3}
10002c80:	9312      	str	r3, [sp, #72]	; 0x48
10002c82:	17db      	asrs	r3, r3, #31
					(uint_value_type)va_arg(ap, size_t);
10002c84:	604b      	str	r3, [r1, #4]
			} else if (length_mod == LENGTH_H) {
10002c86:	e002      	b.n	10002c8e <z_cbvprintf_impl+0x3da>
			} else if (length_mod == LENGTH_H) {
10002c88:	2a02      	cmp	r2, #2
10002c8a:	d014      	beq.n	10002cb6 <z_cbvprintf_impl+0x402>
				value->sint = va_arg(ap, int);
10002c8c:	3404      	adds	r4, #4
		if (conv->invalid || conv->unsupported) {
10002c8e:	a912      	add	r1, sp, #72	; 0x48
10002c90:	7a0b      	ldrb	r3, [r1, #8]
10002c92:	2003      	movs	r0, #3
10002c94:	001d      	movs	r5, r3
10002c96:	4005      	ands	r5, r0
10002c98:	4203      	tst	r3, r0
10002c9a:	d045      	beq.n	10002d28 <z_cbvprintf_impl+0x474>
			OUTS(sp, fp);
10002c9c:	9b07      	ldr	r3, [sp, #28]
10002c9e:	9a08      	ldr	r2, [sp, #32]
10002ca0:	9905      	ldr	r1, [sp, #20]
10002ca2:	9804      	ldr	r0, [sp, #16]
10002ca4:	f002 fdbf 	bl	10005826 <outs>
10002ca8:	2800      	cmp	r0, #0
10002caa:	da00      	bge.n	10002cae <z_cbvprintf_impl+0x3fa>
10002cac:	e137      	b.n	10002f1e <z_cbvprintf_impl+0x66a>
10002cae:	183f      	adds	r7, r7, r0
			continue;
10002cb0:	9b07      	ldr	r3, [sp, #28]
10002cb2:	9308      	str	r3, [sp, #32]
10002cb4:	e605      	b.n	100028c2 <z_cbvprintf_impl+0xe>
				value->sint = (short)value->sint;
10002cb6:	b21b      	sxth	r3, r3
10002cb8:	e7dd      	b.n	10002c76 <z_cbvprintf_impl+0x3c2>
		} else if (specifier_cat == SPECIFIER_UINT) {
10002cba:	2b02      	cmp	r3, #2
10002cbc:	d125      	bne.n	10002d0a <z_cbvprintf_impl+0x456>
			switch (length_mod) {
10002cbe:	1ed0      	subs	r0, r2, #3
10002cc0:	2804      	cmp	r0, #4
10002cc2:	d804      	bhi.n	10002cce <z_cbvprintf_impl+0x41a>
10002cc4:	f7fd fa70 	bl	100001a8 <__gnu_thumb1_case_uqi>
10002cc8:	1912120d 	.word	0x1912120d
10002ccc:	19          	.byte	0x19
10002ccd:	00          	.byte	0x00
				value->uint = va_arg(ap, unsigned int);
10002cce:	cc08      	ldmia	r4!, {r3}
			if (length_mod == LENGTH_HH) {
10002cd0:	2a01      	cmp	r2, #1
10002cd2:	d016      	beq.n	10002d02 <z_cbvprintf_impl+0x44e>
				value->uint = va_arg(ap, unsigned int);
10002cd4:	9312      	str	r3, [sp, #72]	; 0x48
10002cd6:	604d      	str	r5, [r1, #4]
				value->uint = (unsigned short)value->uint;
10002cd8:	b29b      	uxth	r3, r3
			} else if (length_mod == LENGTH_H) {
10002cda:	2a02      	cmp	r2, #2
10002cdc:	d1d7      	bne.n	10002c8e <z_cbvprintf_impl+0x3da>
			value->ptr = va_arg(ap, void *);
10002cde:	9312      	str	r3, [sp, #72]	; 0x48
10002ce0:	e7d5      	b.n	10002c8e <z_cbvprintf_impl+0x3da>
					value->uint = (wchar_t)va_arg(ap,
10002ce2:	cc08      	ldmia	r4!, {r3}
10002ce4:	9312      	str	r3, [sp, #72]	; 0x48
10002ce6:	2300      	movs	r3, #0
10002ce8:	9313      	str	r3, [sp, #76]	; 0x4c
10002cea:	e7d0      	b.n	10002c8e <z_cbvprintf_impl+0x3da>
					(uint_value_type)va_arg(ap,
10002cec:	2307      	movs	r3, #7
10002cee:	3407      	adds	r4, #7
10002cf0:	439c      	bics	r4, r3
				value->uint =
10002cf2:	cc03      	ldmia	r4!, {r0, r1}
10002cf4:	9012      	str	r0, [sp, #72]	; 0x48
10002cf6:	9113      	str	r1, [sp, #76]	; 0x4c
			if (length_mod == LENGTH_HH) {
10002cf8:	e7c9      	b.n	10002c8e <z_cbvprintf_impl+0x3da>
					(uint_value_type)va_arg(ap, size_t);
10002cfa:	cc08      	ldmia	r4!, {r3}
10002cfc:	9312      	str	r3, [sp, #72]	; 0x48
10002cfe:	2300      	movs	r3, #0
10002d00:	e7c0      	b.n	10002c84 <z_cbvprintf_impl+0x3d0>
				value->uint = (unsigned char)value->uint;
10002d02:	b2db      	uxtb	r3, r3
10002d04:	9312      	str	r3, [sp, #72]	; 0x48
10002d06:	604d      	str	r5, [r1, #4]
10002d08:	e7c1      	b.n	10002c8e <z_cbvprintf_impl+0x3da>
		} else if (specifier_cat == SPECIFIER_FP) {
10002d0a:	2b04      	cmp	r3, #4
10002d0c:	d108      	bne.n	10002d20 <z_cbvprintf_impl+0x46c>
					(sint_value_type)va_arg(ap, long long);
10002d0e:	3407      	adds	r4, #7
				value->ldbl = va_arg(ap, long double);
10002d10:	3303      	adds	r3, #3
10002d12:	439c      	bics	r4, r3
10002d14:	6820      	ldr	r0, [r4, #0]
10002d16:	6861      	ldr	r1, [r4, #4]
10002d18:	3408      	adds	r4, #8
10002d1a:	9012      	str	r0, [sp, #72]	; 0x48
10002d1c:	9113      	str	r1, [sp, #76]	; 0x4c
10002d1e:	e7b6      	b.n	10002c8e <z_cbvprintf_impl+0x3da>
		} else if (specifier_cat == SPECIFIER_PTR) {
10002d20:	2b03      	cmp	r3, #3
10002d22:	d1b4      	bne.n	10002c8e <z_cbvprintf_impl+0x3da>
			value->ptr = va_arg(ap, void *);
10002d24:	cc08      	ldmia	r4!, {r3}
10002d26:	e7da      	b.n	10002cde <z_cbvprintf_impl+0x42a>
		switch (conv->specifier) {
10002d28:	7ac8      	ldrb	r0, [r1, #11]
10002d2a:	2878      	cmp	r0, #120	; 0x78
10002d2c:	d8c0      	bhi.n	10002cb0 <z_cbvprintf_impl+0x3fc>
10002d2e:	2862      	cmp	r0, #98	; 0x62
10002d30:	d82b      	bhi.n	10002d8a <z_cbvprintf_impl+0x4d6>
10002d32:	2825      	cmp	r0, #37	; 0x25
10002d34:	d100      	bne.n	10002d38 <z_cbvprintf_impl+0x484>
10002d36:	e5cf      	b.n	100028d8 <z_cbvprintf_impl+0x24>
10002d38:	2858      	cmp	r0, #88	; 0x58
10002d3a:	d1b9      	bne.n	10002cb0 <z_cbvprintf_impl+0x3fc>
			bps = encode_uint(value->uint, conv, buf, bpe);
10002d3c:	9812      	ldr	r0, [sp, #72]	; 0x48
10002d3e:	9913      	ldr	r1, [sp, #76]	; 0x4c
10002d40:	231e      	movs	r3, #30
10002d42:	aa0a      	add	r2, sp, #40	; 0x28
10002d44:	189b      	adds	r3, r3, r2
10002d46:	9300      	str	r3, [sp, #0]
10002d48:	aa14      	add	r2, sp, #80	; 0x50
10002d4a:	ab0c      	add	r3, sp, #48	; 0x30
10002d4c:	f002 fd1e 	bl	1000578c <encode_uint>
			if (precision >= 0) {
10002d50:	9b06      	ldr	r3, [sp, #24]
			bps = encode_uint(value->uint, conv, buf, bpe);
10002d52:	0006      	movs	r6, r0
			if (precision >= 0) {
10002d54:	2b00      	cmp	r3, #0
10002d56:	db0d      	blt.n	10002d74 <z_cbvprintf_impl+0x4c0>
				size_t len = bpe - bps;
10002d58:	231e      	movs	r3, #30
				conv->flag_zero = false;
10002d5a:	2040      	movs	r0, #64	; 0x40
				size_t len = bpe - bps;
10002d5c:	aa0a      	add	r2, sp, #40	; 0x28
10002d5e:	189b      	adds	r3, r3, r2
				conv->flag_zero = false;
10002d60:	aa12      	add	r2, sp, #72	; 0x48
10002d62:	7a11      	ldrb	r1, [r2, #8]
				size_t len = bpe - bps;
10002d64:	1b9b      	subs	r3, r3, r6
				conv->flag_zero = false;
10002d66:	4381      	bics	r1, r0
10002d68:	7211      	strb	r1, [r2, #8]
				if (len < (size_t)precision) {
10002d6a:	9906      	ldr	r1, [sp, #24]
10002d6c:	4299      	cmp	r1, r3
10002d6e:	d901      	bls.n	10002d74 <z_cbvprintf_impl+0x4c0>
					conv->pad0_value = precision - (int)len;
10002d70:	1acb      	subs	r3, r1, r3
10002d72:	9315      	str	r3, [sp, #84]	; 0x54
		if (bps == NULL) {
10002d74:	2e00      	cmp	r6, #0
10002d76:	d09b      	beq.n	10002cb0 <z_cbvprintf_impl+0x3fc>
		size_t nj_len = (bpe - bps);
10002d78:	231e      	movs	r3, #30
10002d7a:	aa0a      	add	r2, sp, #40	; 0x28
10002d7c:	189b      	adds	r3, r3, r2
10002d7e:	1b98      	subs	r0, r3, r6
		if (sign != 0) {
10002d80:	9306      	str	r3, [sp, #24]
10002d82:	2d00      	cmp	r5, #0
10002d84:	d032      	beq.n	10002dec <z_cbvprintf_impl+0x538>
			nj_len += 1U;
10002d86:	3001      	adds	r0, #1
10002d88:	e030      	b.n	10002dec <z_cbvprintf_impl+0x538>
		switch (conv->specifier) {
10002d8a:	3863      	subs	r0, #99	; 0x63
10002d8c:	2815      	cmp	r0, #21
10002d8e:	d88f      	bhi.n	10002cb0 <z_cbvprintf_impl+0x3fc>
10002d90:	f7fd fa14 	bl	100001bc <__gnu_thumb1_case_shi>
10002d94:	0068005e 	.word	0x0068005e
10002d98:	ff8eff8e 	.word	0xff8eff8e
10002d9c:	ff8eff8e 	.word	0xff8eff8e
10002da0:	ff8e0068 	.word	0xff8e0068
10002da4:	ff8eff8e 	.word	0xff8eff8e
10002da8:	00a0ff8e 	.word	0x00a0ff8e
10002dac:	007c007a 	.word	0x007c007a
10002db0:	ff8eff8e 	.word	0xff8eff8e
10002db4:	ff8e001e 	.word	0xff8e001e
10002db8:	ff8e007a 	.word	0xff8e007a
10002dbc:	007aff8e 	.word	0x007aff8e
10002dc0:	ffff87fd 	.word	0xffff87fd
10002dc4:	00004002 	.word	0x00004002
10002dc8:	00000482 	.word	0x00000482
10002dcc:	00000801 	.word	0x00000801
			if (precision >= 0) {
10002dd0:	9b06      	ldr	r3, [sp, #24]
			bps = (const char *)value->ptr;
10002dd2:	9e12      	ldr	r6, [sp, #72]	; 0x48
			if (precision >= 0) {
10002dd4:	2b00      	cmp	r3, #0
10002dd6:	db37      	blt.n	10002e48 <z_cbvprintf_impl+0x594>
				len = strnlen(bps, precision);
10002dd8:	0019      	movs	r1, r3
10002dda:	0030      	movs	r0, r6
10002ddc:	f002 fded 	bl	100059ba <strnlen>
			bpe = bps + len;
10002de0:	1833      	adds	r3, r6, r0
		char sign = 0;
10002de2:	2500      	movs	r5, #0
			bpe = bps + len;
10002de4:	9306      	str	r3, [sp, #24]
		if (bps == NULL) {
10002de6:	2e00      	cmp	r6, #0
10002de8:	d100      	bne.n	10002dec <z_cbvprintf_impl+0x538>
10002dea:	e761      	b.n	10002cb0 <z_cbvprintf_impl+0x3fc>
		if (conv->altform_0c) {
10002dec:	ab12      	add	r3, sp, #72	; 0x48
10002dee:	7a9b      	ldrb	r3, [r3, #10]
10002df0:	2210      	movs	r2, #16
10002df2:	0019      	movs	r1, r3
10002df4:	4011      	ands	r1, r2
10002df6:	910b      	str	r1, [sp, #44]	; 0x2c
10002df8:	4213      	tst	r3, r2
10002dfa:	d100      	bne.n	10002dfe <z_cbvprintf_impl+0x54a>
10002dfc:	e085      	b.n	10002f0a <z_cbvprintf_impl+0x656>
			nj_len += 2U;
10002dfe:	3002      	adds	r0, #2
		nj_len += conv->pad0_value;
10002e00:	9a15      	ldr	r2, [sp, #84]	; 0x54
10002e02:	920a      	str	r2, [sp, #40]	; 0x28
10002e04:	1880      	adds	r0, r0, r2
		if (conv->pad_fp) {
10002e06:	065b      	lsls	r3, r3, #25
10002e08:	d501      	bpl.n	10002e0e <z_cbvprintf_impl+0x55a>
			nj_len += conv->pad0_pre_exp;
10002e0a:	9b16      	ldr	r3, [sp, #88]	; 0x58
10002e0c:	18c0      	adds	r0, r0, r3
		if (width > 0) {
10002e0e:	9b03      	ldr	r3, [sp, #12]
10002e10:	2b00      	cmp	r3, #0
10002e12:	dc00      	bgt.n	10002e16 <z_cbvprintf_impl+0x562>
10002e14:	e094      	b.n	10002f40 <z_cbvprintf_impl+0x68c>
			width -= (int)nj_len;
10002e16:	1a1b      	subs	r3, r3, r0
10002e18:	9303      	str	r3, [sp, #12]
			if (!conv->flag_dash) {
10002e1a:	ab12      	add	r3, sp, #72	; 0x48
10002e1c:	7a1b      	ldrb	r3, [r3, #8]
10002e1e:	075a      	lsls	r2, r3, #29
10002e20:	0fd1      	lsrs	r1, r2, #31
10002e22:	9108      	str	r1, [sp, #32]
10002e24:	2a00      	cmp	r2, #0
10002e26:	da00      	bge.n	10002e2a <z_cbvprintf_impl+0x576>
10002e28:	e08a      	b.n	10002f40 <z_cbvprintf_impl+0x68c>
				if (conv->flag_zero) {
10002e2a:	065b      	lsls	r3, r3, #25
10002e2c:	d400      	bmi.n	10002e30 <z_cbvprintf_impl+0x57c>
10002e2e:	e078      	b.n	10002f22 <z_cbvprintf_impl+0x66e>
					if (sign != 0) {
10002e30:	2d00      	cmp	r5, #0
10002e32:	d007      	beq.n	10002e44 <z_cbvprintf_impl+0x590>
						OUTC(sign);
10002e34:	0028      	movs	r0, r5
10002e36:	9905      	ldr	r1, [sp, #20]
10002e38:	9b04      	ldr	r3, [sp, #16]
10002e3a:	4798      	blx	r3
10002e3c:	2800      	cmp	r0, #0
10002e3e:	db6e      	blt.n	10002f1e <z_cbvprintf_impl+0x66a>
10002e40:	9d08      	ldr	r5, [sp, #32]
10002e42:	3701      	adds	r7, #1
					pad = '0';
10002e44:	2330      	movs	r3, #48	; 0x30
10002e46:	e06d      	b.n	10002f24 <z_cbvprintf_impl+0x670>
				len = strlen(bps);
10002e48:	0030      	movs	r0, r6
10002e4a:	f002 fdae 	bl	100059aa <strlen>
10002e4e:	e7c7      	b.n	10002de0 <z_cbvprintf_impl+0x52c>
			bpe = buf + 1;
10002e50:	2309      	movs	r3, #9
			buf[0] = CHAR_IS_SIGNED ? value->sint : value->uint;
10002e52:	9a12      	ldr	r2, [sp, #72]	; 0x48
10002e54:	ae0c      	add	r6, sp, #48	; 0x30
10002e56:	7032      	strb	r2, [r6, #0]
			bpe = buf + 1;
10002e58:	aa0a      	add	r2, sp, #40	; 0x28
10002e5a:	189b      	adds	r3, r3, r2
		char sign = 0;
10002e5c:	2500      	movs	r5, #0
		size_t nj_len = (bpe - bps);
10002e5e:	2001      	movs	r0, #1
			bpe = buf + 1;
10002e60:	9306      	str	r3, [sp, #24]
10002e62:	e7c3      	b.n	10002dec <z_cbvprintf_impl+0x538>
				sign = '+';
10002e64:	252b      	movs	r5, #43	; 0x2b
			if (conv->flag_plus) {
10002e66:	071a      	lsls	r2, r3, #28
10002e68:	d402      	bmi.n	10002e70 <z_cbvprintf_impl+0x5bc>
			} else if (conv->flag_space) {
10002e6a:	06db      	lsls	r3, r3, #27
10002e6c:	0fdb      	lsrs	r3, r3, #31
10002e6e:	015d      	lsls	r5, r3, #5
			sint = value->sint;
10002e70:	9a12      	ldr	r2, [sp, #72]	; 0x48
10002e72:	9b13      	ldr	r3, [sp, #76]	; 0x4c
			if (sint < 0) {
10002e74:	2b00      	cmp	r3, #0
10002e76:	db00      	blt.n	10002e7a <z_cbvprintf_impl+0x5c6>
10002e78:	e760      	b.n	10002d3c <z_cbvprintf_impl+0x488>
				value->uint = (uint_value_type)-sint;
10002e7a:	2100      	movs	r1, #0
10002e7c:	4250      	negs	r0, r2
10002e7e:	4199      	sbcs	r1, r3
				sign = '-';
10002e80:	252d      	movs	r5, #45	; 0x2d
				value->uint = (uint_value_type)-sint;
10002e82:	9012      	str	r0, [sp, #72]	; 0x48
10002e84:	9113      	str	r1, [sp, #76]	; 0x4c
10002e86:	e759      	b.n	10002d3c <z_cbvprintf_impl+0x488>
		switch (conv->specifier) {
10002e88:	2500      	movs	r5, #0
10002e8a:	e757      	b.n	10002d3c <z_cbvprintf_impl+0x488>
			if (value->ptr != NULL) {
10002e8c:	9812      	ldr	r0, [sp, #72]	; 0x48
10002e8e:	ad12      	add	r5, sp, #72	; 0x48
10002e90:	2800      	cmp	r0, #0
10002e92:	d034      	beq.n	10002efe <z_cbvprintf_impl+0x64a>
				bps = encode_uint((uintptr_t)value->ptr, conv,
10002e94:	231e      	movs	r3, #30
10002e96:	aa0a      	add	r2, sp, #40	; 0x28
10002e98:	189b      	adds	r3, r3, r2
10002e9a:	9300      	str	r3, [sp, #0]
10002e9c:	aa14      	add	r2, sp, #80	; 0x50
10002e9e:	ab0c      	add	r3, sp, #48	; 0x30
10002ea0:	2100      	movs	r1, #0
10002ea2:	f002 fc73 	bl	1000578c <encode_uint>
				conv->altform_0c = true;
10002ea6:	23ef      	movs	r3, #239	; 0xef
10002ea8:	896a      	ldrh	r2, [r5, #10]
				bps = encode_uint((uintptr_t)value->ptr, conv,
10002eaa:	0006      	movs	r6, r0
				conv->altform_0c = true;
10002eac:	401a      	ands	r2, r3
10002eae:	4b48      	ldr	r3, [pc, #288]	; (10002fd0 <z_cbvprintf_impl+0x71c>)
10002eb0:	4313      	orrs	r3, r2
10002eb2:	816b      	strh	r3, [r5, #10]
		char sign = 0;
10002eb4:	2500      	movs	r5, #0
			if (precision >= 0) {
10002eb6:	9b06      	ldr	r3, [sp, #24]
10002eb8:	42ab      	cmp	r3, r5
10002eba:	db00      	blt.n	10002ebe <z_cbvprintf_impl+0x60a>
10002ebc:	e74c      	b.n	10002d58 <z_cbvprintf_impl+0x4a4>
		if (bps == NULL) {
10002ebe:	42a8      	cmp	r0, r5
10002ec0:	d100      	bne.n	10002ec4 <z_cbvprintf_impl+0x610>
10002ec2:	e6f5      	b.n	10002cb0 <z_cbvprintf_impl+0x3fc>
		size_t nj_len = (bpe - bps);
10002ec4:	231e      	movs	r3, #30
10002ec6:	aa0a      	add	r2, sp, #40	; 0x28
10002ec8:	189b      	adds	r3, r3, r2
10002eca:	1a18      	subs	r0, r3, r0
10002ecc:	231e      	movs	r3, #30
10002ece:	189b      	adds	r3, r3, r2
10002ed0:	9306      	str	r3, [sp, #24]
10002ed2:	e78b      	b.n	10002dec <z_cbvprintf_impl+0x538>
				store_count(conv, value->ptr, count);
10002ed4:	9b12      	ldr	r3, [sp, #72]	; 0x48
	switch ((enum length_mod_enum)conv->length_mod) {
10002ed6:	2a07      	cmp	r2, #7
10002ed8:	d900      	bls.n	10002edc <z_cbvprintf_impl+0x628>
10002eda:	e6e9      	b.n	10002cb0 <z_cbvprintf_impl+0x3fc>
10002edc:	0010      	movs	r0, r2
10002ede:	f7fd f963 	bl	100001a8 <__gnu_thumb1_case_uqi>
10002ee2:	040c      	.short	0x040c
10002ee4:	08080c06 	.word	0x08080c06
10002ee8:	0c0c      	.short	0x0c0c
		*(signed char *)dp = (signed char)count;
10002eea:	701f      	strb	r7, [r3, #0]
		if (bps == NULL) {
10002eec:	e6e0      	b.n	10002cb0 <z_cbvprintf_impl+0x3fc>
		*(short *)dp = (short)count;
10002eee:	801f      	strh	r7, [r3, #0]
		if (bps == NULL) {
10002ef0:	e6de      	b.n	10002cb0 <z_cbvprintf_impl+0x3fc>
		*(intmax_t *)dp = (intmax_t)count;
10002ef2:	17fa      	asrs	r2, r7, #31
10002ef4:	601f      	str	r7, [r3, #0]
10002ef6:	605a      	str	r2, [r3, #4]
		if (bps == NULL) {
10002ef8:	e6da      	b.n	10002cb0 <z_cbvprintf_impl+0x3fc>
		*(ptrdiff_t *)dp = (ptrdiff_t)count;
10002efa:	601f      	str	r7, [r3, #0]
		if (bps == NULL) {
10002efc:	e6d8      	b.n	10002cb0 <z_cbvprintf_impl+0x3fc>
			bpe = bps + 5;
10002efe:	4b35      	ldr	r3, [pc, #212]	; (10002fd4 <z_cbvprintf_impl+0x720>)
		char sign = 0;
10002f00:	0005      	movs	r5, r0
10002f02:	4e35      	ldr	r6, [pc, #212]	; (10002fd8 <z_cbvprintf_impl+0x724>)
		size_t nj_len = (bpe - bps);
10002f04:	2005      	movs	r0, #5
			bpe = bps + 5;
10002f06:	9306      	str	r3, [sp, #24]
10002f08:	e770      	b.n	10002dec <z_cbvprintf_impl+0x538>
		} else if (conv->altform_0) {
10002f0a:	071a      	lsls	r2, r3, #28
			nj_len += 1U;
10002f0c:	0fd2      	lsrs	r2, r2, #31
10002f0e:	1880      	adds	r0, r0, r2
10002f10:	e776      	b.n	10002e00 <z_cbvprintf_impl+0x54c>
					OUTC(pad);
10002f12:	9905      	ldr	r1, [sp, #20]
10002f14:	9809      	ldr	r0, [sp, #36]	; 0x24
10002f16:	9b04      	ldr	r3, [sp, #16]
10002f18:	4798      	blx	r3
10002f1a:	2800      	cmp	r0, #0
10002f1c:	da05      	bge.n	10002f2a <z_cbvprintf_impl+0x676>
#undef OUTS
#undef OUTC
}
10002f1e:	b019      	add	sp, #100	; 0x64
10002f20:	bdf0      	pop	{r4, r5, r6, r7, pc}
				char pad = ' ';
10002f22:	2320      	movs	r3, #32
					pad = '0';
10002f24:	9309      	str	r3, [sp, #36]	; 0x24
10002f26:	9b03      	ldr	r3, [sp, #12]
10002f28:	9308      	str	r3, [sp, #32]
				while (width-- > 0) {
10002f2a:	9b08      	ldr	r3, [sp, #32]
10002f2c:	001a      	movs	r2, r3
10002f2e:	3a01      	subs	r2, #1
10002f30:	9208      	str	r2, [sp, #32]
10002f32:	2b00      	cmp	r3, #0
10002f34:	dced      	bgt.n	10002f12 <z_cbvprintf_impl+0x65e>
10002f36:	9a03      	ldr	r2, [sp, #12]
10002f38:	19d7      	adds	r7, r2, r7
10002f3a:	1aff      	subs	r7, r7, r3
10002f3c:	9b08      	ldr	r3, [sp, #32]
10002f3e:	9303      	str	r3, [sp, #12]
		if (sign != 0) {
10002f40:	2d00      	cmp	r5, #0
10002f42:	d006      	beq.n	10002f52 <z_cbvprintf_impl+0x69e>
			OUTC(sign);
10002f44:	0028      	movs	r0, r5
10002f46:	9905      	ldr	r1, [sp, #20]
10002f48:	9b04      	ldr	r3, [sp, #16]
10002f4a:	4798      	blx	r3
10002f4c:	2800      	cmp	r0, #0
10002f4e:	dbe6      	blt.n	10002f1e <z_cbvprintf_impl+0x66a>
10002f50:	3701      	adds	r7, #1
			if (conv->altform_0c | conv->altform_0) {
10002f52:	ab12      	add	r3, sp, #72	; 0x48
10002f54:	7a9b      	ldrb	r3, [r3, #10]
10002f56:	06da      	lsls	r2, r3, #27
10002f58:	d401      	bmi.n	10002f5e <z_cbvprintf_impl+0x6aa>
10002f5a:	071b      	lsls	r3, r3, #28
10002f5c:	d506      	bpl.n	10002f6c <z_cbvprintf_impl+0x6b8>
				OUTC('0');
10002f5e:	2030      	movs	r0, #48	; 0x30
10002f60:	9905      	ldr	r1, [sp, #20]
10002f62:	9b04      	ldr	r3, [sp, #16]
10002f64:	4798      	blx	r3
10002f66:	2800      	cmp	r0, #0
10002f68:	dbd9      	blt.n	10002f1e <z_cbvprintf_impl+0x66a>
10002f6a:	3701      	adds	r7, #1
			if (conv->altform_0c) {
10002f6c:	9b0b      	ldr	r3, [sp, #44]	; 0x2c
10002f6e:	2b00      	cmp	r3, #0
10002f70:	d007      	beq.n	10002f82 <z_cbvprintf_impl+0x6ce>
				OUTC(conv->specifier);
10002f72:	ab12      	add	r3, sp, #72	; 0x48
10002f74:	7ad8      	ldrb	r0, [r3, #11]
10002f76:	9905      	ldr	r1, [sp, #20]
10002f78:	9b04      	ldr	r3, [sp, #16]
10002f7a:	4798      	blx	r3
10002f7c:	2800      	cmp	r0, #0
10002f7e:	dbce      	blt.n	10002f1e <z_cbvprintf_impl+0x66a>
10002f80:	3701      	adds	r7, #1
				while (width-- > 0) {
10002f82:	003d      	movs	r5, r7
10002f84:	e006      	b.n	10002f94 <z_cbvprintf_impl+0x6e0>
				OUTC('0');
10002f86:	2030      	movs	r0, #48	; 0x30
10002f88:	9905      	ldr	r1, [sp, #20]
10002f8a:	9b04      	ldr	r3, [sp, #16]
10002f8c:	4798      	blx	r3
10002f8e:	2800      	cmp	r0, #0
10002f90:	dbc5      	blt.n	10002f1e <z_cbvprintf_impl+0x66a>
10002f92:	3501      	adds	r5, #1
			while (pad_len-- > 0) {
10002f94:	9b0a      	ldr	r3, [sp, #40]	; 0x28
10002f96:	19db      	adds	r3, r3, r7
10002f98:	1b5b      	subs	r3, r3, r5
10002f9a:	2b00      	cmp	r3, #0
10002f9c:	dcf3      	bgt.n	10002f86 <z_cbvprintf_impl+0x6d2>
			OUTS(bps, bpe);
10002f9e:	0032      	movs	r2, r6
10002fa0:	9b06      	ldr	r3, [sp, #24]
10002fa2:	9905      	ldr	r1, [sp, #20]
10002fa4:	9804      	ldr	r0, [sp, #16]
10002fa6:	f002 fc3e 	bl	10005826 <outs>
10002faa:	2800      	cmp	r0, #0
10002fac:	dbb7      	blt.n	10002f1e <z_cbvprintf_impl+0x66a>
10002fae:	1947      	adds	r7, r0, r5
10002fb0:	003d      	movs	r5, r7
		while (width > 0) {
10002fb2:	9b03      	ldr	r3, [sp, #12]
10002fb4:	195b      	adds	r3, r3, r5
10002fb6:	1bdb      	subs	r3, r3, r7
10002fb8:	2b00      	cmp	r3, #0
10002fba:	dc00      	bgt.n	10002fbe <z_cbvprintf_impl+0x70a>
10002fbc:	e678      	b.n	10002cb0 <z_cbvprintf_impl+0x3fc>
			OUTC(' ');
10002fbe:	2020      	movs	r0, #32
10002fc0:	9905      	ldr	r1, [sp, #20]
10002fc2:	9b04      	ldr	r3, [sp, #16]
10002fc4:	4798      	blx	r3
10002fc6:	2800      	cmp	r0, #0
10002fc8:	dba9      	blt.n	10002f1e <z_cbvprintf_impl+0x66a>
10002fca:	3701      	adds	r7, #1
			--width;
10002fcc:	e7f1      	b.n	10002fb2 <z_cbvprintf_impl+0x6fe>
10002fce:	46c0      	nop			; (mov r8, r8)
10002fd0:	00007810 	.word	0x00007810
10002fd4:	100067cd 	.word	0x100067cd
10002fd8:	100067c8 	.word	0x100067c8

10002fdc <z_log_init.isra.0>:
	}

	return mask;
}

static uint32_t z_log_init(bool blocking, bool can_sleep)
10002fdc:	b5f0      	push	{r4, r5, r6, r7, lr}
10002fde:	b085      	sub	sp, #20
10002fe0:	9001      	str	r0, [sp, #4]
		return 0;
	}

	__ASSERT_NO_MSG(log_backend_count_get() < LOG_FILTERS_NUM_OF_SLOTS);

	if (atomic_inc(&initialized) != 0) {
10002fe2:	482f      	ldr	r0, [pc, #188]	; (100030a0 <z_log_init.isra.0+0xc4>)
static uint32_t z_log_init(bool blocking, bool can_sleep)
10002fe4:	9103      	str	r1, [sp, #12]
	if (atomic_inc(&initialized) != 0) {
10002fe6:	f002 fc3f 	bl	10005868 <atomic_inc>
10002fea:	1e06      	subs	r6, r0, #0
10002fec:	d10a      	bne.n	10003004 <z_log_init.isra.0+0x28>
	uint32_t mask = 0;
10002fee:	0004      	movs	r4, r0
			if (log_backend_is_ready(backend) == 0) {
				log_backend_enable(backend,
						   backend->cb->ctx,
						   CONFIG_LOG_MAX_LEVEL);
			} else {
				mask |= BIT(i);
10002ff0:	2701      	movs	r7, #1
	STRUCT_SECTION_FOREACH(log_backend, backend) {
10002ff2:	4d2c      	ldr	r5, [pc, #176]	; (100030a4 <z_log_init.isra.0+0xc8>)
10002ff4:	4b2c      	ldr	r3, [pc, #176]	; (100030a8 <z_log_init.isra.0+0xcc>)
10002ff6:	429d      	cmp	r5, r3
10002ff8:	d306      	bcc.n	10003008 <z_log_init.isra.0+0x2c>
			i++;
		}
	}

	/* If blocking init, wait until all backends are activated. */
	if (blocking) {
10002ffa:	9b01      	ldr	r3, [sp, #4]
10002ffc:	2b00      	cmp	r3, #0
10002ffe:	d001      	beq.n	10003004 <z_log_init.isra.0+0x28>
		while (mask) {
10003000:	2c00      	cmp	r4, #0
10003002:	d11f      	bne.n	10003044 <z_log_init.isra.0+0x68>
			}
		}
	}

	return mask;
}
10003004:	b005      	add	sp, #20
10003006:	bdf0      	pop	{r4, r5, r6, r7, pc}
		if (backend->autostart) {
10003008:	7b2b      	ldrb	r3, [r5, #12]
1000300a:	2b00      	cmp	r3, #0
1000300c:	d010      	beq.n	10003030 <z_log_init.isra.0+0x54>
 * @param[in] backend  Pointer to the backend instance.
 */
static inline void log_backend_init(const struct log_backend *const backend)
{
	__ASSERT_NO_MSG(backend != NULL);
	if (backend->api->init) {
1000300e:	682b      	ldr	r3, [r5, #0]
10003010:	68db      	ldr	r3, [r3, #12]
10003012:	2b00      	cmp	r3, #0
10003014:	d001      	beq.n	1000301a <z_log_init.isra.0+0x3e>
		backend->api->init(backend);
10003016:	0028      	movs	r0, r5
10003018:	4798      	blx	r3
 * @retval -EBUSY if backend is not yet ready.
 */
static inline int log_backend_is_ready(const struct log_backend *const backend)
{
	__ASSERT_NO_MSG(backend != NULL);
	if (backend->api->is_ready != NULL) {
1000301a:	682b      	ldr	r3, [r5, #0]
1000301c:	691b      	ldr	r3, [r3, #16]
1000301e:	2b00      	cmp	r3, #0
10003020:	d108      	bne.n	10003034 <z_log_init.isra.0+0x58>
				log_backend_enable(backend,
10003022:	686b      	ldr	r3, [r5, #4]
10003024:	2204      	movs	r2, #4
10003026:	0028      	movs	r0, r5
10003028:	6819      	ldr	r1, [r3, #0]
1000302a:	f000 f8c5 	bl	100031b8 <log_backend_enable>
			i++;
1000302e:	3601      	adds	r6, #1
	STRUCT_SECTION_FOREACH(log_backend, backend) {
10003030:	3510      	adds	r5, #16
10003032:	e7df      	b.n	10002ff4 <z_log_init.isra.0+0x18>
		return backend->api->is_ready(backend);
10003034:	0028      	movs	r0, r5
10003036:	4798      	blx	r3
			if (log_backend_is_ready(backend) == 0) {
10003038:	2800      	cmp	r0, #0
1000303a:	d0f2      	beq.n	10003022 <z_log_init.isra.0+0x46>
				mask |= BIT(i);
1000303c:	003b      	movs	r3, r7
1000303e:	40b3      	lsls	r3, r6
10003040:	431c      	orrs	r4, r3
10003042:	e7f4      	b.n	1000302e <z_log_init.isra.0+0x52>
10003044:	0027      	movs	r7, r4
		uint32_t i = __builtin_ctz(mask_cpy);
10003046:	0020      	movs	r0, r4
10003048:	f7fd f9ba 	bl	100003c0 <__ctzsi2>
		mask_cpy &= ~BIT(i);
1000304c:	2301      	movs	r3, #1
1000304e:	4083      	lsls	r3, r0
10003050:	43da      	mvns	r2, r3
		if (backend->autostart && (log_backend_is_ready(backend) == 0)) {
10003052:	4e14      	ldr	r6, [pc, #80]	; (100030a4 <z_log_init.isra.0+0xc8>)
10003054:	0105      	lsls	r5, r0, #4
		mask_cpy &= ~BIT(i);
10003056:	439c      	bics	r4, r3
		if (backend->autostart && (log_backend_is_ready(backend) == 0)) {
10003058:	1973      	adds	r3, r6, r5
1000305a:	9301      	str	r3, [sp, #4]
1000305c:	7b1b      	ldrb	r3, [r3, #12]
		mask_cpy &= ~BIT(i);
1000305e:	9202      	str	r2, [sp, #8]
		if (backend->autostart && (log_backend_is_ready(backend) == 0)) {
10003060:	2b00      	cmp	r3, #0
10003062:	d00c      	beq.n	1000307e <z_log_init.isra.0+0xa2>
	if (backend->api->is_ready != NULL) {
10003064:	59ab      	ldr	r3, [r5, r6]
10003066:	691b      	ldr	r3, [r3, #16]
10003068:	2b00      	cmp	r3, #0
1000306a:	d113      	bne.n	10003094 <z_log_init.isra.0+0xb8>
			mask &= ~BIT(i);
1000306c:	9b02      	ldr	r3, [sp, #8]
					   backend->cb->ctx,
1000306e:	1976      	adds	r6, r6, r5
			mask &= ~BIT(i);
10003070:	401f      	ands	r7, r3
			log_backend_enable(backend,
10003072:	6873      	ldr	r3, [r6, #4]
10003074:	2204      	movs	r2, #4
10003076:	6819      	ldr	r1, [r3, #0]
10003078:	9801      	ldr	r0, [sp, #4]
1000307a:	f000 f89d 	bl	100031b8 <log_backend_enable>
	while (mask_cpy) {
1000307e:	2c00      	cmp	r4, #0
10003080:	d1e1      	bne.n	10003046 <z_log_init.isra.0+0x6a>
			if (IS_ENABLED(CONFIG_MULTITHREADING) && can_sleep) {
10003082:	9b03      	ldr	r3, [sp, #12]
10003084:	2b00      	cmp	r3, #0
10003086:	d003      	beq.n	10003090 <z_log_init.isra.0+0xb4>
10003088:	2064      	movs	r0, #100	; 0x64
1000308a:	2100      	movs	r1, #0
1000308c:	f002 f8b8 	bl	10005200 <z_impl_k_sleep>
10003090:	003c      	movs	r4, r7
10003092:	e7b5      	b.n	10003000 <z_log_init.isra.0+0x24>
		return backend->api->is_ready(backend);
10003094:	9801      	ldr	r0, [sp, #4]
10003096:	4798      	blx	r3
		if (backend->autostart && (log_backend_is_ready(backend) == 0)) {
10003098:	2800      	cmp	r0, #0
1000309a:	d1f0      	bne.n	1000307e <z_log_init.isra.0+0xa2>
1000309c:	e7e6      	b.n	1000306c <z_log_init.isra.0+0x90>
1000309e:	46c0      	nop			; (mov r8, r8)
100030a0:	200001f0 	.word	0x200001f0
100030a4:	1000645c 	.word	0x1000645c
100030a8:	1000646c 	.word	0x1000646c

100030ac <log_format_func_t_get>:
	return format_table[log_type];
100030ac:	4b01      	ldr	r3, [pc, #4]	; (100030b4 <log_format_func_t_get+0x8>)
100030ae:	0080      	lsls	r0, r0, #2
100030b0:	58c0      	ldr	r0, [r0, r3]
}
100030b2:	4770      	bx	lr
100030b4:	1000647c 	.word	0x1000647c

100030b8 <log_set_timestamp_func>:
		thread_set(process_tid);
	}
}

int log_set_timestamp_func(log_timestamp_get_t timestamp_getter, uint32_t freq)
{
100030b8:	0003      	movs	r3, r0
100030ba:	b510      	push	{r4, lr}
100030bc:	0008      	movs	r0, r1
	if (timestamp_getter == NULL) {
100030be:	2b00      	cmp	r3, #0
100030c0:	d005      	beq.n	100030ce <log_set_timestamp_func+0x16>
		return -EINVAL;
	}

	timestamp_func = timestamp_getter;
100030c2:	4a04      	ldr	r2, [pc, #16]	; (100030d4 <log_set_timestamp_func+0x1c>)
100030c4:	6013      	str	r3, [r2, #0]
	if (CONFIG_LOG_PROCESSING_LATENCY_US) {
		proc_latency = (freq * CONFIG_LOG_PROCESSING_LATENCY_US) / 1000000;
	}

	if (IS_ENABLED(CONFIG_LOG_OUTPUT)) {
		log_output_timestamp_freq_set(freq);
100030c6:	f000 fa75 	bl	100035b4 <log_output_timestamp_freq_set>
	}

	return 0;
100030ca:	2000      	movs	r0, #0
}
100030cc:	bd10      	pop	{r4, pc}
		return -EINVAL;
100030ce:	2016      	movs	r0, #22
100030d0:	4240      	negs	r0, r0
100030d2:	e7fb      	b.n	100030cc <log_set_timestamp_func+0x14>
100030d4:	200000a4 	.word	0x200000a4

100030d8 <log_core_init>:
	panic_mode = false;
100030d8:	2300      	movs	r3, #0
		log_set_timestamp_func(default_lf_get_timestamp, 1000U);
100030da:	21fa      	movs	r1, #250	; 0xfa
	panic_mode = false;
100030dc:	4a05      	ldr	r2, [pc, #20]	; (100030f4 <log_core_init+0x1c>)
{
100030de:	b510      	push	{r4, lr}
	panic_mode = false;
100030e0:	7013      	strb	r3, [r2, #0]
	dropped_cnt = 0;
100030e2:	4a05      	ldr	r2, [pc, #20]	; (100030f8 <log_core_init+0x20>)
		log_set_timestamp_func(default_lf_get_timestamp, 1000U);
100030e4:	4805      	ldr	r0, [pc, #20]	; (100030fc <log_core_init+0x24>)
	dropped_cnt = 0;
100030e6:	6013      	str	r3, [r2, #0]
	buffered_cnt = 0;
100030e8:	4a05      	ldr	r2, [pc, #20]	; (10003100 <log_core_init+0x28>)
		log_set_timestamp_func(default_lf_get_timestamp, 1000U);
100030ea:	0089      	lsls	r1, r1, #2
	buffered_cnt = 0;
100030ec:	6013      	str	r3, [r2, #0]
		log_set_timestamp_func(default_lf_get_timestamp, 1000U);
100030ee:	f7ff ffe3 	bl	100030b8 <log_set_timestamp_func>
}
100030f2:	bd10      	pop	{r4, pc}
100030f4:	20000298 	.word	0x20000298
100030f8:	200001e8 	.word	0x200001e8
100030fc:	10005859 	.word	0x10005859
10003100:	200001ec 	.word	0x200001ec

10003104 <z_impl_log_panic>:

void z_impl_log_panic(void)
{
10003104:	b570      	push	{r4, r5, r6, lr}
	if (panic_mode) {
10003106:	4d0c      	ldr	r5, [pc, #48]	; (10003138 <z_impl_log_panic+0x34>)
10003108:	7829      	ldrb	r1, [r5, #0]
1000310a:	2900      	cmp	r1, #0
1000310c:	d108      	bne.n	10003120 <z_impl_log_panic+0x1c>
	}

	/* If panic happened early logger might not be initialized.
	 * Forcing initialization of the logger and auto-starting backends.
	 */
	(void)z_log_init(true, false);
1000310e:	2001      	movs	r0, #1
10003110:	f7ff ff64 	bl	10002fdc <z_log_init.isra.0>
		if (IS_ENABLED(CONFIG_LOG_FRONTEND_ONLY)) {
			goto out;
		}
	}

	STRUCT_SECTION_FOREACH(log_backend, backend) {
10003114:	4c09      	ldr	r4, [pc, #36]	; (1000313c <z_impl_log_panic+0x38>)
10003116:	4b0a      	ldr	r3, [pc, #40]	; (10003140 <z_impl_log_panic+0x3c>)
10003118:	429c      	cmp	r4, r3
1000311a:	d302      	bcc.n	10003122 <z_impl_log_panic+0x1e>
		while (log_process() == true) {
		}
	}

out:
	panic_mode = true;
1000311c:	2301      	movs	r3, #1
1000311e:	702b      	strb	r3, [r5, #0]
}
10003120:	bd70      	pop	{r4, r5, r6, pc}
 */
static inline bool log_backend_is_active(
				const struct log_backend *const backend)
{
	__ASSERT_NO_MSG(backend != NULL);
	return backend->cb->active;
10003122:	6863      	ldr	r3, [r4, #4]
		if (log_backend_is_active(backend)) {
10003124:	795b      	ldrb	r3, [r3, #5]
10003126:	2b00      	cmp	r3, #0
10003128:	d003      	beq.n	10003132 <z_impl_log_panic+0x2e>
	backend->api->panic(backend);
1000312a:	6823      	ldr	r3, [r4, #0]
1000312c:	0020      	movs	r0, r4
1000312e:	689b      	ldr	r3, [r3, #8]
10003130:	4798      	blx	r3
	STRUCT_SECTION_FOREACH(log_backend, backend) {
10003132:	3410      	adds	r4, #16
10003134:	e7ef      	b.n	10003116 <z_impl_log_panic+0x12>
10003136:	46c0      	nop			; (mov r8, r8)
10003138:	20000298 	.word	0x20000298
1000313c:	1000645c 	.word	0x1000645c
10003140:	1000646c 	.word	0x1000646c

10003144 <z_log_dropped>:
}
#include <syscalls/log_buffered_cnt_mrsh.c>
#endif

void z_log_dropped(bool buffered)
{
10003144:	b510      	push	{r4, lr}
10003146:	0004      	movs	r4, r0
	atomic_inc(&dropped_cnt);
10003148:	4804      	ldr	r0, [pc, #16]	; (1000315c <z_log_dropped+0x18>)
1000314a:	f002 fb8d 	bl	10005868 <atomic_inc>
	if (buffered) {
1000314e:	2c00      	cmp	r4, #0
10003150:	d003      	beq.n	1000315a <z_log_dropped+0x16>
		union { uintptr_t x; atomic_val_t val; } parm1 = { .val = value };
		return (atomic_val_t) arch_syscall_invoke2(parm0.x, parm1.x, K_SYSCALL_ATOMIC_SUB);
	}
#endif
	compiler_barrier();
	return z_impl_atomic_sub(target, value);
10003152:	2101      	movs	r1, #1
10003154:	4802      	ldr	r0, [pc, #8]	; (10003160 <z_log_dropped+0x1c>)
10003156:	f003 f866 	bl	10006226 <z_impl_atomic_sub>
		atomic_dec(&buffered_cnt);
	}
}
1000315a:	bd10      	pop	{r4, pc}
1000315c:	200001e8 	.word	0x200001e8
10003160:	200001ec 	.word	0x200001ec

10003164 <z_log_msg_commit>:
	mpsc_pbuf_commit(buffer, &m->buf);
	z_log_msg_post_finalize();
}

void z_log_msg_commit(struct log_msg *msg)
{
10003164:	b570      	push	{r4, r5, r6, lr}
	msg->hdr.timestamp = timestamp_func();
10003166:	4b0a      	ldr	r3, [pc, #40]	; (10003190 <z_log_msg_commit+0x2c>)
{
10003168:	0005      	movs	r5, r0
	msg->hdr.timestamp = timestamp_func();
1000316a:	681b      	ldr	r3, [r3, #0]
1000316c:	4798      	blx	r3
	STRUCT_SECTION_FOREACH(log_backend, backend) {
1000316e:	4c09      	ldr	r4, [pc, #36]	; (10003194 <z_log_msg_commit+0x30>)
	msg->hdr.timestamp = timestamp_func();
10003170:	60a8      	str	r0, [r5, #8]
	STRUCT_SECTION_FOREACH(log_backend, backend) {
10003172:	4b09      	ldr	r3, [pc, #36]	; (10003198 <z_log_msg_commit+0x34>)
10003174:	429c      	cmp	r4, r3
10003176:	d300      	bcc.n	1000317a <z_log_msg_commit+0x16>
	msg_commit(&log_buffer, msg);
}
10003178:	bd70      	pop	{r4, r5, r6, pc}
	return backend->cb->active;
1000317a:	6863      	ldr	r3, [r4, #4]
		if (log_backend_is_active(backend) &&
1000317c:	795b      	ldrb	r3, [r3, #5]
1000317e:	2b00      	cmp	r3, #0
10003180:	d004      	beq.n	1000318c <z_log_msg_commit+0x28>
	backend->api->process(backend, msg);
10003182:	6823      	ldr	r3, [r4, #0]
10003184:	0029      	movs	r1, r5
10003186:	0020      	movs	r0, r4
10003188:	681b      	ldr	r3, [r3, #0]
1000318a:	4798      	blx	r3
	STRUCT_SECTION_FOREACH(log_backend, backend) {
1000318c:	3410      	adds	r4, #16
1000318e:	e7f0      	b.n	10003172 <z_log_msg_commit+0xe>
10003190:	200000a4 	.word	0x200000a4
10003194:	1000645c 	.word	0x1000645c
10003198:	1000646c 	.word	0x1000646c

1000319c <log_source_name_get>:
 * @return Source ID.
 */
static inline uint32_t log_const_source_id(
				const struct log_source_const_data *data)
{
	return ((const uint8_t *)data - (uint8_t *)__log_const_start)/
1000319c:	4b04      	ldr	r3, [pc, #16]	; (100031b0 <log_source_name_get+0x14>)
1000319e:	4a05      	ldr	r2, [pc, #20]	; (100031b4 <log_source_name_get+0x18>)
{
	if (z_log_is_local_domain(domain_id)) {
		if (source_id < log_src_cnt_get(domain_id)) {
			return __log_const_start[source_id].name;
		} else {
			return NULL;
100031a0:	2000      	movs	r0, #0
100031a2:	1a9b      	subs	r3, r3, r2
100031a4:	08db      	lsrs	r3, r3, #3
		if (source_id < log_src_cnt_get(domain_id)) {
100031a6:	4299      	cmp	r1, r3
100031a8:	d201      	bcs.n	100031ae <log_source_name_get+0x12>
			return __log_const_start[source_id].name;
100031aa:	00c9      	lsls	r1, r1, #3
100031ac:	5888      	ldr	r0, [r1, r2]
		}
	}

	return link_source_name_get(domain_id, source_id);
}
100031ae:	4770      	bx	lr
100031b0:	1000645c 	.word	0x1000645c
100031b4:	1000641c 	.word	0x1000641c

100031b8 <log_backend_enable>:
			uint32_t level)
{
	/* As first slot in filtering mask is reserved, backend ID has offset.*/
	uint32_t id = LOG_FILTER_FIRST_BACKEND_SLOT_IDX;

	id += backend - log_backend_get(0);
100031b8:	4b08      	ldr	r3, [pc, #32]	; (100031dc <log_backend_enable+0x24>)
{
100031ba:	b510      	push	{r4, lr}
	id += backend - log_backend_get(0);
100031bc:	1ac3      	subs	r3, r0, r3
	backend->cb->id = id;
100031be:	6844      	ldr	r4, [r0, #4]
100031c0:	111b      	asrs	r3, r3, #4
100031c2:	3301      	adds	r3, #1
100031c4:	7123      	strb	r3, [r4, #4]

	log_backend_id_set(backend, id);
	backend->cb->level = level;
100031c6:	6843      	ldr	r3, [r0, #4]
100031c8:	719a      	strb	r2, [r3, #6]
	backend->cb->active = true;
100031ca:	2201      	movs	r2, #1
	backend->cb->ctx = ctx;
100031cc:	6843      	ldr	r3, [r0, #4]
100031ce:	6019      	str	r1, [r3, #0]
	backend->cb->active = true;
100031d0:	6843      	ldr	r3, [r0, #4]
100031d2:	715a      	strb	r2, [r3, #5]
	backend_filter_set(backend, level);
	log_backend_activate(backend, ctx);

	z_log_notify_backend_enabled();
100031d4:	f002 fb61 	bl	1000589a <z_log_notify_backend_enabled>
}
100031d8:	bd10      	pop	{r4, pc}
100031da:	46c0      	nop			; (mov r8, r8)
100031dc:	1000645c 	.word	0x1000645c

100031e0 <z_impl_z_log_msg_runtime_vcreate>:
#endif

void z_impl_z_log_msg_runtime_vcreate(uint8_t domain_id, const void *source,
				uint8_t level, const void *data, size_t dlen,
				uint32_t package_flags, const char *fmt, va_list ap)
{
100031e0:	b5f0      	push	{r4, r5, r6, r7, lr}
100031e2:	0004      	movs	r4, r0
		plen = cbvprintf_package(NULL, Z_LOG_MSG_ALIGN_OFFSET,
					 package_flags, fmt, ap2);
		__ASSERT_NO_MSG(plen >= 0);
		va_end(ap2);
	} else {
		plen = 0;
100031e4:	2000      	movs	r0, #0
{
100031e6:	b087      	sub	sp, #28
100031e8:	af02      	add	r7, sp, #8
100031ea:	607b      	str	r3, [r7, #4]
	if (fmt) {
100031ec:	6b3b      	ldr	r3, [r7, #48]	; 0x30
{
100031ee:	000e      	movs	r6, r1
100031f0:	0015      	movs	r5, r2
	if (fmt) {
100031f2:	4283      	cmp	r3, r0
100031f4:	d007      	beq.n	10003206 <z_impl_z_log_msg_runtime_vcreate+0x26>
		va_copy(ap2, ap);
100031f6:	6b7b      	ldr	r3, [r7, #52]	; 0x34
		plen = cbvprintf_package(NULL, Z_LOG_MSG_ALIGN_OFFSET,
100031f8:	2110      	movs	r1, #16
		va_copy(ap2, ap);
100031fa:	60fb      	str	r3, [r7, #12]
		plen = cbvprintf_package(NULL, Z_LOG_MSG_ALIGN_OFFSET,
100031fc:	9300      	str	r3, [sp, #0]
100031fe:	6b3b      	ldr	r3, [r7, #48]	; 0x30
10003200:	6afa      	ldr	r2, [r7, #44]	; 0x2c
10003202:	f7ff f969 	bl	100024d8 <cbvprintf_package>
	}

	size_t msg_wlen = Z_LOG_MSG_ALIGNED_WLEN(plen, dlen);
	struct log_msg *msg;
	uint8_t *pkg;
	struct log_msg_desc desc =
10003206:	2207      	movs	r2, #7
10003208:	0023      	movs	r3, r4
1000320a:	4015      	ands	r5, r2
1000320c:	4013      	ands	r3, r2
1000320e:	00db      	lsls	r3, r3, #3
10003210:	4915      	ldr	r1, [pc, #84]	; (10003268 <z_impl_z_log_msg_runtime_vcreate+0x88>)
10003212:	01ad      	lsls	r5, r5, #6
10003214:	431d      	orrs	r5, r3
10003216:	0243      	lsls	r3, r0, #9
10003218:	400b      	ands	r3, r1
1000321a:	431d      	orrs	r5, r3
	size_t msg_wlen = Z_LOG_MSG_ALIGNED_WLEN(plen, dlen);
1000321c:	6abc      	ldr	r4, [r7, #40]	; 0x28
	struct log_msg_desc desc =
1000321e:	6abb      	ldr	r3, [r7, #40]	; 0x28
	size_t msg_wlen = Z_LOG_MSG_ALIGNED_WLEN(plen, dlen);
10003220:	3417      	adds	r4, #23
	struct log_msg_desc desc =
10003222:	051b      	lsls	r3, r3, #20
10003224:	431d      	orrs	r5, r3
	size_t msg_wlen = Z_LOG_MSG_ALIGNED_WLEN(plen, dlen);
10003226:	1823      	adds	r3, r4, r0
10003228:	4393      	bics	r3, r2
1000322a:	3303      	adds	r3, #3
			pkg = alloca(plen);
		} else {
			pkg = msg ? msg->data : NULL;
		}
	} else {
		msg = alloca(msg_wlen * sizeof(int));
1000322c:	3a04      	subs	r2, #4
1000322e:	4393      	bics	r3, r2
10003230:	3307      	adds	r3, #7
10003232:	40d3      	lsrs	r3, r2
10003234:	4093      	lsls	r3, r2
10003236:	466a      	mov	r2, sp
10003238:	1ad3      	subs	r3, r2, r3
1000323a:	469d      	mov	sp, r3
		pkg = msg->data;
	}

	if (pkg && fmt) {
1000323c:	6b3b      	ldr	r3, [r7, #48]	; 0x30
		msg = alloca(msg_wlen * sizeof(int));
1000323e:	ac02      	add	r4, sp, #8
	if (pkg && fmt) {
10003240:	2b00      	cmp	r3, #0
10003242:	d008      	beq.n	10003256 <z_impl_z_log_msg_runtime_vcreate+0x76>
		plen = cbvprintf_package(pkg, (size_t)plen, package_flags, fmt, ap);
10003244:	0001      	movs	r1, r0
10003246:	0020      	movs	r0, r4
10003248:	6b7b      	ldr	r3, [r7, #52]	; 0x34
1000324a:	3010      	adds	r0, #16
1000324c:	9300      	str	r3, [sp, #0]
1000324e:	6b3b      	ldr	r3, [r7, #48]	; 0x30
10003250:	6afa      	ldr	r2, [r7, #44]	; 0x2c
10003252:	f7ff f941 	bl	100024d8 <cbvprintf_package>
	if (IS_ENABLED(CONFIG_LOG_FRONTEND)) {
		log_frontend_msg(source, desc, pkg, data);
	}

	if (BACKENDS_IN_USE()) {
		z_log_msg_finalize(msg, source, desc, data);
10003256:	002a      	movs	r2, r5
10003258:	0031      	movs	r1, r6
1000325a:	0020      	movs	r0, r4
1000325c:	687b      	ldr	r3, [r7, #4]
1000325e:	f002 fb1f 	bl	100058a0 <z_log_msg_finalize>
	}
}
10003262:	46bd      	mov	sp, r7
10003264:	b005      	add	sp, #20
10003266:	bdf0      	pop	{r4, r5, r6, r7, pc}
10003268:	000ffe00 	.word	0x000ffe00

1000326c <print_formatted>:
	return 0;
}

static int print_formatted(const struct log_output *output,
			   const char *fmt, ...)
{
1000326c:	b40e      	push	{r1, r2, r3}
1000326e:	b517      	push	{r0, r1, r2, r4, lr}
	va_list args;
	int length = 0;

	va_start(args, fmt);
	length = cbvprintf(out_func, (void *)output, fmt, args);
10003270:	4c05      	ldr	r4, [pc, #20]	; (10003288 <print_formatted+0x1c>)
{
10003272:	ab05      	add	r3, sp, #20
10003274:	cb04      	ldmia	r3!, {r2}
10003276:	0001      	movs	r1, r0
	length = cbvprintf(out_func, (void *)output, fmt, args);
10003278:	0020      	movs	r0, r4
	va_start(args, fmt);
1000327a:	9301      	str	r3, [sp, #4]
	length = cbvprintf(out_func, (void *)output, fmt, args);
1000327c:	f002 fb51 	bl	10005922 <cbvprintf>
	va_end(args);

	return length;
}
10003280:	bc1e      	pop	{r1, r2, r3, r4}
10003282:	bc08      	pop	{r3}
10003284:	b003      	add	sp, #12
10003286:	4718      	bx	r3
10003288:	100058d3 	.word	0x100058d3

1000328c <newline_print>:

	return total;
}

static void newline_print(const struct log_output *ctx, uint32_t flags)
{
1000328c:	b510      	push	{r4, lr}
	if (IS_ENABLED(CONFIG_LOG_BACKEND_NET) &&
	    flags & LOG_OUTPUT_FLAG_FORMAT_SYSLOG) {
		return;
	}

	if ((flags & LOG_OUTPUT_FLAG_CRLF_NONE) != 0U) {
1000328e:	06cb      	lsls	r3, r1, #27
10003290:	d404      	bmi.n	1000329c <newline_print+0x10>
		return;
	}

	if ((flags & LOG_OUTPUT_FLAG_CRLF_LFONLY) != 0U) {
10003292:	0689      	lsls	r1, r1, #26
10003294:	d503      	bpl.n	1000329e <newline_print+0x12>
		print_formatted(ctx, "\n");
10003296:	4903      	ldr	r1, [pc, #12]	; (100032a4 <newline_print+0x18>)
	} else {
		print_formatted(ctx, "\r\n");
10003298:	f7ff ffe8 	bl	1000326c <print_formatted>
	}
}
1000329c:	bd10      	pop	{r4, pc}
		print_formatted(ctx, "\r\n");
1000329e:	4902      	ldr	r1, [pc, #8]	; (100032a8 <newline_print+0x1c>)
100032a0:	e7fa      	b.n	10003298 <newline_print+0xc>
100032a2:	46c0      	nop			; (mov r8, r8)
100032a4:	100067dc 	.word	0x100067dc
100032a8:	100067db 	.word	0x100067db

100032ac <log_output_process>:
			uint8_t level,
			const uint8_t *package,
			const uint8_t *data,
			size_t data_len,
			uint32_t flags)
{
100032ac:	b5f0      	push	{r4, r5, r6, r7, lr}
100032ae:	b08f      	sub	sp, #60	; 0x3c
100032b0:	9306      	str	r3, [sp, #24]
100032b2:	ab14      	add	r3, sp, #80	; 0x50
100032b4:	781b      	ldrb	r3, [r3, #0]
100032b6:	0007      	movs	r7, r0
100032b8:	000c      	movs	r4, r1
100032ba:	9208      	str	r2, [sp, #32]
100032bc:	9305      	str	r3, [sp, #20]
	bool raw_string = (level == LOG_LEVEL_INTERNAL_RAW_STRING);
	uint32_t prefix_offset;
	cbprintf_cb cb;

	if (!raw_string) {
100032be:	2b00      	cmp	r3, #0
100032c0:	d100      	bne.n	100032c4 <log_output_process+0x18>
100032c2:	e09c      	b.n	100033fe <log_output_process+0x152>
	bool stamp = flags & LOG_OUTPUT_FLAG_TIMESTAMP;
100032c4:	2502      	movs	r5, #2
100032c6:	9b18      	ldr	r3, [sp, #96]	; 0x60
	bool colors_on = flags & LOG_OUTPUT_FLAG_COLORS;
100032c8:	9a18      	ldr	r2, [sp, #96]	; 0x60
	bool stamp = flags & LOG_OUTPUT_FLAG_TIMESTAMP;
100032ca:	401d      	ands	r5, r3
	bool colors_on = flags & LOG_OUTPUT_FLAG_COLORS;
100032cc:	2301      	movs	r3, #1
100032ce:	401a      	ands	r2, r3
100032d0:	920a      	str	r2, [sp, #40]	; 0x28
	bool level_on = flags & LOG_OUTPUT_FLAG_LEVEL;
100032d2:	9a18      	ldr	r2, [sp, #96]	; 0x60
100032d4:	3307      	adds	r3, #7
100032d6:	401a      	ands	r2, r3
100032d8:	920b      	str	r2, [sp, #44]	; 0x2c
	uint32_t length = 0U;
100032da:	2600      	movs	r6, #0
	const char *tag = IS_ENABLED(CONFIG_LOG) ? z_log_get_tag() : NULL;
100032dc:	f002 fade 	bl	1000589c <z_log_get_tag>
100032e0:	0002      	movs	r2, r0
	if (tag) {
100032e2:	42b0      	cmp	r0, r6
100032e4:	d004      	beq.n	100032f0 <log_output_process+0x44>
		length += print_formatted(output, "%s ", tag);
100032e6:	0038      	movs	r0, r7
100032e8:	4983      	ldr	r1, [pc, #524]	; (100034f8 <log_output_process+0x24c>)
100032ea:	f7ff ffbf 	bl	1000326c <print_formatted>
100032ee:	0006      	movs	r6, r0
	if (stamp) {
100032f0:	2d00      	cmp	r5, #0
100032f2:	d009      	beq.n	10003308 <log_output_process+0x5c>
		(flags & LOG_OUTPUT_FLAG_FORMAT_SYSLOG) |
100032f4:	2344      	movs	r3, #68	; 0x44
	if (!format) {
100032f6:	9a18      	ldr	r2, [sp, #96]	; 0x60
100032f8:	421a      	tst	r2, r3
100032fa:	d144      	bne.n	10003386 <log_output_process+0xda>
		length = print_formatted(output, "[%08lu] ", timestamp);
100032fc:	0022      	movs	r2, r4
100032fe:	0038      	movs	r0, r7
10003300:	497e      	ldr	r1, [pc, #504]	; (100034fc <log_output_process+0x250>)
10003302:	f7ff ffb3 	bl	1000326c <print_formatted>
		length += timestamp_print(output, flags, timestamp);
10003306:	1836      	adds	r6, r6, r0
	if (color) {
10003308:	9b0a      	ldr	r3, [sp, #40]	; 0x28
1000330a:	2b00      	cmp	r3, #0
1000330c:	d00a      	beq.n	10003324 <log_output_process+0x78>
		const char *log_color = start && (colors[level] != NULL) ?
1000330e:	9a05      	ldr	r2, [sp, #20]
10003310:	4b7b      	ldr	r3, [pc, #492]	; (10003500 <log_output_process+0x254>)
10003312:	0092      	lsls	r2, r2, #2
10003314:	58d2      	ldr	r2, [r2, r3]
10003316:	2a00      	cmp	r2, #0
10003318:	d100      	bne.n	1000331c <log_output_process+0x70>
				colors[level] : LOG_COLOR_CODE_DEFAULT;
1000331a:	4a7a      	ldr	r2, [pc, #488]	; (10003504 <log_output_process+0x258>)
		print_formatted(output, "%s", log_color);
1000331c:	0038      	movs	r0, r7
1000331e:	497a      	ldr	r1, [pc, #488]	; (10003508 <log_output_process+0x25c>)
10003320:	f7ff ffa4 	bl	1000326c <print_formatted>
	int total = 0;
10003324:	2400      	movs	r4, #0
	if (level_on) {
10003326:	9b0b      	ldr	r3, [sp, #44]	; 0x2c
10003328:	42a3      	cmp	r3, r4
1000332a:	d008      	beq.n	1000333e <log_output_process+0x92>
		total += print_formatted(output, "<%s> ", severity[level]);
1000332c:	9a05      	ldr	r2, [sp, #20]
1000332e:	4b77      	ldr	r3, [pc, #476]	; (1000350c <log_output_process+0x260>)
10003330:	0092      	lsls	r2, r2, #2
10003332:	0038      	movs	r0, r7
10003334:	4976      	ldr	r1, [pc, #472]	; (10003510 <log_output_process+0x264>)
10003336:	58d2      	ldr	r2, [r2, r3]
10003338:	f7ff ff98 	bl	1000326c <print_formatted>
1000333c:	0004      	movs	r4, r0
	if (domain) {
1000333e:	9b08      	ldr	r3, [sp, #32]
10003340:	2b00      	cmp	r3, #0
10003342:	d005      	beq.n	10003350 <log_output_process+0xa4>
		total += print_formatted(output, "%s/", domain);
10003344:	001a      	movs	r2, r3
10003346:	0038      	movs	r0, r7
10003348:	4972      	ldr	r1, [pc, #456]	; (10003514 <log_output_process+0x268>)
1000334a:	f7ff ff8f 	bl	1000326c <print_formatted>
1000334e:	1824      	adds	r4, r4, r0
	if (source) {
10003350:	9b06      	ldr	r3, [sp, #24]
10003352:	2b00      	cmp	r3, #0
10003354:	d005      	beq.n	10003362 <log_output_process+0xb6>
		total += print_formatted(output,
10003356:	001a      	movs	r2, r3
10003358:	0038      	movs	r0, r7
1000335a:	496f      	ldr	r1, [pc, #444]	; (10003518 <log_output_process+0x26c>)
1000335c:	f7ff ff86 	bl	1000326c <print_formatted>
10003360:	1824      	adds	r4, r4, r0
		 * appending <CR> to the new line character).
		 */
		cb = ((uintptr_t)source == 1) ? out_func : cr_out_func;
	}

	if (package) {
10003362:	9b15      	ldr	r3, [sp, #84]	; 0x54
		cb = out_func;
10003364:	486d      	ldr	r0, [pc, #436]	; (1000351c <log_output_process+0x270>)
	length += ids_print(output, level_on, func_on, domain, source, level);
10003366:	19a4      	adds	r4, r4, r6
	if (package) {
10003368:	2b00      	cmp	r3, #0
1000336a:	d000      	beq.n	1000336e <log_output_process+0xc2>
1000336c:	e09b      	b.n	100034a6 <log_output_process+0x1fa>

		(void)err;
		__ASSERT_NO_MSG(err >= 0);
	}

	if (data_len) {
1000336e:	9b17      	ldr	r3, [sp, #92]	; 0x5c
10003370:	2b00      	cmp	r3, #0
10003372:	d151      	bne.n	10003418 <log_output_process+0x16c>
	if (color) {
10003374:	9b18      	ldr	r3, [sp, #96]	; 0x60
10003376:	07db      	lsls	r3, r3, #31
10003378:	d500      	bpl.n	1000337c <log_output_process+0xd0>
1000337a:	e0b7      	b.n	100034ec <log_output_process+0x240>
	newline_print(output, flags);
1000337c:	0038      	movs	r0, r7
1000337e:	9918      	ldr	r1, [sp, #96]	; 0x60
10003380:	f7ff ff84 	bl	1000328c <newline_print>
}
10003384:	e09b      	b.n	100034be <log_output_process+0x212>
		length = 0;
10003386:	2000      	movs	r0, #0
	} else if (freq != 0U) {
10003388:	4b65      	ldr	r3, [pc, #404]	; (10003520 <log_output_process+0x274>)
1000338a:	681d      	ldr	r5, [r3, #0]
1000338c:	4285      	cmp	r5, r0
1000338e:	d0ba      	beq.n	10003306 <log_output_process+0x5a>
		timestamp /= timestamp_div;
10003390:	4b64      	ldr	r3, [pc, #400]	; (10003524 <log_output_process+0x278>)
10003392:	0020      	movs	r0, r4
10003394:	6819      	ldr	r1, [r3, #0]
10003396:	f7fc ff1b 	bl	100001d0 <__udivsi3>
1000339a:	0029      	movs	r1, r5
1000339c:	f7fc ff54 	bl	10000248 <__aeabi_uidivmod>
100033a0:	000c      	movs	r4, r1
		seconds -= hours * 3600U;
100033a2:	21e1      	movs	r1, #225	; 0xe1
100033a4:	0109      	lsls	r1, r1, #4
100033a6:	9007      	str	r0, [sp, #28]
100033a8:	f7fc ff4e 	bl	10000248 <__aeabi_uidivmod>
		ms = (remainder * 1000U) / freq;
100033ac:	20fa      	movs	r0, #250	; 0xfa
100033ae:	0080      	lsls	r0, r0, #2
100033b0:	9109      	str	r1, [sp, #36]	; 0x24
100033b2:	4360      	muls	r0, r4
100033b4:	0029      	movs	r1, r5
100033b6:	f7fc ff47 	bl	10000248 <__aeabi_uidivmod>
100033ba:	000c      	movs	r4, r1
				length = print_formatted(output,
100033bc:	900c      	str	r0, [sp, #48]	; 0x30
		mins = seconds / 60U;
100033be:	213c      	movs	r1, #60	; 0x3c
100033c0:	9809      	ldr	r0, [sp, #36]	; 0x24
100033c2:	f7fc ff05 	bl	100001d0 <__udivsi3>
		hours = seconds / 3600U;
100033c6:	21e1      	movs	r1, #225	; 0xe1
		mins = seconds / 60U;
100033c8:	900d      	str	r0, [sp, #52]	; 0x34
		hours = seconds / 3600U;
100033ca:	0109      	lsls	r1, r1, #4
100033cc:	9807      	ldr	r0, [sp, #28]
100033ce:	f7fc feff 	bl	100001d0 <__udivsi3>
100033d2:	9007      	str	r0, [sp, #28]
		us = (1000 * (remainder * 1000U - (ms * freq))) / freq;
100033d4:	20fa      	movs	r0, #250	; 0xfa
100033d6:	0080      	lsls	r0, r0, #2
100033d8:	0029      	movs	r1, r5
100033da:	4360      	muls	r0, r4
100033dc:	f7fc fef8 	bl	100001d0 <__udivsi3>
				length = print_formatted(output,
100033e0:	9b0c      	ldr	r3, [sp, #48]	; 0x30
100033e2:	9002      	str	r0, [sp, #8]
100033e4:	213c      	movs	r1, #60	; 0x3c
100033e6:	9809      	ldr	r0, [sp, #36]	; 0x24
100033e8:	9301      	str	r3, [sp, #4]
100033ea:	f7fc ff2d 	bl	10000248 <__aeabi_uidivmod>
100033ee:	0038      	movs	r0, r7
100033f0:	9100      	str	r1, [sp, #0]
100033f2:	9b0d      	ldr	r3, [sp, #52]	; 0x34
100033f4:	9a07      	ldr	r2, [sp, #28]
100033f6:	494c      	ldr	r1, [pc, #304]	; (10003528 <log_output_process+0x27c>)
100033f8:	f7ff ff38 	bl	1000326c <print_formatted>
100033fc:	e783      	b.n	10003306 <log_output_process+0x5a>
		cb = ((uintptr_t)source == 1) ? out_func : cr_out_func;
100033fe:	9b06      	ldr	r3, [sp, #24]
10003400:	484a      	ldr	r0, [pc, #296]	; (1000352c <log_output_process+0x280>)
10003402:	2b01      	cmp	r3, #1
10003404:	d100      	bne.n	10003408 <log_output_process+0x15c>
10003406:	4845      	ldr	r0, [pc, #276]	; (1000351c <log_output_process+0x270>)
	if (package) {
10003408:	9b15      	ldr	r3, [sp, #84]	; 0x54
		prefix_offset = 0;
1000340a:	9c05      	ldr	r4, [sp, #20]
	if (package) {
1000340c:	2b00      	cmp	r3, #0
1000340e:	d14a      	bne.n	100034a6 <log_output_process+0x1fa>
	if (data_len) {
10003410:	9b17      	ldr	r3, [sp, #92]	; 0x5c
10003412:	2b00      	cmp	r3, #0
10003414:	d053      	beq.n	100034be <log_output_process+0x212>
		prefix_offset = 0;
10003416:	2400      	movs	r4, #0
		length = MIN(len, HEXDUMP_BYTES_IN_LINE);
10003418:	9e17      	ldr	r6, [sp, #92]	; 0x5c
1000341a:	2e10      	cmp	r6, #16
1000341c:	d900      	bls.n	10003420 <log_output_process+0x174>
1000341e:	2610      	movs	r6, #16
	newline_print(output, flags);
10003420:	0038      	movs	r0, r7
10003422:	9918      	ldr	r1, [sp, #96]	; 0x60
10003424:	f7ff ff32 	bl	1000328c <newline_print>
	for (int i = 0; i < prefix_offset; i++) {
10003428:	2500      	movs	r5, #0
1000342a:	42ac      	cmp	r4, r5
1000342c:	dc4c      	bgt.n	100034c8 <log_output_process+0x21c>
			print_formatted(output, "%02x ", data[i]);
1000342e:	9b16      	ldr	r3, [sp, #88]	; 0x58
10003430:	0038      	movs	r0, r7
10003432:	781a      	ldrb	r2, [r3, #0]
10003434:	493e      	ldr	r1, [pc, #248]	; (10003530 <log_output_process+0x284>)
10003436:	f7ff ff19 	bl	1000326c <print_formatted>
	for (int i = 0; i < HEXDUMP_BYTES_IN_LINE; i++) {
1000343a:	2501      	movs	r5, #1
		if (i > 0 && !(i % 8)) {
1000343c:	2307      	movs	r3, #7
1000343e:	421d      	tst	r5, r3
10003440:	d103      	bne.n	1000344a <log_output_process+0x19e>
			print_formatted(output, " ");
10003442:	0038      	movs	r0, r7
10003444:	493b      	ldr	r1, [pc, #236]	; (10003534 <log_output_process+0x288>)
10003446:	f7ff ff11 	bl	1000326c <print_formatted>
		if (i < length) {
1000344a:	42ae      	cmp	r6, r5
1000344c:	d942      	bls.n	100034d4 <log_output_process+0x228>
			print_formatted(output, "%02x ", data[i]);
1000344e:	9b16      	ldr	r3, [sp, #88]	; 0x58
10003450:	0038      	movs	r0, r7
10003452:	5d5a      	ldrb	r2, [r3, r5]
10003454:	4936      	ldr	r1, [pc, #216]	; (10003530 <log_output_process+0x284>)
10003456:	f7ff ff09 	bl	1000326c <print_formatted>
	for (int i = 0; i < HEXDUMP_BYTES_IN_LINE; i++) {
1000345a:	3501      	adds	r5, #1
1000345c:	2d10      	cmp	r5, #16
1000345e:	d1ed      	bne.n	1000343c <log_output_process+0x190>
	for (int i = 0; i < HEXDUMP_BYTES_IN_LINE; i++) {
10003460:	2500      	movs	r5, #0
	print_formatted(output, "|");
10003462:	0038      	movs	r0, r7
10003464:	4934      	ldr	r1, [pc, #208]	; (10003538 <log_output_process+0x28c>)
10003466:	f7ff ff01 	bl	1000326c <print_formatted>
		if (i < length) {
1000346a:	002b      	movs	r3, r5
			unsigned char c = (unsigned char)data[i];
1000346c:	9a16      	ldr	r2, [sp, #88]	; 0x58
1000346e:	5cd2      	ldrb	r2, [r2, r3]
	return (int)((((unsigned)c) >= ' ') &&
10003470:	0013      	movs	r3, r2
10003472:	3b20      	subs	r3, #32
			print_formatted(output, "%c",
10003474:	2b5e      	cmp	r3, #94	; 0x5e
10003476:	d900      	bls.n	1000347a <log_output_process+0x1ce>
10003478:	222e      	movs	r2, #46	; 0x2e
1000347a:	0038      	movs	r0, r7
1000347c:	492f      	ldr	r1, [pc, #188]	; (1000353c <log_output_process+0x290>)
1000347e:	f7ff fef5 	bl	1000326c <print_formatted>
	for (int i = 0; i < HEXDUMP_BYTES_IN_LINE; i++) {
10003482:	3501      	adds	r5, #1
10003484:	2d10      	cmp	r5, #16
10003486:	d02a      	beq.n	100034de <log_output_process+0x232>
		if (i > 0 && !(i % 8)) {
10003488:	2307      	movs	r3, #7
1000348a:	421d      	tst	r5, r3
1000348c:	d103      	bne.n	10003496 <log_output_process+0x1ea>
			print_formatted(output, " ");
1000348e:	0038      	movs	r0, r7
10003490:	4928      	ldr	r1, [pc, #160]	; (10003534 <log_output_process+0x288>)
10003492:	f7ff feeb 	bl	1000326c <print_formatted>
		if (i < length) {
10003496:	002b      	movs	r3, r5
10003498:	42ae      	cmp	r6, r5
1000349a:	d8e7      	bhi.n	1000346c <log_output_process+0x1c0>
			print_formatted(output, " ");
1000349c:	0038      	movs	r0, r7
1000349e:	4925      	ldr	r1, [pc, #148]	; (10003534 <log_output_process+0x288>)
100034a0:	f7ff fee4 	bl	1000326c <print_formatted>
100034a4:	e7ed      	b.n	10003482 <log_output_process+0x1d6>
		return cbpprintf_external(out, cbvprintf_tagged_args,
					  ctx, packaged);
	}
#endif

	return cbpprintf_external(out, cbvprintf, ctx, packaged);
100034a6:	9b15      	ldr	r3, [sp, #84]	; 0x54
100034a8:	003a      	movs	r2, r7
100034aa:	4925      	ldr	r1, [pc, #148]	; (10003540 <log_output_process+0x294>)
100034ac:	f002 f923 	bl	100056f6 <cbpprintf_external>
	if (data_len) {
100034b0:	9b17      	ldr	r3, [sp, #92]	; 0x5c
	} while (len);
100034b2:	2b00      	cmp	r3, #0
100034b4:	d1b0      	bne.n	10003418 <log_output_process+0x16c>
		log_msg_hexdump(output, (uint8_t *)data, data_len, prefix_offset, flags);
	}

	if (!raw_string) {
100034b6:	9b05      	ldr	r3, [sp, #20]
100034b8:	2b00      	cmp	r3, #0
100034ba:	d000      	beq.n	100034be <log_output_process+0x212>
100034bc:	e75a      	b.n	10003374 <log_output_process+0xc8>
		postfix_print(output, flags, level);
	}

	log_output_flush(output);
100034be:	0038      	movs	r0, r7
100034c0:	f002 fa35 	bl	1000592e <log_output_flush>
}
100034c4:	b00f      	add	sp, #60	; 0x3c
100034c6:	bdf0      	pop	{r4, r5, r6, r7, pc}
		print_formatted(output, " ");
100034c8:	0038      	movs	r0, r7
100034ca:	491a      	ldr	r1, [pc, #104]	; (10003534 <log_output_process+0x288>)
100034cc:	f7ff fece 	bl	1000326c <print_formatted>
	for (int i = 0; i < prefix_offset; i++) {
100034d0:	3501      	adds	r5, #1
100034d2:	e7aa      	b.n	1000342a <log_output_process+0x17e>
			print_formatted(output, "   ");
100034d4:	0038      	movs	r0, r7
100034d6:	491b      	ldr	r1, [pc, #108]	; (10003544 <log_output_process+0x298>)
100034d8:	f7ff fec8 	bl	1000326c <print_formatted>
100034dc:	e7bd      	b.n	1000345a <log_output_process+0x1ae>
		data += length;
100034de:	9b16      	ldr	r3, [sp, #88]	; 0x58
100034e0:	199b      	adds	r3, r3, r6
100034e2:	9316      	str	r3, [sp, #88]	; 0x58
		len -= length;
100034e4:	9b17      	ldr	r3, [sp, #92]	; 0x5c
100034e6:	1b9b      	subs	r3, r3, r6
100034e8:	9317      	str	r3, [sp, #92]	; 0x5c
100034ea:	e7e2      	b.n	100034b2 <log_output_process+0x206>
		print_formatted(output, "%s", log_color);
100034ec:	0038      	movs	r0, r7
100034ee:	4a05      	ldr	r2, [pc, #20]	; (10003504 <log_output_process+0x258>)
100034f0:	4905      	ldr	r1, [pc, #20]	; (10003508 <log_output_process+0x25c>)
100034f2:	f7ff febb 	bl	1000326c <print_formatted>
}
100034f6:	e741      	b.n	1000337c <log_output_process+0xd0>
100034f8:	100067e3 	.word	0x100067e3
100034fc:	100067e7 	.word	0x100067e7
10003500:	1000648c 	.word	0x1000648c
10003504:	100067de 	.word	0x100067de
10003508:	1000680c 	.word	0x1000680c
1000350c:	100064a0 	.word	0x100064a0
10003510:	1000680f 	.word	0x1000680f
10003514:	10006815 	.word	0x10006815
10003518:	10006819 	.word	0x10006819
1000351c:	100058d3 	.word	0x100058d3
10003520:	200001f8 	.word	0x200001f8
10003524:	200001f4 	.word	0x200001f4
10003528:	100067f0 	.word	0x100067f0
1000352c:	100058eb 	.word	0x100058eb
10003530:	1000681e 	.word	0x1000681e
10003534:	10006826 	.word	0x10006826
10003538:	10006828 	.word	0x10006828
1000353c:	1000682a 	.word	0x1000682a
10003540:	10005923 	.word	0x10005923
10003544:	10006824 	.word	0x10006824

10003548 <log_output_msg_process>:

void log_output_msg_process(const struct log_output *output,
			    struct log_msg *msg, uint32_t flags)
{
10003548:	b5f0      	push	{r4, r5, r6, r7, lr}
 *
 * @return Log level.
 */
static inline uint8_t log_msg_get_level(struct log_msg *msg)
{
	return msg->hdr.desc.level;
1000354a:	880b      	ldrh	r3, [r1, #0]
1000354c:	b089      	sub	sp, #36	; 0x24
1000354e:	05db      	lsls	r3, r3, #23
10003550:	0f5c      	lsrs	r4, r3, #29
 *
 * @return Pointer to the source data.
 */
static inline const void *log_msg_get_source(struct log_msg *msg)
{
	return msg->hdr.source;
10003552:	684b      	ldr	r3, [r1, #4]
10003554:	000f      	movs	r7, r1
10003556:	0015      	movs	r5, r2
 *
 * @return Timestamp.
 */
static inline log_timestamp_t log_msg_get_timestamp(struct log_msg *msg)
{
	return msg->hdr.timestamp;
10003558:	688e      	ldr	r6, [r1, #8]
1000355a:	9007      	str	r0, [sp, #28]
		/* Remote domain is converting source pointer to ID */
		source_id = (int16_t)(uintptr_t)log_msg_get_source(msg);
	} else {
		void *source = (void *)log_msg_get_source(msg);

		if (source != NULL) {
1000355c:	2b00      	cmp	r3, #0
1000355e:	d00c      	beq.n	1000357a <log_output_msg_process+0x32>
10003560:	4a13      	ldr	r2, [pc, #76]	; (100035b0 <log_output_msg_process+0x68>)
10003562:	1a9a      	subs	r2, r3, r2
10003564:	08d2      	lsrs	r2, r2, #3
		} else {
			source_id = -1;
		}
	}

	const char *sname = source_id >= 0 ? log_source_name_get(domain_id, source_id) : NULL;
10003566:	2300      	movs	r3, #0
			source_id = IS_ENABLED(CONFIG_LOG_RUNTIME_FILTERING) ?
10003568:	b211      	sxth	r1, r2
	const char *sname = source_id >= 0 ? log_source_name_get(domain_id, source_id) : NULL;
1000356a:	0412      	lsls	r2, r2, #16
1000356c:	d405      	bmi.n	1000357a <log_output_msg_process+0x32>
	return msg->hdr.desc.domain;
1000356e:	7838      	ldrb	r0, [r7, #0]
10003570:	0680      	lsls	r0, r0, #26
10003572:	0f40      	lsrs	r0, r0, #29
10003574:	f7ff fe12 	bl	1000319c <log_source_name_get>
10003578:	0003      	movs	r3, r0
 */
static inline uint8_t *log_msg_get_package(struct log_msg *msg, size_t *len)
{
	*len = msg->hdr.desc.package_len;

	return msg->data;
1000357a:	003a      	movs	r2, r7
	*len = msg->hdr.desc.package_len;
1000357c:	6839      	ldr	r1, [r7, #0]
	*len = msg->hdr.desc.data_len;
1000357e:	8878      	ldrh	r0, [r7, #2]
	*len = msg->hdr.desc.package_len;
10003580:	0309      	lsls	r1, r1, #12
	*len = msg->hdr.desc.data_len;
10003582:	0900      	lsrs	r0, r0, #4
	*len = msg->hdr.desc.package_len;
10003584:	0d49      	lsrs	r1, r1, #21
	return msg->data;
10003586:	3210      	adds	r2, #16
	*len = msg->hdr.desc.data_len;
10003588:	4684      	mov	ip, r0
	return msg->data + msg->hdr.desc.package_len;
1000358a:	1857      	adds	r7, r2, r1
	size_t plen, dlen;
	uint8_t *package = log_msg_get_package(msg, &plen);
	uint8_t *data = log_msg_get_data(msg, &dlen);

	log_output_process(output, timestamp, NULL, sname, level,
1000358c:	1e48      	subs	r0, r1, #1
1000358e:	4181      	sbcs	r1, r0
10003590:	4249      	negs	r1, r1
10003592:	400a      	ands	r2, r1
10003594:	4661      	mov	r1, ip
10003596:	9201      	str	r2, [sp, #4]
10003598:	9103      	str	r1, [sp, #12]
1000359a:	2200      	movs	r2, #0
1000359c:	0031      	movs	r1, r6
1000359e:	9807      	ldr	r0, [sp, #28]
100035a0:	9504      	str	r5, [sp, #16]
100035a2:	9702      	str	r7, [sp, #8]
100035a4:	9400      	str	r4, [sp, #0]
100035a6:	f7ff fe81 	bl	100032ac <log_output_process>
			   plen > 0 ? package : NULL, data, dlen, flags);
}
100035aa:	b009      	add	sp, #36	; 0x24
100035ac:	bdf0      	pop	{r4, r5, r6, r7, pc}
100035ae:	46c0      	nop			; (mov r8, r8)
100035b0:	1000641c 	.word	0x1000641c

100035b4 <log_output_timestamp_freq_set>:
{
	timestamp_div = 1U;
	/* There is no point to have frequency higher than 1MHz (ns are not
	 * printed) and too high frequency leads to overflows in calculations.
	 */
	while (frequency > 1000000) {
100035b4:	2301      	movs	r3, #1
{
100035b6:	b510      	push	{r4, lr}
	while (frequency > 1000000) {
100035b8:	2100      	movs	r1, #0
		frequency /= 2U;
		timestamp_div *= 2U;
100035ba:	001c      	movs	r4, r3
	while (frequency > 1000000) {
100035bc:	4a07      	ldr	r2, [pc, #28]	; (100035dc <log_output_timestamp_freq_set+0x28>)
100035be:	4290      	cmp	r0, r2
100035c0:	d807      	bhi.n	100035d2 <log_output_timestamp_freq_set+0x1e>
100035c2:	4a07      	ldr	r2, [pc, #28]	; (100035e0 <log_output_timestamp_freq_set+0x2c>)
100035c4:	2900      	cmp	r1, #0
100035c6:	d100      	bne.n	100035ca <log_output_timestamp_freq_set+0x16>
	timestamp_div = 1U;
100035c8:	2301      	movs	r3, #1
	}

	freq = frequency;
}
100035ca:	6013      	str	r3, [r2, #0]
	freq = frequency;
100035cc:	4b05      	ldr	r3, [pc, #20]	; (100035e4 <log_output_timestamp_freq_set+0x30>)
100035ce:	6018      	str	r0, [r3, #0]
}
100035d0:	bd10      	pop	{r4, pc}
		timestamp_div *= 2U;
100035d2:	0021      	movs	r1, r4
		frequency /= 2U;
100035d4:	0840      	lsrs	r0, r0, #1
		timestamp_div *= 2U;
100035d6:	005b      	lsls	r3, r3, #1
100035d8:	e7f1      	b.n	100035be <log_output_timestamp_freq_set+0xa>
100035da:	46c0      	nop			; (mov r8, r8)
100035dc:	000f4240 	.word	0x000f4240
100035e0:	200001f4 	.word	0x200001f4
100035e4:	200001f8 	.word	0x200001f8

100035e8 <format_set>:
	log_output_func(&log_output_uart, &msg->log, flags);
}

static int format_set(const struct log_backend *const backend, uint32_t log_type)
{
	log_format_current = log_type;
100035e8:	4b01      	ldr	r3, [pc, #4]	; (100035f0 <format_set+0x8>)
	return 0;
}
100035ea:	2000      	movs	r0, #0
	log_format_current = log_type;
100035ec:	6019      	str	r1, [r3, #0]
}
100035ee:	4770      	bx	lr
100035f0:	20000210 	.word	0x20000210

100035f4 <panic>:
	if ((rc == 0) && (pm_state == PM_DEVICE_STATE_SUSPENDED)) {
		pm_device_action_run(uart_dev, PM_DEVICE_ACTION_RESUME);
	}
#endif /* CONFIG_PM_DEVICE */

	in_panic = true;
100035f4:	2201      	movs	r2, #1
{
100035f6:	b510      	push	{r4, lr}
	in_panic = true;
100035f8:	4b02      	ldr	r3, [pc, #8]	; (10003604 <panic+0x10>)
 * @param output	Log output instance.
 */
static inline void
log_backend_std_panic(const struct log_output *const output)
{
	log_output_flush(output);
100035fa:	4803      	ldr	r0, [pc, #12]	; (10003608 <panic+0x14>)
100035fc:	701a      	strb	r2, [r3, #0]
100035fe:	f002 f996 	bl	1000592e <log_output_flush>
	log_backend_std_panic(&log_output_uart);
}
10003602:	bd10      	pop	{r4, pc}
10003604:	2000029a 	.word	0x2000029a
10003608:	100064d0 	.word	0x100064d0

1000360c <process>:
{
1000360c:	b510      	push	{r4, lr}
	log_format_func_t log_output_func = log_format_func_t_get(log_format_current);
1000360e:	4b05      	ldr	r3, [pc, #20]	; (10003624 <process+0x18>)
{
10003610:	000c      	movs	r4, r1
	log_format_func_t log_output_func = log_format_func_t_get(log_format_current);
10003612:	6818      	ldr	r0, [r3, #0]
10003614:	f7ff fd4a 	bl	100030ac <log_format_func_t_get>
	log_output_func(&log_output_uart, &msg->log, flags);
10003618:	220f      	movs	r2, #15
	log_format_func_t log_output_func = log_format_func_t_get(log_format_current);
1000361a:	0003      	movs	r3, r0
	log_output_func(&log_output_uart, &msg->log, flags);
1000361c:	0021      	movs	r1, r4
1000361e:	4802      	ldr	r0, [pc, #8]	; (10003628 <process+0x1c>)
10003620:	4798      	blx	r3
}
10003622:	bd10      	pop	{r4, pc}
10003624:	20000210 	.word	0x20000210
10003628:	100064d0 	.word	0x100064d0

1000362c <char_out>:
{
1000362c:	b570      	push	{r4, r5, r6, lr}
1000362e:	000d      	movs	r5, r1
10003630:	0004      	movs	r4, r0
10003632:	1846      	adds	r6, r0, r1
		for (size_t i = 0; i < length; i++) {
10003634:	42b4      	cmp	r4, r6
10003636:	d101      	bne.n	1000363c <char_out+0x10>
}
10003638:	0028      	movs	r0, r5
1000363a:	bd70      	pop	{r4, r5, r6, pc}
			uart_poll_out(uart_dev, data[i]);
1000363c:	7821      	ldrb	r1, [r4, #0]
					unsigned char out_char)
{
	const struct uart_driver_api *api =
		(const struct uart_driver_api *)dev->api;

	api->poll_out(dev, out_char);
1000363e:	4803      	ldr	r0, [pc, #12]	; (1000364c <char_out+0x20>)
10003640:	3401      	adds	r4, #1
10003642:	6883      	ldr	r3, [r0, #8]
10003644:	685b      	ldr	r3, [r3, #4]
10003646:	4798      	blx	r3
		for (size_t i = 0; i < length; i++) {
10003648:	e7f4      	b.n	10003634 <char_out+0x8>
1000364a:	46c0      	nop			; (mov r8, r8)
1000364c:	100062c0 	.word	0x100062c0

10003650 <z_arm_cpu_idle_init>:
 * void z_arm_cpu_idle_init(void);
 */

SECTION_FUNC(TEXT, z_arm_cpu_idle_init)
#if defined(CONFIG_CPU_CORTEX_M)
	ldr	r1, =_SCB_SCR
10003650:	4901      	ldr	r1, [pc, #4]	; (10003658 <z_arm_cpu_idle_init+0x8>)
	movs.n	r2, #_SCR_INIT_BITS
10003652:	2210      	movs	r2, #16
	str	r2, [r1]
10003654:	600a      	str	r2, [r1, #0]
#endif
	bx	lr
10003656:	4770      	bx	lr
	ldr	r1, =_SCB_SCR
10003658:	e000ed10 	.word	0xe000ed10

1000365c <arch_cpu_idle>:
	 * (i.e. if the caller sets _kernel.idle).
	 */
#endif /* CONFIG_ARMV7_M_ARMV8_M_MAINLINE */

	/* Enter low power state */
	_sleep_if_allowed wfi
1000365c:	f3bf 8f4f 	dsb	sy
10003660:	bf30      	wfi

	/*
	 * Clear PRIMASK and flush instruction buffer to immediately service
	 * the wake-up interrupt.
	 */
	cpsie	i
10003662:	b662      	cpsie	i
	isb
10003664:	f3bf 8f6f 	isb	sy

	bx	lr
10003668:	4770      	bx	lr
1000366a:	46c0      	nop			; (mov r8, r8)

1000366c <z_arm_fatal_error>:
	LOG_ERR("Faulting instruction address (r15/pc): 0x%08x",
		esf->basic.pc);
}

void z_arm_fatal_error(unsigned int reason, const z_arch_esf_t *esf)
{
1000366c:	b5f0      	push	{r4, r5, r6, r7, lr}
1000366e:	0007      	movs	r7, r0
10003670:	000d      	movs	r5, r1
10003672:	b087      	sub	sp, #28

	if (esf != NULL) {
10003674:	2900      	cmp	r1, #0
10003676:	d039      	beq.n	100036ec <z_arm_fatal_error+0x80>
	LOG_ERR("r0/a1:  0x%08x  r1/a2:  0x%08x  r2/a3:  0x%08x",
10003678:	2400      	movs	r4, #0
1000367a:	688b      	ldr	r3, [r1, #8]
1000367c:	4e1e      	ldr	r6, [pc, #120]	; (100036f8 <z_arm_fatal_error+0x8c>)
1000367e:	9305      	str	r3, [sp, #20]
10003680:	684b      	ldr	r3, [r1, #4]
10003682:	2201      	movs	r2, #1
10003684:	9304      	str	r3, [sp, #16]
10003686:	680b      	ldr	r3, [r1, #0]
10003688:	0020      	movs	r0, r4
1000368a:	9303      	str	r3, [sp, #12]
1000368c:	4b1b      	ldr	r3, [pc, #108]	; (100036fc <z_arm_fatal_error+0x90>)
1000368e:	0031      	movs	r1, r6
10003690:	9302      	str	r3, [sp, #8]
10003692:	9401      	str	r4, [sp, #4]
10003694:	0023      	movs	r3, r4
10003696:	9400      	str	r4, [sp, #0]
10003698:	f002 f956 	bl	10005948 <z_log_msg_runtime_create.constprop.0>
	LOG_ERR("r3/a4:  0x%08x r12/ip:  0x%08x r14/lr:  0x%08x",
1000369c:	696b      	ldr	r3, [r5, #20]
1000369e:	2201      	movs	r2, #1
100036a0:	9305      	str	r3, [sp, #20]
100036a2:	692b      	ldr	r3, [r5, #16]
100036a4:	0031      	movs	r1, r6
100036a6:	9304      	str	r3, [sp, #16]
100036a8:	68eb      	ldr	r3, [r5, #12]
100036aa:	0020      	movs	r0, r4
100036ac:	9303      	str	r3, [sp, #12]
100036ae:	4b14      	ldr	r3, [pc, #80]	; (10003700 <z_arm_fatal_error+0x94>)
100036b0:	9401      	str	r4, [sp, #4]
100036b2:	9302      	str	r3, [sp, #8]
100036b4:	9400      	str	r4, [sp, #0]
100036b6:	0023      	movs	r3, r4
100036b8:	f002 f946 	bl	10005948 <z_log_msg_runtime_create.constprop.0>
	LOG_ERR(" xpsr:  0x%08x", esf->basic.xpsr);
100036bc:	69eb      	ldr	r3, [r5, #28]
100036be:	2201      	movs	r2, #1
100036c0:	9303      	str	r3, [sp, #12]
100036c2:	4b10      	ldr	r3, [pc, #64]	; (10003704 <z_arm_fatal_error+0x98>)
100036c4:	0031      	movs	r1, r6
100036c6:	0020      	movs	r0, r4
100036c8:	9302      	str	r3, [sp, #8]
100036ca:	9401      	str	r4, [sp, #4]
100036cc:	0023      	movs	r3, r4
100036ce:	9400      	str	r4, [sp, #0]
100036d0:	f002 f93a 	bl	10005948 <z_log_msg_runtime_create.constprop.0>
	LOG_ERR("Faulting instruction address (r15/pc): 0x%08x",
100036d4:	69ab      	ldr	r3, [r5, #24]
100036d6:	2201      	movs	r2, #1
100036d8:	9303      	str	r3, [sp, #12]
100036da:	4b0b      	ldr	r3, [pc, #44]	; (10003708 <z_arm_fatal_error+0x9c>)
100036dc:	0031      	movs	r1, r6
100036de:	9302      	str	r3, [sp, #8]
100036e0:	0020      	movs	r0, r4
100036e2:	0023      	movs	r3, r4
100036e4:	9401      	str	r4, [sp, #4]
100036e6:	9400      	str	r4, [sp, #0]
100036e8:	f002 f92e 	bl	10005948 <z_log_msg_runtime_create.constprop.0>
		esf_dump(esf);
	}
	z_fatal_error(reason, esf);
100036ec:	0029      	movs	r1, r5
100036ee:	0038      	movs	r0, r7
100036f0:	f001 f906 	bl	10004900 <z_fatal_error>
}
100036f4:	b007      	add	sp, #28
100036f6:	bdf0      	pop	{r4, r5, r6, r7, pc}
100036f8:	10006444 	.word	0x10006444
100036fc:	10006867 	.word	0x10006867
10003700:	10006896 	.word	0x10006896
10003704:	100068c5 	.word	0x100068c5
10003708:	100068d4 	.word	0x100068d4

1000370c <arch_irq_enable>:
#define REG_FROM_IRQ(irq) (irq / NUM_IRQS_PER_REG)
#define BIT_FROM_IRQ(irq) (irq % NUM_IRQS_PER_REG)

void arch_irq_enable(unsigned int irq)
{
	NVIC_EnableIRQ((IRQn_Type)irq);
1000370c:	b243      	sxtb	r3, r0
  \param [in]      IRQn  Device specific interrupt number.
  \note    IRQn must not be negative.
 */
__STATIC_INLINE void __NVIC_EnableIRQ(IRQn_Type IRQn)
{
  if ((int32_t)(IRQn) >= 0)
1000370e:	0600      	lsls	r0, r0, #24
10003710:	d405      	bmi.n	1000371e <arch_irq_enable+0x12>
  {
    __COMPILER_BARRIER();
    NVIC->ISER[0U] = (uint32_t)(1UL << (((uint32_t)IRQn) & 0x1FUL));
10003712:	221f      	movs	r2, #31
10003714:	401a      	ands	r2, r3
10003716:	2301      	movs	r3, #1
10003718:	4093      	lsls	r3, r2
1000371a:	4a01      	ldr	r2, [pc, #4]	; (10003720 <arch_irq_enable+0x14>)
1000371c:	6013      	str	r3, [r2, #0]
}
1000371e:	4770      	bx	lr
10003720:	e000e100 	.word	0xe000e100

10003724 <z_arm_irq_priority_set>:
 * The priority is verified if ASSERT_ON is enabled. The maximum number
 * of priority levels is a little complex, as there are some hardware
 * priority levels which are reserved.
 */
void z_arm_irq_priority_set(unsigned int irq, unsigned int prio, uint32_t flags)
{
10003724:	b530      	push	{r4, r5, lr}
 */
__STATIC_INLINE void __NVIC_SetPriority(IRQn_Type IRQn, uint32_t priority)
{
  if ((int32_t)(IRQn) >= 0)
  {
    NVIC->IP[_IP_IDX(IRQn)]  = ((uint32_t)(NVIC->IP[_IP_IDX(IRQn)]  & ~(0xFFUL << _BIT_SHIFT(IRQn))) |
10003726:	25ff      	movs	r5, #255	; 0xff
10003728:	2203      	movs	r2, #3
1000372a:	000b      	movs	r3, r1
1000372c:	0029      	movs	r1, r5
	 */
	__ASSERT(prio <= (BIT(NUM_IRQ_PRIO_BITS) - 1),
		 "invalid priority %d for %d irq! values must be less than %lu\n",
		 prio - _IRQ_PRIO_OFFSET, irq,
		 BIT(NUM_IRQ_PRIO_BITS) - (_IRQ_PRIO_OFFSET));
	NVIC_SetPriority((IRQn_Type)irq, prio);
1000372e:	b240      	sxtb	r0, r0
10003730:	4002      	ands	r2, r0
10003732:	00d2      	lsls	r2, r2, #3
10003734:	4091      	lsls	r1, r2
       (((priority << (8U - __NVIC_PRIO_BITS)) & (uint32_t)0xFFUL) << _BIT_SHIFT(IRQn)));
10003736:	015b      	lsls	r3, r3, #5
10003738:	402b      	ands	r3, r5
    NVIC->IP[_IP_IDX(IRQn)]  = ((uint32_t)(NVIC->IP[_IP_IDX(IRQn)]  & ~(0xFFUL << _BIT_SHIFT(IRQn))) |
1000373a:	43c9      	mvns	r1, r1
       (((priority << (8U - __NVIC_PRIO_BITS)) & (uint32_t)0xFFUL) << _BIT_SHIFT(IRQn)));
1000373c:	4093      	lsls	r3, r2
  if ((int32_t)(IRQn) >= 0)
1000373e:	2800      	cmp	r0, #0
10003740:	db0a      	blt.n	10003758 <z_arm_irq_priority_set+0x34>
    NVIC->IP[_IP_IDX(IRQn)]  = ((uint32_t)(NVIC->IP[_IP_IDX(IRQn)]  & ~(0xFFUL << _BIT_SHIFT(IRQn))) |
10003742:	24c0      	movs	r4, #192	; 0xc0
10003744:	4a0a      	ldr	r2, [pc, #40]	; (10003770 <z_arm_irq_priority_set+0x4c>)
10003746:	0880      	lsrs	r0, r0, #2
10003748:	0080      	lsls	r0, r0, #2
1000374a:	1880      	adds	r0, r0, r2
1000374c:	00a4      	lsls	r4, r4, #2
1000374e:	5902      	ldr	r2, [r0, r4]
10003750:	400a      	ands	r2, r1
10003752:	4313      	orrs	r3, r2
10003754:	5103      	str	r3, [r0, r4]
}
10003756:	bd30      	pop	{r4, r5, pc}
  }
  else
  {
    SCB->SHP[_SHP_IDX(IRQn)] = ((uint32_t)(SCB->SHP[_SHP_IDX(IRQn)] & ~(0xFFUL << _BIT_SHIFT(IRQn))) |
10003758:	220f      	movs	r2, #15
1000375a:	4010      	ands	r0, r2
1000375c:	3808      	subs	r0, #8
1000375e:	4a05      	ldr	r2, [pc, #20]	; (10003774 <z_arm_irq_priority_set+0x50>)
10003760:	0880      	lsrs	r0, r0, #2
10003762:	0080      	lsls	r0, r0, #2
10003764:	1880      	adds	r0, r0, r2
10003766:	69c2      	ldr	r2, [r0, #28]
10003768:	4011      	ands	r1, r2
1000376a:	4319      	orrs	r1, r3
1000376c:	61c1      	str	r1, [r0, #28]
1000376e:	e7f2      	b.n	10003756 <z_arm_irq_priority_set+0x32>
10003770:	e000e100 	.word	0xe000e100
10003774:	e000ed00 	.word	0xe000ed00

10003778 <z_SysNmiOnReset>:
_ASM_FILE_PROLOGUE

GTEXT(z_SysNmiOnReset)

SECTION_FUNC(TEXT, z_SysNmiOnReset)
    wfi
10003778:	bf30      	wfi
    b z_SysNmiOnReset
1000377a:	e7fd      	b.n	10003778 <z_SysNmiOnReset>

1000377c <z_arm_prep_c>:

#define VECTOR_ADDRESS ((uintptr_t)_vector_start)

static inline void relocate_vector_table(void)
{
	SCB->VTOR = VECTOR_ADDRESS & SCB_VTOR_TBLOFF_Msk;
1000377c:	22ff      	movs	r2, #255	; 0xff
1000377e:	4b08      	ldr	r3, [pc, #32]	; (100037a0 <z_arm_prep_c+0x24>)
 *
 * This routine prepares for the execution of and runs C code.
 *
 */
void z_arm_prep_c(void)
{
10003780:	b510      	push	{r4, lr}
	SCB->VTOR = VECTOR_ADDRESS & SCB_VTOR_TBLOFF_Msk;
10003782:	4393      	bics	r3, r2
10003784:	4a07      	ldr	r2, [pc, #28]	; (100037a4 <z_arm_prep_c+0x28>)
10003786:	6093      	str	r3, [r2, #8]
  \details Acts as a special kind of Data Memory Barrier.
           It completes when all explicit memory accesses before this instruction complete.
 */
__STATIC_FORCEINLINE void __DSB(void)
{
  __ASM volatile ("dsb 0xF":::"memory");
10003788:	f3bf 8f4f 	dsb	sy
  __ASM volatile ("isb 0xF":::"memory");
1000378c:	f3bf 8f6f 	isb	sy
	relocate_vector_table();
#if defined(CONFIG_CPU_HAS_FPU)
	z_arm_floating_point_init();
#endif
	z_bss_zero();
10003790:	f001 f95c 	bl	10004a4c <z_bss_zero>
	z_data_copy();
10003794:	f001 fdae 	bl	100052f4 <z_data_copy>
#if ((defined(CONFIG_ARMV7_R) || defined(CONFIG_ARMV7_A)) && defined(CONFIG_INIT_STACKS))
	z_arm_init_stacks();
#endif
	z_arm_interrupt_init();
10003798:	f000 f93a 	bl	10003a10 <z_arm_interrupt_init>
	z_cstart();
1000379c:	f001 f996 	bl	10004acc <z_cstart>
100037a0:	10000100 	.word	0x10000100
100037a4:	e000ed00 	.word	0xe000ed00

100037a8 <arch_swap>:
 * as BASEPRI is not available.
 */
int arch_swap(unsigned int key)
{
	/* store off key and return value */
	_current->arch.basepri = key;
100037a8:	4a08      	ldr	r2, [pc, #32]	; (100037cc <arch_swap+0x24>)
	_current->arch.swap_return_value = _k_neg_eagain;
100037aa:	4909      	ldr	r1, [pc, #36]	; (100037d0 <arch_swap+0x28>)
	_current->arch.basepri = key;
100037ac:	6893      	ldr	r3, [r2, #8]
	_current->arch.swap_return_value = _k_neg_eagain;
100037ae:	6809      	ldr	r1, [r1, #0]
	_current->arch.basepri = key;
100037b0:	6698      	str	r0, [r3, #104]	; 0x68
	_current->arch.swap_return_value = _k_neg_eagain;
100037b2:	66d9      	str	r1, [r3, #108]	; 0x6c

#if defined(CONFIG_CPU_CORTEX_M)
	/* set pending bit to make sure we will take a PendSV exception */
	SCB->ICSR |= SCB_ICSR_PENDSVSET_Msk;
100037b4:	2380      	movs	r3, #128	; 0x80
100037b6:	4907      	ldr	r1, [pc, #28]	; (100037d4 <arch_swap+0x2c>)
100037b8:	055b      	lsls	r3, r3, #21
100037ba:	6848      	ldr	r0, [r1, #4]
100037bc:	4303      	orrs	r3, r0
100037be:	604b      	str	r3, [r1, #4]
{
#if defined(CONFIG_ARMV6_M_ARMV8_M_BASELINE)
	if (key != 0U) {
		return;
	}
	__asm__ volatile(
100037c0:	b662      	cpsie	i
100037c2:	f3bf 8f6f 	isb	sy
#endif

	/* Context switch is performed here. Returning implies the
	 * thread has been context-switched-in again.
	 */
	return _current->arch.swap_return_value;
100037c6:	6893      	ldr	r3, [r2, #8]
100037c8:	6ed8      	ldr	r0, [r3, #108]	; 0x6c
}
100037ca:	4770      	bx	lr
100037cc:	20000264 	.word	0x20000264
100037d0:	100065e8 	.word	0x100065e8
100037d4:	e000ed00 	.word	0xe000ed00

100037d8 <z_arm_pendsv>:
    pop {r0, lr}
#endif /* CONFIG_ARMV6_M_ARMV8_M_BASELINE */
#endif /* CONFIG_INSTRUMENT_THREAD_SWITCHING */

    /* load _kernel into r1 and current k_thread into r2 */
    ldr r1, =_kernel
100037d8:	4913      	ldr	r1, [pc, #76]	; (10003828 <_thread_irq_disabled+0x1e>)
    ldr r2, [r1, #_kernel_offset_to_current]
100037da:	688a      	ldr	r2, [r1, #8]
    /* Store LSB of LR (EXC_RETURN) to the thread's 'mode' word. */
    strb lr, [r2, #_thread_offset_to_mode_exc_return]
#endif

    /* addr of callee-saved regs in thread in r0 */
    ldr r0, =_thread_offset_to_callee_saved
100037dc:	4813      	ldr	r0, [pc, #76]	; (1000382c <_thread_irq_disabled+0x22>)
    add r0, r2
100037de:	4410      	add	r0, r2

    /* save callee-saved + psp in thread */
#if defined(CONFIG_CPU_CORTEX_M)
    mrs ip, PSP
100037e0:	f3ef 8c09 	mrs	ip, PSP
#endif

#if defined(CONFIG_ARMV6_M_ARMV8_M_BASELINE)
    /* Store current r4-r7 */
    stmea r0!, {r4-r7}
100037e4:	c0f0      	stmia	r0!, {r4, r5, r6, r7}
    /* copy r8-r12 into r3-r7 */
    mov r3, r8
100037e6:	4643      	mov	r3, r8
    mov r4, r9
100037e8:	464c      	mov	r4, r9
    mov r5, r10
100037ea:	4655      	mov	r5, sl
    mov r6, r11
100037ec:	465e      	mov	r6, fp
    mov r7, ip
100037ee:	4667      	mov	r7, ip
    /* store r8-12 */
    stmea r0!, {r3-r7}
100037f0:	c0f8      	stmia	r0!, {r3, r4, r5, r6, r7}
#error Unknown ARM architecture
#endif /* CONFIG_ARMV6_M_ARMV8_M_BASELINE */

    /* Protect the kernel state while we play with the thread lists */
#if defined(CONFIG_ARMV6_M_ARMV8_M_BASELINE)
    cpsid i
100037f2:	b672      	cpsid	i
     * the new thread is context-switched in since all decisions
     * to pend PendSV have been taken with the current kernel
     * state and this is what we're handling currently.
     */
#if defined(CONFIG_CPU_CORTEX_M)
    ldr v4, =_SCS_ICSR
100037f4:	4f0e      	ldr	r7, [pc, #56]	; (10003830 <_thread_irq_disabled+0x26>)
    ldr v3, =_SCS_ICSR_UNPENDSV
100037f6:	4e0f      	ldr	r6, [pc, #60]	; (10003834 <_thread_irq_disabled+0x2a>)
#endif

    /* _kernel is still in r1 */

    /* fetch the thread to run from the ready queue cache */
    ldr r2, [r1, #_kernel_offset_to_ready_q_cache]
100037f8:	694a      	ldr	r2, [r1, #20]

    str r2, [r1, #_kernel_offset_to_current]
100037fa:	608a      	str	r2, [r1, #8]
     * has been handled.
     */

    /* _SCS_ICSR is still in v4 and _SCS_ICSR_UNPENDSV in v3 */
#if defined(CONFIG_CPU_CORTEX_M)
    str v3, [v4, #0]
100037fc:	603e      	str	r6, [r7, #0]

    ldr r0, [r4]
    movs.n r3, #0
    str r3, [r4]
#else
    ldr r0, [r2, #_thread_offset_to_basepri]
100037fe:	6e90      	ldr	r0, [r2, #104]	; 0x68
    movs r3, #0
10003800:	2300      	movs	r3, #0
    str r3, [r2, #_thread_offset_to_basepri]
10003802:	6693      	str	r3, [r2, #104]	; 0x68
     * maps to PRIMASK.
     *
     * Only enable interrupts if value is 0, meaning interrupts
     * were enabled before irq_lock was called.
     */
    cmp r0, #0
10003804:	2800      	cmp	r0, #0
    bne _thread_irq_disabled
10003806:	d100      	bne.n	1000380a <_thread_irq_disabled>
    cpsie i
10003808:	b662      	cpsie	i

1000380a <_thread_irq_disabled>:
     */
    isb

#endif

    ldr r4, =_thread_offset_to_callee_saved
1000380a:	4c08      	ldr	r4, [pc, #32]	; (1000382c <_thread_irq_disabled+0x22>)
    adds r0, r2, r4
1000380c:	1910      	adds	r0, r2, r4

    /* restore r4-r12 for new thread */
    /* first restore r8-r12 located after r4-r7 (4*4bytes) */
    adds r0, #16
1000380e:	3010      	adds	r0, #16
    ldmia r0!, {r3-r7}
10003810:	c8f8      	ldmia	r0!, {r3, r4, r5, r6, r7}
    /* move to correct registers */
    mov r8, r3
10003812:	4698      	mov	r8, r3
    mov r9, r4
10003814:	46a1      	mov	r9, r4
    mov r10, r5
10003816:	46aa      	mov	sl, r5
    mov r11, r6
10003818:	46b3      	mov	fp, r6
    mov ip, r7
1000381a:	46bc      	mov	ip, r7
    /* restore r4-r7, go back 9*4 bytes to the start of the stored block */
    subs r0, #36
1000381c:	3824      	subs	r0, #36	; 0x24
    ldmia r0!, {r4-r7}
1000381e:	c8f0      	ldmia	r0!, {r4, r5, r6, r7}
#else
#error Unknown ARM architecture
#endif /* CONFIG_ARMV6_M_ARMV8_M_BASELINE */

#if defined(CONFIG_CPU_CORTEX_M)
    msr PSP, ip
10003820:	f38c 8809 	msr	PSP, ip

    /*
     * Cortex-M: return from PendSV exception
     * Cortex-R: return to the caller (z_arm_{exc,int}_exit, or z_arm_svc)
     */
    bx lr
10003824:	4770      	bx	lr
10003826:	0000      	.short	0x0000
    ldr r1, =_kernel
10003828:	20000264 	.word	0x20000264
    ldr r0, =_thread_offset_to_callee_saved
1000382c:	00000030 	.word	0x00000030
    ldr v4, =_SCS_ICSR
10003830:	e000ed04 	.word	0xe000ed04
    ldr v3, =_SCS_ICSR_UNPENDSV
10003834:	08000000 	.word	0x08000000

10003838 <z_arm_svc>:
SECTION_FUNC(TEXT, z_arm_svc)
  /* Use EXC_RETURN state to find out if stack frame is on the
   * MSP or PSP
   */
#if defined(CONFIG_ARMV6_M_ARMV8_M_BASELINE)
  movs r0, #_EXC_RETURN_SPSEL_Msk
10003838:	2004      	movs	r0, #4
  mov r1, lr
1000383a:	4671      	mov	r1, lr
  tst r1, r0
1000383c:	4201      	tst	r1, r0
  beq _stack_frame_msp
1000383e:	d002      	beq.n	10003846 <_stack_frame_msp>
  mrs r0, PSP
10003840:	f3ef 8009 	mrs	r0, PSP
  bne _stack_frame_endif
10003844:	d101      	bne.n	1000384a <_stack_frame_endif>

10003846 <_stack_frame_msp>:
_stack_frame_msp:
  mrs r0, MSP
10003846:	f3ef 8008 	mrs	r0, MSP

1000384a <_stack_frame_endif>:
#endif


    /* Figure out what SVC call number was invoked */

    ldr r1, [r0, #24]   /* grab address of PC from stack frame */
1000384a:	6981      	ldr	r1, [r0, #24]
    /* SVC is a two-byte instruction, point to it and read the
     * SVC number (lower byte of SCV instruction)
     */
#if defined(CONFIG_ARMV6_M_ARMV8_M_BASELINE)
    subs r1, r1, #2
1000384c:	3902      	subs	r1, #2
    ldrb r1, [r1]
1000384e:	7809      	ldrb	r1, [r1, #0]
#endif
    bne _oops

#endif /* CONFIG_USERSPACE */

    cmp r1, #2
10003850:	2902      	cmp	r1, #2
    beq _oops
10003852:	d0ff      	beq.n	10003854 <_oops>

10003854 <_oops>:
    /* exception return is done in z_arm_int_exit() */
    b z_arm_int_exit
#endif

_oops:
    push {r0, lr}
10003854:	b501      	push	{r0, lr}
    push {r1, r2}
    push {r4-r11}
    mov  r1, sp /* pointer to _callee_saved_t */
#endif /* CONFIG_ARMV7_M_ARMV8_M_MAINLINE */
#endif /* CONFIG_EXTRA_EXCEPTION_INFO */
    bl z_do_kernel_oops
10003856:	f002 f886 	bl	10005966 <z_do_kernel_oops>
     * the MSP to its value prior to entering the function
     */
    add sp, #40
#endif /* CONFIG_ARMV7_M_ARMV8_M_MAINLINE */
#endif /* CONFIG_EXTRA_EXCEPTION_INFO */
    pop {r0, pc}
1000385a:	bd01      	pop	{r0, pc}

1000385c <arch_new_thread>:
 * of the ESF.
 */
void arch_new_thread(struct k_thread *thread, k_thread_stack_t *stack,
		     char *stack_ptr, k_thread_entry_t entry,
		     void *p1, void *p2, void *p3)
{
1000385c:	b510      	push	{r4, lr}
	iframe->pc = (uint32_t)z_thread_entry;
#endif

#if defined(CONFIG_CPU_CORTEX_M)
	/* force ARM mode by clearing LSB of address */
	iframe->pc &= 0xfffffffe;
1000385e:	3a20      	subs	r2, #32
#endif
	iframe->a1 = (uint32_t)entry;
10003860:	6013      	str	r3, [r2, #0]
	iframe->a2 = (uint32_t)p1;
10003862:	9b02      	ldr	r3, [sp, #8]
	iframe->pc &= 0xfffffffe;
10003864:	2401      	movs	r4, #1
	iframe->a2 = (uint32_t)p1;
10003866:	6053      	str	r3, [r2, #4]
	iframe->a3 = (uint32_t)p2;
10003868:	9b03      	ldr	r3, [sp, #12]
	iframe->pc &= 0xfffffffe;
1000386a:	4906      	ldr	r1, [pc, #24]	; (10003884 <arch_new_thread+0x28>)
	iframe->a3 = (uint32_t)p2;
1000386c:	6093      	str	r3, [r2, #8]
	iframe->a4 = (uint32_t)p3;
1000386e:	9b04      	ldr	r3, [sp, #16]
	iframe->pc &= 0xfffffffe;
10003870:	43a1      	bics	r1, r4
	iframe->a4 = (uint32_t)p3;
10003872:	60d3      	str	r3, [r2, #12]

#if defined(CONFIG_CPU_CORTEX_M)
	iframe->xpsr =
10003874:	2380      	movs	r3, #128	; 0x80
10003876:	045b      	lsls	r3, r3, #17
10003878:	61d3      	str	r3, [r2, #28]
		((uintptr_t)iframe - sizeof(struct __fpu_sf));
	memset(iframe, 0, sizeof(struct __fpu_sf));
#endif

	thread->callee_saved.psp = (uint32_t)iframe;
	thread->arch.basepri = 0;
1000387a:	2300      	movs	r3, #0
	iframe->pc &= 0xfffffffe;
1000387c:	6191      	str	r1, [r2, #24]
	thread->callee_saved.psp = (uint32_t)iframe;
1000387e:	6502      	str	r2, [r0, #80]	; 0x50
	thread->arch.basepri = 0;
10003880:	6683      	str	r3, [r0, #104]	; 0x68
#endif
	/*
	 * initial values in all other registers/thread entries are
	 * irrelevant.
	 */
}
10003882:	bd10      	pop	{r4, pc}
10003884:	10005779 	.word	0x10005779

10003888 <arch_switch_to_main_thread>:
void arch_switch_to_main_thread(struct k_thread *main_thread, char *stack_ptr,
				k_thread_entry_t _main)
{
	z_arm_prepare_switch_to_main();

	_current = main_thread;
10003888:	4b06      	ldr	r3, [pc, #24]	; (100038a4 <arch_switch_to_main_thread+0x1c>)
1000388a:	6098      	str	r0, [r3, #8]

	/*
	 * Set PSP to the highest address of the main stack
	 * before enabling interrupts and jumping to main.
	 */
	__asm__ volatile (
1000388c:	1c10      	adds	r0, r2, #0
1000388e:	f381 8809 	msr	PSP, r1
10003892:	2100      	movs	r1, #0
10003894:	b662      	cpsie	i
10003896:	f3bf 8f6f 	isb	sy
1000389a:	2200      	movs	r2, #0
1000389c:	2300      	movs	r3, #0
1000389e:	f001 ff6b 	bl	10005778 <z_thread_entry>
	:
	: "r" (_main), "r" (stack_ptr)
	: "r0" /* not to be overwritten by msr PSP, %1 */
	);

	CODE_UNREACHABLE;
100038a2:	46c0      	nop			; (mov r8, r8)
100038a4:	20000264 	.word	0x20000264

100038a8 <_isr_wrapper>:
 *
 */
SECTION_FUNC(TEXT, _isr_wrapper)

#if defined(CONFIG_CPU_CORTEX_M)
	push {r0,lr}		/* r0, lr are now the first items on the stack */
100038a8:	b501      	push	{r0, lr}
#endif

#endif /* CONFIG_PM */

#if defined(CONFIG_CPU_CORTEX_M)
	mrs r0, IPSR	/* get exception number */
100038aa:	f3ef 8005 	mrs	r0, IPSR
#if defined(CONFIG_ARMV6_M_ARMV8_M_BASELINE)
	ldr r1, =16
100038ae:	4905      	ldr	r1, [pc, #20]	; (100038c4 <_isr_wrapper+0x1c>)
	subs r0, r1	/* get IRQ number */
100038b0:	1a40      	subs	r0, r0, r1
	lsls r0, #3	/* table is 8-byte wide */
100038b2:	00c0      	lsls	r0, r0, #3
	lsl r1, r1, #3
	cmp r0, r1
	bge spurious_continue
#endif /* !CONFIG_CPU_CORTEX_M */

	ldr r1, =_sw_isr_table
100038b4:	4904      	ldr	r1, [pc, #16]	; (100038c8 <_isr_wrapper+0x20>)
	add r1, r1, r0	/* table entry: ISRs must have their MSB set to stay
100038b6:	4401      	add	r1, r0
			 * in thumb mode */

	ldm r1!,{r0,r3}	/* arg in r0, ISR in r3 */
100038b8:	c909      	ldmia	r1!, {r0, r3}
	blx r3		/* call ISR */
100038ba:	4798      	blx	r3
#ifdef CONFIG_TRACING_ISR
	bl sys_trace_isr_exit
#endif

#if defined(CONFIG_ARMV6_M_ARMV8_M_BASELINE)
	pop {r0, r3}
100038bc:	bc09      	pop	{r0, r3}
	mov lr, r3
100038be:	469e      	mov	lr, r3
#endif /* CONFIG_ARMV6_M_ARMV8_M_BASELINE */

	/* Use 'bx' instead of 'b' because 'bx' can jump further, and use
	 * 'bx' instead of 'blx' because exception return is done in
	 * z_arm_int_exit() */
	ldr r1, =z_arm_int_exit
100038c0:	4902      	ldr	r1, [pc, #8]	; (100038cc <_isr_wrapper+0x24>)
	bx r1
100038c2:	4708      	bx	r1
	ldr r1, =16
100038c4:	00000010 	.word	0x00000010
	ldr r1, =_sw_isr_table
100038c8:	10006320 	.word	0x10006320
	ldr r1, =z_arm_int_exit
100038cc:	100038d1 	.word	0x100038d1

100038d0 <z_arm_exc_exit>:
 */

SECTION_SUBSEC_FUNC(TEXT, _HandlerModeExit, z_arm_exc_exit)

#ifdef CONFIG_PREEMPT_ENABLED
	ldr r3, =_kernel
100038d0:	4b04      	ldr	r3, [pc, #16]	; (100038e4 <_EXIT_EXC+0x4>)

	ldr r1, [r3, #_kernel_offset_to_current]
100038d2:	6899      	ldr	r1, [r3, #8]
	ldr r0, [r3, #_kernel_offset_to_ready_q_cache]
100038d4:	6958      	ldr	r0, [r3, #20]
	cmp r0, r1
100038d6:	4288      	cmp	r0, r1
	beq _EXIT_EXC
100038d8:	d002      	beq.n	100038e0 <_EXIT_EXC>

	/* context switch required, pend the PendSV exception */
	ldr r1, =_SCS_ICSR
100038da:	4903      	ldr	r1, [pc, #12]	; (100038e8 <_EXIT_EXC+0x8>)
	ldr r2, =_SCS_ICSR_PENDSV
100038dc:	4a03      	ldr	r2, [pc, #12]	; (100038ec <_EXIT_EXC+0xc>)
	str r2, [r1]
100038de:	600a      	str	r2, [r1, #0]

100038e0 <_EXIT_EXC>:
#else
	pop {r0, lr}
#endif /* CONFIG_ARMV6_M_ARMV8_M_BASELINE */
#endif /* CONFIG_STACK_SENTINEL */

	bx lr
100038e0:	4770      	bx	lr
100038e2:	0000      	.short	0x0000
	ldr r3, =_kernel
100038e4:	20000264 	.word	0x20000264
	ldr r1, =_SCS_ICSR
100038e8:	e000ed04 	.word	0xe000ed04
	ldr r2, =_SCS_ICSR_PENDSV
100038ec:	10000000 	.word	0x10000000

100038f0 <z_arm_fault>:
 * @param callee_regs Callee-saved registers (R4-R11, PSP)
 *
 */
void z_arm_fault(uint32_t msp, uint32_t psp, uint32_t exc_return,
	_callee_saved_t *callee_regs)
{
100038f0:	b5f0      	push	{r4, r5, r6, r7, lr}
	uint32_t reason = K_ERR_CPU_EXCEPTION;
	int fault = SCB->ICSR & SCB_ICSR_VECTACTIVE_Msk;
100038f2:	4b38      	ldr	r3, [pc, #224]	; (100039d4 <z_arm_fault+0xe4>)
{
100038f4:	b091      	sub	sp, #68	; 0x44
	int fault = SCB->ICSR & SCB_ICSR_VECTACTIVE_Msk;
100038f6:	685f      	ldr	r7, [r3, #4]
{
100038f8:	0004      	movs	r4, r0
	int fault = SCB->ICSR & SCB_ICSR_VECTACTIVE_Msk;
100038fa:	05fb      	lsls	r3, r7, #23
100038fc:	0ddb      	lsrs	r3, r3, #23
100038fe:	9307      	str	r3, [sp, #28]
10003900:	b662      	cpsie	i
10003902:	f3bf 8f6f 	isb	sy
	if ((exc_return & EXC_RETURN_INDICATOR_PREFIX) !=
10003906:	4e34      	ldr	r6, [pc, #208]	; (100039d8 <z_arm_fault+0xe8>)
10003908:	0e13      	lsrs	r3, r2, #24
1000390a:	2bff      	cmp	r3, #255	; 0xff
1000390c:	d10d      	bne.n	1000392a <z_arm_fault+0x3a>
	if ((exc_return & EXC_RETURN_MODE_THREAD) &&
1000390e:	3bf3      	subs	r3, #243	; 0xf3
10003910:	4013      	ands	r3, r2
10003912:	2b08      	cmp	r3, #8
10003914:	d13f      	bne.n	10003996 <z_arm_fault+0xa6>
		PR_EXC("SPSEL in thread mode does not indicate PSP");
10003916:	2000      	movs	r0, #0
10003918:	4b30      	ldr	r3, [pc, #192]	; (100039dc <z_arm_fault+0xec>)
1000391a:	2201      	movs	r2, #1
1000391c:	9302      	str	r3, [sp, #8]
1000391e:	0031      	movs	r1, r6
10003920:	0003      	movs	r3, r0
10003922:	9001      	str	r0, [sp, #4]
10003924:	9000      	str	r0, [sp, #0]
10003926:	f002 f830 	bl	1000598a <z_log_msg_runtime_create.constprop.0>
	*nested_exc = false;
1000392a:	2500      	movs	r5, #0
		return NULL;
1000392c:	002c      	movs	r4, r5
	switch (fault) {
1000392e:	9b07      	ldr	r3, [sp, #28]
10003930:	2b03      	cmp	r3, #3
10003932:	d136      	bne.n	100039a2 <z_arm_fault+0xb2>
	PR_FAULT_INFO("***** HARD FAULT *****");
10003934:	2700      	movs	r7, #0
10003936:	4b2a      	ldr	r3, [pc, #168]	; (100039e0 <z_arm_fault+0xf0>)
10003938:	2201      	movs	r2, #1
1000393a:	9302      	str	r3, [sp, #8]
1000393c:	0031      	movs	r1, r6
1000393e:	003b      	movs	r3, r7
10003940:	0038      	movs	r0, r7
10003942:	9701      	str	r7, [sp, #4]
10003944:	9700      	str	r7, [sp, #0]
10003946:	f002 f820 	bl	1000598a <z_log_msg_runtime_create.constprop.0>
	uint16_t fault_insn = *(ret_addr - 1);
1000394a:	69a3      	ldr	r3, [r4, #24]
1000394c:	3b02      	subs	r3, #2
	if (((fault_insn & 0xff00) == _SVC_OPCODE) &&
1000394e:	881a      	ldrh	r2, [r3, #0]
10003950:	4b24      	ldr	r3, [pc, #144]	; (100039e4 <z_arm_fault+0xf4>)
10003952:	429a      	cmp	r2, r3
10003954:	d139      	bne.n	100039ca <z_arm_fault+0xda>
		PR_EXC("ARCH_EXCEPT with reason %x\n", esf->basic.r0);
10003956:	6823      	ldr	r3, [r4, #0]
10003958:	0031      	movs	r1, r6
1000395a:	9303      	str	r3, [sp, #12]
1000395c:	4b22      	ldr	r3, [pc, #136]	; (100039e8 <z_arm_fault+0xf8>)
1000395e:	2201      	movs	r2, #1
10003960:	9302      	str	r3, [sp, #8]
10003962:	0038      	movs	r0, r7
10003964:	003b      	movs	r3, r7
10003966:	9701      	str	r7, [sp, #4]
10003968:	9700      	str	r7, [sp, #0]
1000396a:	f002 f80e 	bl	1000598a <z_log_msg_runtime_create.constprop.0>
		reason = esf->basic.r0;
1000396e:	6826      	ldr	r6, [r4, #0]
		return;
	}

	/* Copy ESF */
#if !defined(CONFIG_EXTRA_EXCEPTION_INFO)
	memcpy(&esf_copy, esf, sizeof(z_arch_esf_t));
10003970:	2220      	movs	r2, #32
10003972:	0021      	movs	r1, r4
10003974:	a808      	add	r0, sp, #32
10003976:	f002 f82a 	bl	100059ce <memcpy>
	/* Overwrite stacked IPSR to mark a nested exception,
	 * or a return to Thread mode. Note that this may be
	 * required, if the retrieved ESF contents are invalid
	 * due to, for instance, a stacking error.
	 */
	if (nested_exc) {
1000397a:	9b0f      	ldr	r3, [sp, #60]	; 0x3c
1000397c:	2d00      	cmp	r5, #0
1000397e:	d026      	beq.n	100039ce <z_arm_fault+0xde>
		if ((esf_copy.basic.xpsr & IPSR_ISR_Msk) == 0) {
10003980:	05da      	lsls	r2, r3, #23
10003982:	d102      	bne.n	1000398a <z_arm_fault+0x9a>
			esf_copy.basic.xpsr |= IPSR_ISR_Msk;
10003984:	4a19      	ldr	r2, [pc, #100]	; (100039ec <z_arm_fault+0xfc>)
10003986:	4313      	orrs	r3, r2
		}
	} else {
		esf_copy.basic.xpsr &= ~(IPSR_ISR_Msk);
10003988:	930f      	str	r3, [sp, #60]	; 0x3c

	if (IS_ENABLED(CONFIG_SIMPLIFIED_EXCEPTION_CODES) && (reason >= K_ERR_ARCH_START)) {
		reason = K_ERR_CPU_EXCEPTION;
	}

	z_arm_fatal_error(reason, &esf_copy);
1000398a:	0030      	movs	r0, r6
1000398c:	a908      	add	r1, sp, #32
1000398e:	f7ff fe6d 	bl	1000366c <z_arm_fatal_error>
}
10003992:	b011      	add	sp, #68	; 0x44
10003994:	bdf0      	pop	{r4, r5, r6, r7, pc}
			*nested_exc = true;
10003996:	2501      	movs	r5, #1
		if (exc_return & EXC_RETURN_MODE_THREAD) {
10003998:	0712      	lsls	r2, r2, #28
1000399a:	d5c8      	bpl.n	1000392e <z_arm_fault+0x3e>
			ptr_esf =  (z_arch_esf_t *)psp;
1000399c:	000c      	movs	r4, r1
	*nested_exc = false;
1000399e:	2500      	movs	r5, #0
100039a0:	e7c5      	b.n	1000392e <z_arm_fault+0x3e>
	PR_FAULT_INFO("***** %s %d) *****",
100039a2:	23f8      	movs	r3, #248	; 0xf8
100039a4:	005b      	lsls	r3, r3, #1
100039a6:	4a12      	ldr	r2, [pc, #72]	; (100039f0 <z_arm_fault+0x100>)
100039a8:	421f      	tst	r7, r3
100039aa:	d000      	beq.n	100039ae <z_arm_fault+0xbe>
100039ac:	4a11      	ldr	r2, [pc, #68]	; (100039f4 <z_arm_fault+0x104>)
100039ae:	2000      	movs	r0, #0
100039b0:	9b07      	ldr	r3, [sp, #28]
100039b2:	9203      	str	r2, [sp, #12]
100039b4:	3b10      	subs	r3, #16
100039b6:	9304      	str	r3, [sp, #16]
100039b8:	4b0f      	ldr	r3, [pc, #60]	; (100039f8 <z_arm_fault+0x108>)
100039ba:	2201      	movs	r2, #1
100039bc:	9302      	str	r3, [sp, #8]
100039be:	0031      	movs	r1, r6
100039c0:	0003      	movs	r3, r0
100039c2:	9001      	str	r0, [sp, #4]
100039c4:	9000      	str	r0, [sp, #0]
100039c6:	f001 ffe0 	bl	1000598a <z_log_msg_runtime_create.constprop.0>
	uint32_t reason = K_ERR_CPU_EXCEPTION;
100039ca:	2600      	movs	r6, #0
100039cc:	e7d0      	b.n	10003970 <z_arm_fault+0x80>
		esf_copy.basic.xpsr &= ~(IPSR_ISR_Msk);
100039ce:	0a5b      	lsrs	r3, r3, #9
100039d0:	025b      	lsls	r3, r3, #9
100039d2:	e7d9      	b.n	10003988 <z_arm_fault+0x98>
100039d4:	e000ed00 	.word	0xe000ed00
100039d8:	10006444 	.word	0x10006444
100039dc:	10006930 	.word	0x10006930
100039e0:	1000695b 	.word	0x1000695b
100039e4:	0000df02 	.word	0x0000df02
100039e8:	10006972 	.word	0x10006972
100039ec:	000001ff 	.word	0x000001ff
100039f0:	10006902 	.word	0x10006902
100039f4:	10006917 	.word	0x10006917
100039f8:	1000698e 	.word	0x1000698e

100039fc <z_arm_exc_spurious>:
#else
#error Unknown ARM architecture
#endif /* CONFIG_ARMV6_M_ARMV8_M_BASELINE */
SECTION_SUBSEC_FUNC(TEXT,__fault,z_arm_exc_spurious)

	mrs r0, MSP
100039fc:	f3ef 8008 	mrs	r0, MSP
	mrs r1, PSP
10003a00:	f3ef 8109 	mrs	r1, PSP
	push {r0, lr}
10003a04:	b501      	push	{r0, lr}
#elif defined(CONFIG_ARMV7_M_ARMV8_M_MAINLINE)
	push {r4-r11}
#endif
	mov  r3, sp /* pointer to _callee_saved_t */
#endif /* CONFIG_EXTRA_EXCEPTION_INFO */
	mov r2, lr /* EXC_RETURN */
10003a06:	4672      	mov	r2, lr
	bl z_arm_fault
10003a08:	f7ff ff72 	bl	100038f0 <z_arm_fault>
	 * in this routine. Therefore, we can just reset
	 * the MSP to its value prior to entering the function
	 */
	add sp, #40
#endif
	pop {r0, pc}
10003a0c:	bd01      	pop	{r0, pc}
10003a0e:	46c0      	nop			; (mov r8, r8)

10003a10 <z_arm_interrupt_init>:
 * interrupt locking via BASEPRI works as expected.
 *
 */

void z_arm_interrupt_init(void)
{
10003a10:	b5f0      	push	{r4, r5, r6, r7, lr}
    NVIC->IP[_IP_IDX(IRQn)]  = ((uint32_t)(NVIC->IP[_IP_IDX(IRQn)]  & ~(0xFFUL << _BIT_SHIFT(IRQn))) |
10003a12:	24c0      	movs	r4, #192	; 0xc0
	int irq = 0;
10003a14:	2200      	movs	r2, #0
10003a16:	2603      	movs	r6, #3
10003a18:	25ff      	movs	r5, #255	; 0xff
10003a1a:	00a4      	lsls	r4, r4, #2
10003a1c:	0010      	movs	r0, r2
10003a1e:	002f      	movs	r7, r5
10003a20:	4030      	ands	r0, r6
10003a22:	00c0      	lsls	r0, r0, #3
10003a24:	4087      	lsls	r7, r0
10003a26:	4905      	ldr	r1, [pc, #20]	; (10003a3c <z_arm_interrupt_init+0x2c>)
10003a28:	0893      	lsrs	r3, r2, #2
10003a2a:	009b      	lsls	r3, r3, #2
10003a2c:	185b      	adds	r3, r3, r1
10003a2e:	5919      	ldr	r1, [r3, r4]

	for (; irq < CONFIG_NUM_IRQS; irq++) {
10003a30:	3201      	adds	r2, #1
10003a32:	43b9      	bics	r1, r7
10003a34:	5119      	str	r1, [r3, r4]
10003a36:	2a1a      	cmp	r2, #26
10003a38:	d1f0      	bne.n	10003a1c <z_arm_interrupt_init+0xc>
		NVIC_SetPriority((IRQn_Type)irq, _IRQ_PRIO_OFFSET);
	}
}
10003a3a:	bdf0      	pop	{r4, r5, r6, r7, pc}
10003a3c:	e000e100 	.word	0xe000e100

10003a40 <__start>:
    bl z_arm_init_arch_hw_at_boot
#endif /* CONFIG_INIT_ARCH_HW_AT_BOOT */

    /* lock interrupts: will get unlocked when switch to main task */
#if defined(CONFIG_ARMV6_M_ARMV8_M_BASELINE)
    cpsid i
10003a40:	b672      	cpsid	i

    /*
     * Set PSP and use it to boot without using MSP, so that it
     * gets set to z_interrupt_stacks during initialization.
     */
    ldr r0, =z_interrupt_stacks
10003a42:	4807      	ldr	r0, [pc, #28]	; (10003a60 <__start+0x20>)
    ldr r1, =CONFIG_ISR_STACK_SIZE + MPU_GUARD_ALIGN_AND_SIZE
10003a44:	4907      	ldr	r1, [pc, #28]	; (10003a64 <__start+0x24>)
    adds r0, r0, r1
10003a46:	1840      	adds	r0, r0, r1
    msr PSP, r0
10003a48:	f380 8809 	msr	PSP, r0
    mrs r0, CONTROL
10003a4c:	f3ef 8014 	mrs	r0, CONTROL
    movs r1, #2
10003a50:	2102      	movs	r1, #2
    orrs r0, r1 /* CONTROL_SPSEL_Msk */
10003a52:	4308      	orrs	r0, r1
    msr CONTROL, r0
10003a54:	f380 8814 	msr	CONTROL, r0
    /*
     * When changing the stack pointer, software must use an ISB instruction
     * immediately after the MSR instruction. This ensures that instructions
     * after the ISB instruction execute using the new stack pointer.
     */
    isb
10003a58:	f3bf 8f6f 	isb	sy
    /*
     * 'bl' jumps the furthest of the branch instructions that are
     * supported on all platforms. So it is used when jumping to z_arm_prep_c
     * (even though we do not intend to return).
     */
    bl z_arm_prep_c
10003a5c:	f7ff fe8e 	bl	1000377c <z_arm_prep_c>
    ldr r0, =z_interrupt_stacks
10003a60:	200002a0 	.word	0x200002a0
    ldr r1, =CONFIG_ISR_STACK_SIZE + MPU_GUARD_ALIGN_AND_SIZE
10003a64:	00000800 	.word	0x00000800

10003a68 <z_impl_k_thread_abort>:
#include <kswap.h>
#include <zephyr/wait_q.h>
#include <zephyr/sys/__assert.h>

void z_impl_k_thread_abort(k_tid_t thread)
{
10003a68:	b510      	push	{r4, lr}
	if (_current == thread) {
10003a6a:	4b0a      	ldr	r3, [pc, #40]	; (10003a94 <z_impl_k_thread_abort+0x2c>)
10003a6c:	689b      	ldr	r3, [r3, #8]
10003a6e:	4283      	cmp	r3, r0
10003a70:	d10d      	bne.n	10003a8e <z_impl_k_thread_abort+0x26>
 */
__STATIC_FORCEINLINE uint32_t __get_IPSR(void)
{
  uint32_t result;

  __ASM volatile ("MRS %0, ipsr" : "=r" (result) );
10003a72:	f3ef 8305 	mrs	r3, IPSR
		if (arch_is_in_isr()) {
10003a76:	2b00      	cmp	r3, #0
10003a78:	d009      	beq.n	10003a8e <z_impl_k_thread_abort+0x26>
			 * should no longer run after we return, so
			 * Trigger PendSV, in case we are in one of the
			 * situations where the isr check is true but there
			 * is not an implicit scheduler invocation.
			 */
			SCB->ICSR |= SCB_ICSR_PENDSVSET_Msk;
10003a7a:	2280      	movs	r2, #128	; 0x80
10003a7c:	4b06      	ldr	r3, [pc, #24]	; (10003a98 <z_impl_k_thread_abort+0x30>)
10003a7e:	0552      	lsls	r2, r2, #21
10003a80:	6859      	ldr	r1, [r3, #4]
10003a82:	430a      	orrs	r2, r1
10003a84:	605a      	str	r2, [r3, #4]
			/* Clear any system calls that may be pending
			 * as they have a higher priority than the PendSV
			 * handler and will check the stack of the thread
			 * being aborted.
			 */
			SCB->SHCSR &= ~SCB_SHCSR_SVCALLPENDED_Msk;
10003a86:	6a5a      	ldr	r2, [r3, #36]	; 0x24
10003a88:	4904      	ldr	r1, [pc, #16]	; (10003a9c <z_impl_k_thread_abort+0x34>)
10003a8a:	400a      	ands	r2, r1
10003a8c:	625a      	str	r2, [r3, #36]	; 0x24
		}
	}

	z_thread_abort(thread);
10003a8e:	f001 fbd5 	bl	1000523c <z_thread_abort>
}
10003a92:	bd10      	pop	{r4, pc}
10003a94:	20000264 	.word	0x20000264
10003a98:	e000ed00 	.word	0xe000ed00
10003a9c:	ffff7fff 	.word	0xffff7fff

10003aa0 <__stdout_hook_install>:

static int (*_stdout_hook)(int c) = _stdout_hook_default;

void __stdout_hook_install(int (*hook)(int c))
{
	_stdout_hook = hook;
10003aa0:	4b01      	ldr	r3, [pc, #4]	; (10003aa8 <__stdout_hook_install+0x8>)
10003aa2:	6018      	str	r0, [r3, #0]
}
10003aa4:	4770      	bx	lr
10003aa6:	46c0      	nop			; (mov r8, r8)
10003aa8:	200000a8 	.word	0x200000a8

10003aac <rp2040_init>:
 *
 * \param addr Address of writable register
 * \param mask Bit-mask specifying bits to set
 */
__force_inline static void hw_set_bits(io_rw_32 *addr, uint32_t mask) {
    *(io_rw_32 *) hw_set_alias_untyped((volatile void *) addr) = mask;
10003aac:	4b0e      	ldr	r3, [pc, #56]	; (10003ae8 <rp2040_init+0x3c>)
10003aae:	4a0f      	ldr	r2, [pc, #60]	; (10003aec <rp2040_init+0x40>)
#endif

LOG_MODULE_REGISTER(soc, CONFIG_SOC_LOG_LEVEL);

static int rp2040_init(const struct device *arg)
{
10003ab0:	b570      	push	{r4, r5, r6, lr}
10003ab2:	601a      	str	r2, [r3, #0]
 *
 * \param addr Address of writable register
 * \param mask Bit-mask specifying bits to clear
 */
__force_inline static void hw_clear_bits(io_rw_32 *addr, uint32_t mask) {
    *(io_rw_32 *) hw_clear_alias_untyped((volatile void *) addr) = mask;
10003ab4:	4d0e      	ldr	r5, [pc, #56]	; (10003af0 <rp2040_init+0x44>)
10003ab6:	4b0f      	ldr	r3, [pc, #60]	; (10003af4 <rp2040_init+0x48>)
 *
 * \param bits Bit pattern indicating blocks to unreset. See \ref reset_bitmask
 */
static inline void unreset_block_wait(uint32_t bits) {
    hw_clear_bits(&resets_hw->reset, bits);
    while (~resets_hw->reset_done & bits)
10003ab8:	4c0f      	ldr	r4, [pc, #60]	; (10003af8 <rp2040_init+0x4c>)
10003aba:	602b      	str	r3, [r5, #0]
10003abc:	0019      	movs	r1, r3
10003abe:	68a2      	ldr	r2, [r4, #8]
10003ac0:	4391      	bics	r1, r2
10003ac2:	d1fb      	bne.n	10003abc <rp2040_init+0x10>
			   ~(RESETS_RESET_ADC_BITS | RESETS_RESET_RTC_BITS |
			     RESETS_RESET_SPI0_BITS | RESETS_RESET_SPI1_BITS |
			     RESETS_RESET_UART0_BITS | RESETS_RESET_UART1_BITS |
			     RESETS_RESET_USBCTRL_BITS | RESETS_RESET_PWM_BITS));

	clocks_init();
10003ac4:	f000 fd0c 	bl	100044e0 <clocks_init>
10003ac8:	4b0c      	ldr	r3, [pc, #48]	; (10003afc <rp2040_init+0x50>)
10003aca:	602b      	str	r3, [r5, #0]
10003acc:	68a3      	ldr	r3, [r4, #8]
10003ace:	01db      	lsls	r3, r3, #7
10003ad0:	3380      	adds	r3, #128	; 0x80
10003ad2:	d1fb      	bne.n	10003acc <rp2040_init+0x20>
	__asm__ volatile("mrs %0, PRIMASK;"
10003ad4:	f3ef 8310 	mrs	r3, PRIMASK
10003ad8:	b672      	cpsid	i
	if (key != 0U) {
10003ada:	2b00      	cmp	r3, #0
10003adc:	d102      	bne.n	10003ae4 <rp2040_init+0x38>
	__asm__ volatile(
10003ade:	b662      	cpsie	i
10003ae0:	f3bf 8f6f 	isb	sy
	NMI_INIT();

	irq_unlock(key);

	return 0;
}
10003ae4:	2000      	movs	r0, #0
10003ae6:	bd70      	pop	{r4, r5, r6, pc}
10003ae8:	4000e000 	.word	0x4000e000
10003aec:	ffffcdbf 	.word	0xffffcdbf
10003af0:	4000f000 	.word	0x4000f000
10003af4:	003c3ffe 	.word	0x003c3ffe
10003af8:	4000c000 	.word	0x4000c000
10003afc:	01ffffff 	.word	0x01ffffff

10003b00 <adc_gain_invert>:

#include <zephyr/drivers/adc.h>

int adc_gain_invert(enum adc_gain gain,
		    int32_t *value)
{
10003b00:	b570      	push	{r4, r5, r6, lr}
10003b02:	000c      	movs	r4, r1
		[ADC_GAIN_64] = {.mul = 1, .div = 64},
		[ADC_GAIN_128] = {.mul = 1, .div = 128},
	};
	int rv = -EINVAL;

	if ((uint8_t)gain < ARRAY_SIZE(gains)) {
10003b04:	2813      	cmp	r0, #19
10003b06:	d80f      	bhi.n	10003b28 <adc_gain_invert+0x28>
		const struct gain_desc *gdp = &gains[gain];

		if ((gdp->mul != 0) && (gdp->div != 0)) {
10003b08:	4a09      	ldr	r2, [pc, #36]	; (10003b30 <adc_gain_invert+0x30>)
10003b0a:	0040      	lsls	r0, r0, #1
10003b0c:	5c85      	ldrb	r5, [r0, r2]
10003b0e:	2d00      	cmp	r5, #0
10003b10:	d00a      	beq.n	10003b28 <adc_gain_invert+0x28>
10003b12:	1812      	adds	r2, r2, r0
10003b14:	7851      	ldrb	r1, [r2, #1]
10003b16:	2900      	cmp	r1, #0
10003b18:	d006      	beq.n	10003b28 <adc_gain_invert+0x28>
			*value = (gdp->mul * *value) / gdp->div;
10003b1a:	6820      	ldr	r0, [r4, #0]
10003b1c:	4368      	muls	r0, r5
10003b1e:	f7fc fb9d 	bl	1000025c <__divsi3>
10003b22:	6020      	str	r0, [r4, #0]
			rv = 0;
10003b24:	2000      	movs	r0, #0
		}
	}

	return rv;
}
10003b26:	bd70      	pop	{r4, r5, r6, pc}
	int rv = -EINVAL;
10003b28:	2016      	movs	r0, #22
10003b2a:	4240      	negs	r0, r0
	return rv;
10003b2c:	e7fb      	b.n	10003b26 <adc_gain_invert+0x26>
10003b2e:	46c0      	nop			; (mov r8, r8)
10003b30:	100069a5 	.word	0x100069a5

10003b34 <adc_rpi_init>:
 * @param dev RaspberryPi Pico ADC device
 *
 * @return 0 on success
 */
static int adc_rpi_init(const struct device *dev)
{
10003b34:	b510      	push	{r4, lr}
	const struct adc_rpi_config *config = dev->config;
	struct adc_rpi_data *data = dev->data;

	config->irq_configure();
10003b36:	6843      	ldr	r3, [r0, #4]
	struct adc_rpi_data *data = dev->data;
10003b38:	6904      	ldr	r4, [r0, #16]
	config->irq_configure();
10003b3a:	685b      	ldr	r3, [r3, #4]
10003b3c:	4798      	blx	r3
 * \param addr Address of writable register
 * \param values Bits values
 * \param write_mask Mask of bits to change
 */
__force_inline static void hw_write_masked(io_rw_32 *addr, uint32_t values, uint32_t write_mask) {
    hw_xor_bits(addr, (*addr ^ values) & write_mask);
10003b3e:	4b0e      	ldr	r3, [pc, #56]	; (10003b78 <adc_rpi_init+0x44>)
10003b40:	681a      	ldr	r2, [r3, #0]
10003b42:	4b0e      	ldr	r3, [pc, #56]	; (10003b7c <adc_rpi_init+0x48>)
10003b44:	4053      	eors	r3, r2
10003b46:	4a0e      	ldr	r2, [pc, #56]	; (10003b80 <adc_rpi_init+0x4c>)
10003b48:	4013      	ands	r3, r2
    *(io_rw_32 *) hw_xor_alias_untyped((volatile void *) addr) = mask;
10003b4a:	4a0e      	ldr	r2, [pc, #56]	; (10003b84 <adc_rpi_init+0x50>)
10003b4c:	6013      	str	r3, [r2, #0]
 *
 * \param clkdiv If non-zero, conversion will be started at intervals rather than back to back.
 */
static inline void adc_set_clkdiv(float clkdiv) {
    invalid_params_if(ADC, clkdiv >= 1 << (ADC_DIV_INT_MSB - ADC_DIV_INT_LSB + 1));
    adc_hw->div = (uint32_t)(clkdiv * (float) (1 << ADC_DIV_INT_LSB));
10003b4e:	2200      	movs	r2, #0
10003b50:	4b0d      	ldr	r3, [pc, #52]	; (10003b88 <adc_rpi_init+0x54>)
10003b52:	611a      	str	r2, [r3, #16]
	adc_hw->cs = ADC_CS_EN_BITS;
10003b54:	3201      	adds	r2, #1
10003b56:	601a      	str	r2, [r3, #0]
	while (!(adc_hw->cs & ADC_CS_READY_BITS))
10003b58:	32ff      	adds	r2, #255	; 0xff
10003b5a:	6819      	ldr	r1, [r3, #0]
10003b5c:	4211      	tst	r1, r2
10003b5e:	d0fc      	beq.n	10003b5a <adc_rpi_init+0x26>
 *  \ingroup hardware_adc
 *
 * \param enabled Set to true to enable the ADC interrupts, false to disable
 */
static inline void adc_irq_set_enabled(bool enabled) {
    adc_hw->inte = !!enabled;
10003b60:	2201      	movs	r2, #1
10003b62:	619a      	str	r2, [r3, #24]
	k_sem_give(&ctx->lock);
}

static inline void adc_context_unlock_unconditionally(struct adc_context *ctx)
{
	if (!k_sem_count_get(&ctx->lock)) {
10003b64:	6ca3      	ldr	r3, [r4, #72]	; 0x48
10003b66:	2b00      	cmp	r3, #0
10003b68:	d103      	bne.n	10003b72 <adc_rpi_init+0x3e>
		k_sem_give(&ctx->lock);
10003b6a:	0020      	movs	r0, r4
10003b6c:	3040      	adds	r0, #64	; 0x40
		(void) arch_syscall_invoke1(parm0.x, K_SYSCALL_K_SEM_GIVE);
		return;
	}
#endif
	compiler_barrier();
	z_impl_k_sem_give(sem);
10003b6e:	f001 f879 	bl	10004c64 <z_impl_k_sem_give>
	adc_irq_set_enabled(true);

	adc_context_unlock_unconditionally(&data->ctx);

	return 0;
}
10003b72:	2000      	movs	r0, #0
10003b74:	bd10      	pop	{r4, pc}
10003b76:	46c0      	nop			; (mov r8, r8)
10003b78:	4004c008 	.word	0x4004c008
10003b7c:	01000007 	.word	0x01000007
10003b80:	0f00000f 	.word	0x0f00000f
10003b84:	4004d008 	.word	0x4004d008
10003b88:	4004c000 	.word	0x4004c000

10003b8c <adc_rpi_channel_setup>:
{
10003b8c:	b51f      	push	{r0, r1, r2, r3, r4, lr}
	if (channel_cfg->channel_id >= config->num_channels) {
10003b8e:	6840      	ldr	r0, [r0, #4]
10003b90:	790a      	ldrb	r2, [r1, #4]
10003b92:	7800      	ldrb	r0, [r0, #0]
10003b94:	06d3      	lsls	r3, r2, #27
10003b96:	0edb      	lsrs	r3, r3, #27
10003b98:	4298      	cmp	r0, r3
10003b9a:	d80e      	bhi.n	10003bba <adc_rpi_channel_setup+0x2e>
		LOG_ERR("unsupported channel id '%d'", channel_cfg->channel_id);
10003b9c:	2000      	movs	r0, #0
10003b9e:	9303      	str	r3, [sp, #12]
10003ba0:	4b1a      	ldr	r3, [pc, #104]	; (10003c0c <adc_rpi_channel_setup+0x80>)
10003ba2:	2201      	movs	r2, #1
10003ba4:	9302      	str	r3, [sp, #8]
10003ba6:	491a      	ldr	r1, [pc, #104]	; (10003c10 <adc_rpi_channel_setup+0x84>)
10003ba8:	0003      	movs	r3, r0
10003baa:	9001      	str	r0, [sp, #4]
10003bac:	9000      	str	r0, [sp, #0]
10003bae:	f001 ff2d 	bl	10005a0c <z_log_msg_runtime_create.constprop.0>
		return -ENOTSUP;
10003bb2:	2086      	movs	r0, #134	; 0x86
		return -EINVAL;
10003bb4:	4240      	negs	r0, r0
}
10003bb6:	b004      	add	sp, #16
10003bb8:	bd10      	pop	{r4, pc}
	if (channel_cfg->acquisition_time != ADC_ACQ_TIME_DEFAULT) {
10003bba:	8848      	ldrh	r0, [r1, #2]
10003bbc:	2800      	cmp	r0, #0
10003bbe:	d00b      	beq.n	10003bd8 <adc_rpi_channel_setup+0x4c>
		LOG_ERR("Acquisition time is not valid");
10003bc0:	2000      	movs	r0, #0
10003bc2:	4b14      	ldr	r3, [pc, #80]	; (10003c14 <adc_rpi_channel_setup+0x88>)
10003bc4:	4912      	ldr	r1, [pc, #72]	; (10003c10 <adc_rpi_channel_setup+0x84>)
10003bc6:	9302      	str	r3, [sp, #8]
10003bc8:	0003      	movs	r3, r0
10003bca:	9001      	str	r0, [sp, #4]
10003bcc:	9000      	str	r0, [sp, #0]
		LOG_ERR("Gain is not valid");
10003bce:	2201      	movs	r2, #1
10003bd0:	f001 ff1c 	bl	10005a0c <z_log_msg_runtime_create.constprop.0>
		return -EINVAL;
10003bd4:	2016      	movs	r0, #22
10003bd6:	e7ed      	b.n	10003bb4 <adc_rpi_channel_setup+0x28>
	if (channel_cfg->differential) {
10003bd8:	2420      	movs	r4, #32
10003bda:	0013      	movs	r3, r2
10003bdc:	4023      	ands	r3, r4
10003bde:	4222      	tst	r2, r4
10003be0:	d009      	beq.n	10003bf6 <adc_rpi_channel_setup+0x6a>
		LOG_ERR("unsupported differential mode");
10003be2:	4b0d      	ldr	r3, [pc, #52]	; (10003c18 <adc_rpi_channel_setup+0x8c>)
10003be4:	2201      	movs	r2, #1
10003be6:	9302      	str	r3, [sp, #8]
10003be8:	4909      	ldr	r1, [pc, #36]	; (10003c10 <adc_rpi_channel_setup+0x84>)
10003bea:	0003      	movs	r3, r0
10003bec:	9001      	str	r0, [sp, #4]
10003bee:	9000      	str	r0, [sp, #0]
10003bf0:	f001 ff0c 	bl	10005a0c <z_log_msg_runtime_create.constprop.0>
		return -ENOTSUP;
10003bf4:	e7dd      	b.n	10003bb2 <adc_rpi_channel_setup+0x26>
	if (channel_cfg->gain != ADC_GAIN_1) {
10003bf6:	780a      	ldrb	r2, [r1, #0]
	return 0;
10003bf8:	0018      	movs	r0, r3
	if (channel_cfg->gain != ADC_GAIN_1) {
10003bfa:	2a08      	cmp	r2, #8
10003bfc:	d0db      	beq.n	10003bb6 <adc_rpi_channel_setup+0x2a>
		LOG_ERR("Gain is not valid");
10003bfe:	4a07      	ldr	r2, [pc, #28]	; (10003c1c <adc_rpi_channel_setup+0x90>)
10003c00:	4903      	ldr	r1, [pc, #12]	; (10003c10 <adc_rpi_channel_setup+0x84>)
10003c02:	9202      	str	r2, [sp, #8]
10003c04:	9301      	str	r3, [sp, #4]
10003c06:	9300      	str	r3, [sp, #0]
10003c08:	e7e1      	b.n	10003bce <adc_rpi_channel_setup+0x42>
10003c0a:	46c0      	nop			; (mov r8, r8)
10003c0c:	100069cd 	.word	0x100069cd
10003c10:	1000641c 	.word	0x1000641c
10003c14:	100069e9 	.word	0x100069e9
10003c18:	10006a07 	.word	0x10006a07
10003c1c:	10006a25 	.word	0x10006a25

10003c20 <adc_context_start_sampling>:
	data->channels = ctx->sequence.channels;
10003c20:	0002      	movs	r2, r0
{
10003c22:	b570      	push	{r4, r5, r6, lr}
	data->channels = ctx->sequence.channels;
10003c24:	6e83      	ldr	r3, [r0, #104]	; 0x68
10003c26:	329c      	adds	r2, #156	; 0x9c
10003c28:	6013      	str	r3, [r2, #0]
	data->repeat_buf = data->buf;
10003c2a:	0003      	movs	r3, r0
10003c2c:	3094      	adds	r0, #148	; 0x94
10003c2e:	6801      	ldr	r1, [r0, #0]
10003c30:	3398      	adds	r3, #152	; 0x98
10003c32:	6019      	str	r1, [r3, #0]
    *(io_rw_32 *) hw_set_alias_untyped((volatile void *) addr) = mask;
10003c34:	2180      	movs	r1, #128	; 0x80
10003c36:	4b0c      	ldr	r3, [pc, #48]	; (10003c68 <adc_context_start_sampling+0x48>)
10003c38:	0109      	lsls	r1, r1, #4
10003c3a:	6019      	str	r1, [r3, #0]
10003c3c:	2180      	movs	r1, #128	; 0x80
10003c3e:	2504      	movs	r5, #4
10003c40:	4c0a      	ldr	r4, [pc, #40]	; (10003c6c <adc_context_start_sampling+0x4c>)
10003c42:	00c9      	lsls	r1, r1, #3
10003c44:	6019      	str	r1, [r3, #0]
10003c46:	601d      	str	r5, [r3, #0]
10003c48:	6021      	str	r1, [r4, #0]
 */

static ALWAYS_INLINE unsigned int find_lsb_set(uint32_t op)
{
#ifdef CONFIG_TOOLCHAIN_HAS_BUILTIN_FFS
	return __builtin_ffs(op);
10003c4a:	6810      	ldr	r0, [r2, #0]
10003c4c:	f7fe fa9e 	bl	1000218c <__ffssi2>
    hw_xor_bits(addr, (*addr ^ values) & write_mask);
10003c50:	4b07      	ldr	r3, [pc, #28]	; (10003c70 <adc_context_start_sampling+0x50>)
	adc_select_input(find_lsb_set(data->channels) - 1);
10003c52:	3801      	subs	r0, #1
10003c54:	681b      	ldr	r3, [r3, #0]
    hw_write_masked(&adc_hw->cs, input << ADC_CS_AINSEL_LSB, ADC_CS_AINSEL_BITS);
10003c56:	0300      	lsls	r0, r0, #12
10003c58:	4058      	eors	r0, r3
10003c5a:	23e0      	movs	r3, #224	; 0xe0
10003c5c:	01db      	lsls	r3, r3, #7
10003c5e:	4018      	ands	r0, r3
    *(io_rw_32 *) hw_xor_alias_untyped((volatile void *) addr) = mask;
10003c60:	4b04      	ldr	r3, [pc, #16]	; (10003c74 <adc_context_start_sampling+0x54>)
10003c62:	6018      	str	r0, [r3, #0]
    *(io_rw_32 *) hw_set_alias_untyped((volatile void *) addr) = mask;
10003c64:	6025      	str	r5, [r4, #0]
}
10003c66:	bd70      	pop	{r4, r5, r6, pc}
10003c68:	4004e008 	.word	0x4004e008
10003c6c:	4004e000 	.word	0x4004e000
10003c70:	4004c000 	.word	0x4004c000
10003c74:	4004d000 	.word	0x4004d000

10003c78 <adc_rpi_read>:
{
10003c78:	b5f0      	push	{r4, r5, r6, r7, lr}
	k_sem_take(&ctx->lock, K_FOREVER);
10003c7a:	6903      	ldr	r3, [r0, #16]
10003c7c:	b087      	sub	sp, #28
10003c7e:	3340      	adds	r3, #64	; 0x40
10003c80:	0004      	movs	r4, r0
10003c82:	000d      	movs	r5, r1
10003c84:	9305      	str	r3, [sp, #20]
	return z_impl_k_sem_take(sem, timeout);
10003c86:	2201      	movs	r2, #1
10003c88:	4252      	negs	r2, r2
10003c8a:	17d3      	asrs	r3, r2, #31
10003c8c:	9805      	ldr	r0, [sp, #20]
10003c8e:	f001 f805 	bl	10004c9c <z_impl_k_sem_take>
	if (sequence->resolution > ADC_RPI_MAX_RESOLUTION ||
10003c92:	7c2b      	ldrb	r3, [r5, #16]
	const struct adc_rpi_config *config = dev->config;
10003c94:	6862      	ldr	r2, [r4, #4]
	if (sequence->resolution > ADC_RPI_MAX_RESOLUTION ||
10003c96:	1e59      	subs	r1, r3, #1
	struct adc_rpi_data *data = dev->data;
10003c98:	6924      	ldr	r4, [r4, #16]
	if (sequence->resolution > ADC_RPI_MAX_RESOLUTION ||
10003c9a:	290b      	cmp	r1, #11
10003c9c:	d912      	bls.n	10003cc4 <adc_rpi_read+0x4c>
		LOG_ERR("unsupported resolution %d", sequence->resolution);
10003c9e:	9303      	str	r3, [sp, #12]
10003ca0:	4940      	ldr	r1, [pc, #256]	; (10003da4 <adc_rpi_read+0x12c>)
10003ca2:	4b41      	ldr	r3, [pc, #260]	; (10003da8 <adc_rpi_read+0x130>)
		LOG_ERR("unsupported channels in mask: 0x%08x",
10003ca4:	2000      	movs	r0, #0
10003ca6:	9302      	str	r3, [sp, #8]
10003ca8:	2201      	movs	r2, #1
10003caa:	0003      	movs	r3, r0
10003cac:	9001      	str	r0, [sp, #4]
10003cae:	9000      	str	r0, [sp, #0]
10003cb0:	f001 feac 	bl	10005a0c <z_log_msg_runtime_create.constprop.0>
		return -ENOTSUP;
10003cb4:	2486      	movs	r4, #134	; 0x86
		return -ENOMEM;
10003cb6:	4264      	negs	r4, r4
	z_impl_k_sem_give(sem);
10003cb8:	9805      	ldr	r0, [sp, #20]
10003cba:	f000 ffd3 	bl	10004c64 <z_impl_k_sem_give>
}
10003cbe:	0020      	movs	r0, r4
10003cc0:	b007      	add	sp, #28
10003cc2:	bdf0      	pop	{r4, r5, r6, r7, pc}
	if (find_msb_set(sequence->channels) > config->num_channels) {
10003cc4:	686f      	ldr	r7, [r5, #4]
10003cc6:	7816      	ldrb	r6, [r2, #0]
	if (op == 0) {
10003cc8:	2f00      	cmp	r7, #0
10003cca:	d11f      	bne.n	10003d0c <adc_rpi_read+0x94>
	for (mask = BIT(config->num_channels - 1); mask != 0; mask >>= 1) {
10003ccc:	2201      	movs	r2, #1
10003cce:	3e01      	subs	r6, #1
10003cd0:	40b2      	lsls	r2, r6
	uint8_t channels = 0;
10003cd2:	2300      	movs	r3, #0
		if (mask & sequence->channels) {
10003cd4:	423a      	tst	r2, r7
10003cd6:	d001      	beq.n	10003cdc <adc_rpi_read+0x64>
			channels++;
10003cd8:	3301      	adds	r3, #1
10003cda:	b2db      	uxtb	r3, r3
	for (mask = BIT(config->num_channels - 1); mask != 0; mask >>= 1) {
10003cdc:	0852      	lsrs	r2, r2, #1
10003cde:	d1f9      	bne.n	10003cd4 <adc_rpi_read+0x5c>
	if (sequence->options) {
10003ce0:	682a      	ldr	r2, [r5, #0]
	needed = channels * sizeof(uint16_t);
10003ce2:	005b      	lsls	r3, r3, #1
	if (sequence->options) {
10003ce4:	2a00      	cmp	r2, #0
10003ce6:	d002      	beq.n	10003cee <adc_rpi_read+0x76>
		needed *= (1 + sequence->options->extra_samplings);
10003ce8:	8992      	ldrh	r2, [r2, #12]
10003cea:	3201      	adds	r2, #1
10003cec:	4353      	muls	r3, r2
	if (sequence->buffer_size < needed) {
10003cee:	68ea      	ldr	r2, [r5, #12]
10003cf0:	429a      	cmp	r2, r3
10003cf2:	d216      	bcs.n	10003d22 <adc_rpi_read+0xaa>
		LOG_ERR("buffer size too small");
10003cf4:	2000      	movs	r0, #0
10003cf6:	4b2d      	ldr	r3, [pc, #180]	; (10003dac <adc_rpi_read+0x134>)
10003cf8:	2201      	movs	r2, #1
10003cfa:	9302      	str	r3, [sp, #8]
10003cfc:	4929      	ldr	r1, [pc, #164]	; (10003da4 <adc_rpi_read+0x12c>)
10003cfe:	0003      	movs	r3, r0
10003d00:	9001      	str	r0, [sp, #4]
10003d02:	9000      	str	r0, [sp, #0]
10003d04:	f001 fe82 	bl	10005a0c <z_log_msg_runtime_create.constprop.0>
		return -ENOMEM;
10003d08:	240c      	movs	r4, #12
10003d0a:	e7d4      	b.n	10003cb6 <adc_rpi_read+0x3e>
	return 32 - __builtin_clz(op);
10003d0c:	0038      	movs	r0, r7
10003d0e:	f7fc fb39 	bl	10000384 <__clzsi2>
10003d12:	2320      	movs	r3, #32
10003d14:	1a1b      	subs	r3, r3, r0
	if (find_msb_set(sequence->channels) > config->num_channels) {
10003d16:	42b3      	cmp	r3, r6
10003d18:	d9d8      	bls.n	10003ccc <adc_rpi_read+0x54>
		LOG_ERR("unsupported channels in mask: 0x%08x",
10003d1a:	4922      	ldr	r1, [pc, #136]	; (10003da4 <adc_rpi_read+0x12c>)
10003d1c:	4b24      	ldr	r3, [pc, #144]	; (10003db0 <adc_rpi_read+0x138>)
10003d1e:	9703      	str	r7, [sp, #12]
10003d20:	e7c0      	b.n	10003ca4 <adc_rpi_read+0x2c>
	data->buf = sequence->buffer;
10003d22:	0023      	movs	r3, r4
10003d24:	68aa      	ldr	r2, [r5, #8]
10003d26:	3394      	adds	r3, #148	; 0x94
10003d28:	601a      	str	r2, [r3, #0]
}

static inline void adc_context_start_read(struct adc_context *ctx,
					  const struct adc_sequence *sequence)
{
	ctx->sequence = *sequence;
10003d2a:	002a      	movs	r2, r5
10003d2c:	3b30      	subs	r3, #48	; 0x30
10003d2e:	ca43      	ldmia	r2!, {r0, r1, r6}
10003d30:	c343      	stmia	r3!, {r0, r1, r6}
	ctx->status = 0;
10003d32:	2600      	movs	r6, #0
	ctx->sequence = *sequence;
10003d34:	ca03      	ldmia	r2!, {r0, r1}
10003d36:	c303      	stmia	r3!, {r0, r1}
	ctx->status = 0;
10003d38:	6626      	str	r6, [r4, #96]	; 0x60

	if (sequence->options) {
10003d3a:	682b      	ldr	r3, [r5, #0]
10003d3c:	42b3      	cmp	r3, r6
10003d3e:	d02c      	beq.n	10003d9a <adc_rpi_read+0x122>
		ctx->options = *sequence->options;
10003d40:	0022      	movs	r2, r4
10003d42:	3278      	adds	r2, #120	; 0x78
10003d44:	cb23      	ldmia	r3!, {r0, r1, r5}
10003d46:	c223      	stmia	r2!, {r0, r1, r5}
10003d48:	681b      	ldr	r3, [r3, #0]
		ctx->sequence.options = &ctx->options;
		ctx->sampling_index = 0U;
10003d4a:	0025      	movs	r5, r4
		ctx->options = *sequence->options;
10003d4c:	6013      	str	r3, [r2, #0]
		ctx->sequence.options = &ctx->options;
10003d4e:	0023      	movs	r3, r4
10003d50:	3378      	adds	r3, #120	; 0x78
10003d52:	6663      	str	r3, [r4, #100]	; 0x64
		ctx->sampling_index = 0U;
10003d54:	821e      	strh	r6, [r3, #16]

		if (ctx->options.interval_us != 0U) {
10003d56:	6fa3      	ldr	r3, [r4, #120]	; 0x78
		ctx->sampling_index = 0U;
10003d58:	3508      	adds	r5, #8
		if (ctx->options.interval_us != 0U) {
10003d5a:	42b3      	cmp	r3, r6
10003d5c:	d01d      	beq.n	10003d9a <adc_rpi_read+0x122>
		union { uintptr_t x; atomic_val_t val; } parm1 = { .val = value };
		return (atomic_val_t) arch_syscall_invoke2(parm0.x, parm1.x, K_SYSCALL_ATOMIC_SET);
	}
#endif
	compiler_barrier();
	return z_impl_atomic_set(target, value);
10003d5e:	0031      	movs	r1, r6
10003d60:	0020      	movs	r0, r4
10003d62:	f002 fa6d 	bl	10006240 <z_impl_atomic_set>
	k_timer_start(&ctx->timer, K_NO_WAIT, K_USEC(ctx->options.interval_us));
10003d66:	0031      	movs	r1, r6
	 * the same mathematical relationship, each expressed with and
	 * without truncation to 32 bits (I couldn't find a way to make
	 * the compiler correctly guess at the 32 bit result otherwise).
	 */
	if (div_ratio) {
		t += off;
10003d68:	2263      	movs	r2, #99	; 0x63
10003d6a:	2300      	movs	r3, #0
10003d6c:	6fa0      	ldr	r0, [r4, #120]	; 0x78
10003d6e:	1880      	adds	r0, r0, r2
10003d70:	4159      	adcs	r1, r3
		if (result32 && (t < BIT64(32))) {
			return ((uint32_t)t) / (from_hz / to_hz);
		} else {
			return t / ((uint64_t)from_hz / to_hz);
10003d72:	2264      	movs	r2, #100	; 0x64
10003d74:	2300      	movs	r3, #0
10003d76:	f7fc fb43 	bl	10000400 <__aeabi_uldivmod>
	z_impl_k_timer_start(timer, duration, period);
10003d7a:	2200      	movs	r2, #0
10003d7c:	9000      	str	r0, [sp, #0]
10003d7e:	2300      	movs	r3, #0
10003d80:	0028      	movs	r0, r5
10003d82:	9101      	str	r1, [sp, #4]
10003d84:	f001 fc80 	bl	10005688 <z_impl_k_timer_start>
	k_sem_take(&ctx->sync, K_FOREVER);
10003d88:	0020      	movs	r0, r4
	return z_impl_k_sem_take(sem, timeout);
10003d8a:	2201      	movs	r2, #1
10003d8c:	4252      	negs	r2, r2
10003d8e:	17d3      	asrs	r3, r2, #31
10003d90:	3050      	adds	r0, #80	; 0x50
10003d92:	f000 ff83 	bl	10004c9c <z_impl_k_sem_take>
	return ctx->status;
10003d96:	6e24      	ldr	r4, [r4, #96]	; 0x60
	return adc_context_wait_for_completion(&data->ctx);
10003d98:	e78e      	b.n	10003cb8 <adc_rpi_read+0x40>
			adc_context_enable_timer(ctx);
			return;
		}
	}

	adc_context_start_sampling(ctx);
10003d9a:	0020      	movs	r0, r4
10003d9c:	f7ff ff40 	bl	10003c20 <adc_context_start_sampling>
10003da0:	e7f2      	b.n	10003d88 <adc_rpi_read+0x110>
10003da2:	46c0      	nop			; (mov r8, r8)
10003da4:	1000641c 	.word	0x1000641c
10003da8:	10006a37 	.word	0x10006a37
10003dac:	10006a76 	.word	0x10006a76
10003db0:	10006a51 	.word	0x10006a51

10003db4 <adc_rpi_isr>:
    return !!(adc_hw->fcs & ADC_FCS_EMPTY_BITS);
10003db4:	2180      	movs	r1, #128	; 0x80
{
10003db6:	b5f8      	push	{r3, r4, r5, r6, r7, lr}
	return (uint16_t)adc_hw->result;
10003db8:	4d34      	ldr	r5, [pc, #208]	; (10003e8c <adc_rpi_isr+0xd8>)
	struct adc_rpi_data *data = dev->data;
10003dba:	6904      	ldr	r4, [r0, #16]
	return (uint16_t)adc_hw->result;
10003dbc:	686a      	ldr	r2, [r5, #4]
    return (adc_hw->cs & ADC_CS_AINSEL_BITS) >> ADC_CS_AINSEL_LSB;
10003dbe:	682b      	ldr	r3, [r5, #0]
10003dc0:	b292      	uxth	r2, r2
10003dc2:	045b      	lsls	r3, r3, #17
10003dc4:	0f5b      	lsrs	r3, r3, #29
    return !!(adc_hw->fcs & ADC_FCS_EMPTY_BITS);
10003dc6:	0049      	lsls	r1, r1, #1
10003dc8:	68ae      	ldr	r6, [r5, #8]
	while (!adc_fifo_is_empty()) {
10003dca:	420e      	tst	r6, r1
10003dcc:	d00a      	beq.n	10003de4 <adc_rpi_isr+0x30>
	return (adc_hw->cs & ADC_CS_ERR_BITS) ? true : false;
10003dce:	6829      	ldr	r1, [r5, #0]
	if (adc_get_err()) {
10003dd0:	0589      	lsls	r1, r1, #22
10003dd2:	d509      	bpl.n	10003de8 <adc_rpi_isr+0x34>
		ctx->status = status;
10003dd4:	2305      	movs	r3, #5
10003dd6:	425b      	negs	r3, r3
10003dd8:	6623      	str	r3, [r4, #96]	; 0x60
	k_sem_give(&ctx->sync);
10003dda:	0020      	movs	r0, r4
10003ddc:	3050      	adds	r0, #80	; 0x50
	z_impl_k_sem_give(sem);
10003dde:	f000 ff41 	bl	10004c64 <z_impl_k_sem_give>
}
10003de2:	e038      	b.n	10003e56 <adc_rpi_isr+0xa2>
    return (uint16_t)adc_hw->fifo;
10003de4:	68ee      	ldr	r6, [r5, #12]
10003de6:	e7ef      	b.n	10003dc8 <adc_rpi_isr+0x14>
	*data->buf++ = result;
10003de8:	0026      	movs	r6, r4
10003dea:	3694      	adds	r6, #148	; 0x94
10003dec:	6831      	ldr	r1, [r6, #0]
10003dee:	1c8f      	adds	r7, r1, #2
10003df0:	6037      	str	r7, [r6, #0]
10003df2:	800a      	strh	r2, [r1, #0]
	data->channels &= ~(BIT(ainsel));
10003df4:	2201      	movs	r2, #1
10003df6:	0021      	movs	r1, r4
10003df8:	409a      	lsls	r2, r3
10003dfa:	319c      	adds	r1, #156	; 0x9c
10003dfc:	680b      	ldr	r3, [r1, #0]
10003dfe:	4393      	bics	r3, r2
10003e00:	600b      	str	r3, [r1, #0]
	if (data->channels == 0) {
10003e02:	d131      	bne.n	10003e68 <adc_rpi_isr+0xb4>
 * function if required and takes further actions accordingly.
 */
static inline void adc_context_on_sampling_done(struct adc_context *ctx,
						const struct device *dev)
{
	if (ctx->sequence.options) {
10003e04:	6e63      	ldr	r3, [r4, #100]	; 0x64
10003e06:	2b00      	cmp	r3, #0
10003e08:	d0e7      	beq.n	10003dda <adc_rpi_isr+0x26>
		enum adc_action action;
		bool finish = false;
		bool repeat = false;

		if (callback) {
			action = callback(dev,
10003e0a:	0025      	movs	r5, r4
		adc_sequence_callback callback = ctx->options.callback;
10003e0c:	6fe3      	ldr	r3, [r4, #124]	; 0x7c
			action = callback(dev,
10003e0e:	3588      	adds	r5, #136	; 0x88
10003e10:	882a      	ldrh	r2, [r5, #0]
		if (callback) {
10003e12:	2b00      	cmp	r3, #0
10003e14:	d005      	beq.n	10003e22 <adc_rpi_isr+0x6e>
			action = callback(dev,
10003e16:	3938      	subs	r1, #56	; 0x38
10003e18:	4798      	blx	r3
					  ctx->sampling_index);
		} else {
			action = ADC_ACTION_CONTINUE;
		}

		switch (action) {
10003e1a:	2801      	cmp	r0, #1
10003e1c:	d00a      	beq.n	10003e34 <adc_rpi_isr+0x80>
10003e1e:	2802      	cmp	r0, #2
10003e20:	d01a      	beq.n	10003e58 <adc_rpi_isr+0xa4>
		case ADC_ACTION_FINISH:
			finish = true;
			break;
		default: /* ADC_ACTION_CONTINUE */
			if (ctx->sampling_index <
			    ctx->options.extra_samplings) {
10003e22:	0022      	movs	r2, r4
10003e24:	3284      	adds	r2, #132	; 0x84
			if (ctx->sampling_index <
10003e26:	882b      	ldrh	r3, [r5, #0]
10003e28:	8812      	ldrh	r2, [r2, #0]
10003e2a:	429a      	cmp	r2, r3
10003e2c:	d914      	bls.n	10003e58 <adc_rpi_isr+0xa4>
				++ctx->sampling_index;
10003e2e:	3301      	adds	r3, #1
10003e30:	802b      	strh	r3, [r5, #0]
			} else {
				finish = true;
			}
		}

		if (!finish) {
10003e32:	e003      	b.n	10003e3c <adc_rpi_isr+0x88>
		data->buf = data->repeat_buf;
10003e34:	0023      	movs	r3, r4
10003e36:	3398      	adds	r3, #152	; 0x98
10003e38:	681b      	ldr	r3, [r3, #0]
10003e3a:	6033      	str	r3, [r6, #0]
			/*
			 * Immediately start the next sampling if working with
			 * a zero interval or if the timer expired again while
			 * the current sampling was in progress.
			 */
			if (ctx->options.interval_us == 0U) {
10003e3c:	6fa3      	ldr	r3, [r4, #120]	; 0x78
10003e3e:	2b00      	cmp	r3, #0
10003e40:	d103      	bne.n	10003e4a <adc_rpi_isr+0x96>
				adc_context_start_sampling(ctx);
			} else if (atomic_dec(&ctx->sampling_requested) > 1) {
				adc_context_start_sampling(ctx);
10003e42:	0020      	movs	r0, r4
10003e44:	f7ff feec 	bl	10003c20 <adc_context_start_sampling>
10003e48:	e005      	b.n	10003e56 <adc_rpi_isr+0xa2>
	return z_impl_atomic_sub(target, value);
10003e4a:	2101      	movs	r1, #1
10003e4c:	0020      	movs	r0, r4
10003e4e:	f002 f9ea 	bl	10006226 <z_impl_atomic_sub>
			} else if (atomic_dec(&ctx->sampling_requested) > 1) {
10003e52:	2801      	cmp	r0, #1
10003e54:	dcf5      	bgt.n	10003e42 <adc_rpi_isr+0x8e>
}
10003e56:	bdf8      	pop	{r3, r4, r5, r6, r7, pc}
			}

			return;
		}

		if (ctx->options.interval_us != 0U) {
10003e58:	6fa3      	ldr	r3, [r4, #120]	; 0x78
10003e5a:	2b00      	cmp	r3, #0
10003e5c:	d0bd      	beq.n	10003dda <adc_rpi_isr+0x26>
	k_timer_stop(&ctx->timer);
10003e5e:	0020      	movs	r0, r4
10003e60:	3008      	adds	r0, #8
	z_impl_k_timer_stop(timer);
10003e62:	f002 f9ba 	bl	100061da <z_impl_k_timer_stop>
}
10003e66:	e7b8      	b.n	10003dda <adc_rpi_isr+0x26>
	return __builtin_ffs(op);
10003e68:	0018      	movs	r0, r3
10003e6a:	f7fe f98f 	bl	1000218c <__ffssi2>
	ainsel = (uint8_t)(find_lsb_set(data->channels) - 1);
10003e6e:	3801      	subs	r0, #1
    hw_xor_bits(addr, (*addr ^ values) & write_mask);
10003e70:	682b      	ldr	r3, [r5, #0]
	adc_select_input(ainsel);
10003e72:	b2c0      	uxtb	r0, r0
    hw_write_masked(&adc_hw->cs, input << ADC_CS_AINSEL_LSB, ADC_CS_AINSEL_BITS);
10003e74:	0300      	lsls	r0, r0, #12
10003e76:	4058      	eors	r0, r3
10003e78:	23e0      	movs	r3, #224	; 0xe0
    *(io_rw_32 *) hw_set_alias_untyped((volatile void *) addr) = mask;
10003e7a:	2204      	movs	r2, #4
    hw_xor_bits(addr, (*addr ^ values) & write_mask);
10003e7c:	01db      	lsls	r3, r3, #7
10003e7e:	4018      	ands	r0, r3
    *(io_rw_32 *) hw_xor_alias_untyped((volatile void *) addr) = mask;
10003e80:	4b03      	ldr	r3, [pc, #12]	; (10003e90 <adc_rpi_isr+0xdc>)
10003e82:	6018      	str	r0, [r3, #0]
    *(io_rw_32 *) hw_set_alias_untyped((volatile void *) addr) = mask;
10003e84:	4b03      	ldr	r3, [pc, #12]	; (10003e94 <adc_rpi_isr+0xe0>)
10003e86:	601a      	str	r2, [r3, #0]
}
10003e88:	e7e5      	b.n	10003e56 <adc_rpi_isr+0xa2>
10003e8a:	46c0      	nop			; (mov r8, r8)
10003e8c:	4004c000 	.word	0x4004c000
10003e90:	4004d000 	.word	0x4004d000
10003e94:	4004e000 	.word	0x4004e000

10003e98 <uart_console_init>:
 * @brief Initialize one UART as the console/debug port
 *
 * @return 0 if successful, otherwise failed.
 */
static int uart_console_init(const struct device *arg)
{
10003e98:	b510      	push	{r4, lr}
10003e9a:	4808      	ldr	r0, [pc, #32]	; (10003ebc <uart_console_init+0x24>)
10003e9c:	f002 f892 	bl	10005fc4 <z_device_is_ready>

	ARG_UNUSED(arg);

	if (!device_is_ready(uart_console_dev)) {
10003ea0:	2800      	cmp	r0, #0
10003ea2:	d008      	beq.n	10003eb6 <uart_console_init+0x1e>
	__stdout_hook_install(console_out);
10003ea4:	4c06      	ldr	r4, [pc, #24]	; (10003ec0 <uart_console_init+0x28>)
10003ea6:	0020      	movs	r0, r4
10003ea8:	f7ff fdfa 	bl	10003aa0 <__stdout_hook_install>
	__printk_hook_install(console_out);
10003eac:	0020      	movs	r0, r4
10003eae:	f7fe fcfb 	bl	100028a8 <__printk_hook_install>
		return -ENODEV;
	}

	uart_console_hook_install();

	return 0;
10003eb2:	2000      	movs	r0, #0
}
10003eb4:	bd10      	pop	{r4, pc}
		return -ENODEV;
10003eb6:	2013      	movs	r0, #19
10003eb8:	4240      	negs	r0, r0
10003eba:	e7fb      	b.n	10003eb4 <uart_console_init+0x1c>
10003ebc:	100062c0 	.word	0x100062c0
10003ec0:	10003ec5 	.word	0x10003ec5

10003ec4 <console_out>:
{
10003ec4:	b570      	push	{r4, r5, r6, lr}
10003ec6:	0004      	movs	r4, r0
10003ec8:	4d07      	ldr	r5, [pc, #28]	; (10003ee8 <console_out+0x24>)
	if ('\n' == c) {
10003eca:	280a      	cmp	r0, #10
10003ecc:	d104      	bne.n	10003ed8 <console_out+0x14>
10003ece:	68ab      	ldr	r3, [r5, #8]
10003ed0:	210d      	movs	r1, #13
10003ed2:	0028      	movs	r0, r5
10003ed4:	685b      	ldr	r3, [r3, #4]
10003ed6:	4798      	blx	r3
10003ed8:	68ab      	ldr	r3, [r5, #8]
10003eda:	0028      	movs	r0, r5
10003edc:	685b      	ldr	r3, [r3, #4]
10003ede:	b2e1      	uxtb	r1, r4
10003ee0:	4798      	blx	r3
}
10003ee2:	0020      	movs	r0, r4
10003ee4:	bd70      	pop	{r4, r5, r6, pc}
10003ee6:	46c0      	nop			; (mov r8, r8)
10003ee8:	100062c0 	.word	0x100062c0

10003eec <gpio_rpi_isr>:
	.pin_interrupt_configure = gpio_rpi_pin_interrupt_configure,
	.manage_callback = gpio_rpi_manage_callback,
};

static void gpio_rpi_isr(const struct device *dev)
{
10003eec:	b5f7      	push	{r0, r1, r2, r4, r5, r6, r7, lr}
10003eee:	0006      	movs	r6, r0
	const io_rw_32 *status_reg;
	uint32_t events;
	uint32_t pin;

	irq_ctrl_base = &iobank0_hw->proc0_irq_ctrl;
	for (pin = 0; pin < NUM_BANK0_GPIOS; pin++) {
10003ef0:	2400      	movs	r4, #0
	struct gpio_rpi_data *data = dev->data;
10003ef2:	6903      	ldr	r3, [r0, #16]
10003ef4:	9301      	str	r3, [sp, #4]
		status_reg = &irq_ctrl_base->ints[pin / 8];
10003ef6:	08e3      	lsrs	r3, r4, #3
		events = (*status_reg >> 4 * (pin % 8)) & ALL_EVENTS;
10003ef8:	4a14      	ldr	r2, [pc, #80]	; (10003f4c <gpio_rpi_isr+0x60>)
10003efa:	3308      	adds	r3, #8
10003efc:	009b      	lsls	r3, r3, #2
10003efe:	589b      	ldr	r3, [r3, r2]
10003f00:	2207      	movs	r2, #7
10003f02:	4022      	ands	r2, r4
10003f04:	0092      	lsls	r2, r2, #2
10003f06:	40d3      	lsrs	r3, r2
		if (events) {
10003f08:	220f      	movs	r2, #15
10003f0a:	4213      	tst	r3, r2
10003f0c:	d103      	bne.n	10003f16 <gpio_rpi_isr+0x2a>
	for (pin = 0; pin < NUM_BANK0_GPIOS; pin++) {
10003f0e:	3401      	adds	r4, #1
10003f10:	2c1e      	cmp	r4, #30
10003f12:	d1f0      	bne.n	10003ef6 <gpio_rpi_isr+0xa>
			gpio_acknowledge_irq(pin, ALL_EVENTS);
			gpio_fire_callbacks(&data->callbacks, dev, BIT(pin));
		}
	}
}
10003f14:	bdf7      	pop	{r0, r1, r2, r4, r5, r6, r7, pc}
			gpio_acknowledge_irq(pin, ALL_EVENTS);
10003f16:	210f      	movs	r1, #15
10003f18:	0020      	movs	r0, r4
10003f1a:	f000 fc27 	bl	1000476c <gpio_acknowledge_irq>
			gpio_fire_callbacks(&data->callbacks, dev, BIT(pin));
10003f1e:	9b01      	ldr	r3, [sp, #4]
10003f20:	6859      	ldr	r1, [r3, #4]
					const struct device *port,
					uint32_t pins)
{
	struct gpio_callback *cb, *tmp;

	SYS_SLIST_FOR_EACH_CONTAINER_SAFE(list, cb, tmp, node) {
10003f22:	2900      	cmp	r1, #0
10003f24:	d0f3      	beq.n	10003f0e <gpio_rpi_isr+0x22>
10003f26:	2701      	movs	r7, #1
10003f28:	40a7      	lsls	r7, r4

#define SYS_SLIST_STATIC_INIT(ptr_to_list) {NULL, NULL}

static inline sys_snode_t *z_snode_next_peek(sys_snode_t *node)
{
	return node->next;
10003f2a:	680d      	ldr	r5, [r1, #0]
10003f2c:	2900      	cmp	r1, #0
10003f2e:	d0ee      	beq.n	10003f0e <gpio_rpi_isr+0x22>
		if (cb->pin_mask & pins) {
10003f30:	688b      	ldr	r3, [r1, #8]
10003f32:	001a      	movs	r2, r3
10003f34:	403a      	ands	r2, r7
10003f36:	423b      	tst	r3, r7
10003f38:	d002      	beq.n	10003f40 <gpio_rpi_isr+0x54>
			__ASSERT(cb->handler, "No callback handler!");
			cb->handler(port, cb, cb->pin_mask & pins);
10003f3a:	0030      	movs	r0, r6
10003f3c:	684b      	ldr	r3, [r1, #4]
10003f3e:	4798      	blx	r3
	SYS_SLIST_FOR_EACH_CONTAINER_SAFE(list, cb, tmp, node) {
10003f40:	1e2b      	subs	r3, r5, #0
10003f42:	d000      	beq.n	10003f46 <gpio_rpi_isr+0x5a>
10003f44:	682b      	ldr	r3, [r5, #0]
10003f46:	0029      	movs	r1, r5
10003f48:	001d      	movs	r5, r3
10003f4a:	e7ef      	b.n	10003f2c <gpio_rpi_isr+0x40>
10003f4c:	40014100 	.word	0x40014100

10003f50 <z_log_msg_runtime_create.constprop.0>:
static inline void z_log_msg_runtime_create(uint8_t domain_id,
10003f50:	b57f      	push	{r0, r1, r2, r3, r4, r5, r6, lr}
	va_start(ap, fmt);
10003f52:	ab0b      	add	r3, sp, #44	; 0x2c
10003f54:	9305      	str	r3, [sp, #20]
		va_end(parm7.val);
		return;
	}
#endif
	compiler_barrier();
	z_impl_z_log_msg_runtime_vcreate(domain_id, source, level, data, dlen, package_flags, fmt, ap);
10003f56:	2000      	movs	r0, #0
10003f58:	9303      	str	r3, [sp, #12]
10003f5a:	4b05      	ldr	r3, [pc, #20]	; (10003f70 <z_log_msg_runtime_create.constprop.0+0x20>)
10003f5c:	2201      	movs	r2, #1
10003f5e:	9302      	str	r3, [sp, #8]
10003f60:	9001      	str	r0, [sp, #4]
10003f62:	0003      	movs	r3, r0
10003f64:	9000      	str	r0, [sp, #0]
10003f66:	f7ff f93b 	bl	100031e0 <z_impl_z_log_msg_runtime_vcreate>
}
10003f6a:	b007      	add	sp, #28
10003f6c:	bd00      	pop	{pc}
10003f6e:	46c0      	nop			; (mov r8, r8)
10003f70:	10006aaf 	.word	0x10006aaf

10003f74 <pwm_rpi_init>:
	.get_cycles_per_sec = pwm_rpi_get_cycles_per_sec,
	.set_cycles = pwm_rpi_set_cycles,
};

static int pwm_rpi_init(const struct device *dev)
{
10003f74:	b5f0      	push	{r4, r5, r6, r7, lr}
	const struct pwm_rpi_config *cfg = dev->config;
10003f76:	6845      	ldr	r5, [r0, #4]
{
10003f78:	b087      	sub	sp, #28
				      uint8_t id)
{
	int ret;
	const struct pinctrl_state *state;

	ret = pinctrl_lookup_state(config, id, &state);
10003f7a:	2100      	movs	r1, #0
10003f7c:	69e8      	ldr	r0, [r5, #28]
10003f7e:	aa05      	add	r2, sp, #20
10003f80:	f001 fe6b 	bl	10005c5a <pinctrl_lookup_state>
10003f84:	1e04      	subs	r4, r0, #0
	if (ret < 0) {
10003f86:	db07      	blt.n	10003f98 <pwm_rpi_init+0x24>
		return ret;
	}

	return pinctrl_apply_state_direct(config, state);
10003f88:	9b05      	ldr	r3, [sp, #20]
	return pinctrl_configure_pins(state->pins, state->pin_cnt, reg);
10003f8a:	2200      	movs	r2, #0
10003f8c:	7919      	ldrb	r1, [r3, #4]
10003f8e:	6818      	ldr	r0, [r3, #0]
10003f90:	f001 fe76 	bl	10005c80 <pinctrl_configure_pins>
10003f94:	1e04      	subs	r4, r0, #0
	pwm_config slice_cfg;
	size_t slice_idx;
	int err;

	err = pinctrl_apply_state(cfg->pcfg, PINCTRL_STATE_DEFAULT);
	if (err) {
10003f96:	d00d      	beq.n	10003fb4 <pwm_rpi_init+0x40>
		LOG_ERR("Failed to configure pins for PWM. err=%d", err);
10003f98:	2000      	movs	r0, #0
10003f9a:	4b1c      	ldr	r3, [pc, #112]	; (1000400c <pwm_rpi_init+0x98>)
10003f9c:	2201      	movs	r2, #1
10003f9e:	9302      	str	r3, [sp, #8]
10003fa0:	491b      	ldr	r1, [pc, #108]	; (10004010 <pwm_rpi_init+0x9c>)
10003fa2:	0003      	movs	r3, r0
10003fa4:	9403      	str	r4, [sp, #12]
10003fa6:	9001      	str	r0, [sp, #4]
10003fa8:	9000      	str	r0, [sp, #0]
10003faa:	f7ff ffd1 	bl	10003f50 <z_log_msg_runtime_create.constprop.0>
					cfg->slice_configs[slice_idx].frac);
		pwm_set_enabled(slice_idx, true);
	}

	return 0;
}
10003fae:	0020      	movs	r0, r4
10003fb0:	b007      	add	sp, #28
10003fb2:	bdf0      	pop	{r4, r5, r6, r7, pc}
	for (slice_idx = 0; slice_idx < NUM_PWM_SLICES; slice_idx++) {
10003fb4:	0021      	movs	r1, r4
	if (err) {
10003fb6:	4817      	ldr	r0, [pc, #92]	; (10004014 <pwm_rpi_init+0xa0>)
10003fb8:	1d2b      	adds	r3, r5, #4
 * \param start If true the PWM will be started running once configured. If false you will need to start
 *  manually using \ref pwm_set_enabled() or \ref pwm_set_mask_enabled()
 */
static inline void pwm_init(uint slice_num, pwm_config *c, bool start) {
    check_slice_num_param(slice_num);
    pwm_hw->slice[slice_num].csr = 0;
10003fba:	2214      	movs	r2, #20

    pwm_hw->slice[slice_num].ctr = PWM_CH0_CTR_RESET;
10003fbc:	4f16      	ldr	r7, [pc, #88]	; (10004018 <pwm_rpi_init+0xa4>)
10003fbe:	434a      	muls	r2, r1
10003fc0:	46bc      	mov	ip, r7
10003fc2:	4494      	add	ip, r2
    pwm_hw->slice[slice_num].csr = 0;
10003fc4:	2600      	movs	r6, #0
    pwm_hw->slice[slice_num].ctr = PWM_CH0_CTR_RESET;
10003fc6:	4667      	mov	r7, ip
10003fc8:	4d12      	ldr	r5, [pc, #72]	; (10004014 <pwm_rpi_init+0xa0>)
	for (slice_idx = 0; slice_idx < NUM_PWM_SLICES; slice_idx++) {
10003fca:	3101      	adds	r1, #1
10003fcc:	1955      	adds	r5, r2, r5
    pwm_hw->slice[slice_num].csr = 0;
10003fce:	602e      	str	r6, [r5, #0]
    pwm_hw->slice[slice_num].ctr = PWM_CH0_CTR_RESET;
10003fd0:	603e      	str	r6, [r7, #0]
    pwm_hw->slice[slice_num].cc = PWM_CH0_CC_RESET;
10003fd2:	4f12      	ldr	r7, [pc, #72]	; (1000401c <pwm_rpi_init+0xa8>)
10003fd4:	46bc      	mov	ip, r7
10003fd6:	4494      	add	ip, r2
10003fd8:	4667      	mov	r7, ip
10003fda:	603e      	str	r6, [r7, #0]
    pwm_hw->slice[slice_num].top = c->top;
10003fdc:	4f10      	ldr	r7, [pc, #64]	; (10004020 <pwm_rpi_init+0xac>)
10003fde:	19d2      	adds	r2, r2, r7
10003fe0:	4f10      	ldr	r7, [pc, #64]	; (10004024 <pwm_rpi_init+0xb0>)
10003fe2:	6017      	str	r7, [r2, #0]
    pwm_hw->slice[slice_num].div = c->div;
10003fe4:	2210      	movs	r2, #16
10003fe6:	606a      	str	r2, [r5, #4]
    pwm_hw->slice[slice_num].csr = c->csr | (bool_to_bit(start) << PWM_CH0_CSR_EN_LSB);
10003fe8:	602e      	str	r6, [r5, #0]
 */
static inline void pwm_set_clkdiv_int_frac(uint slice_num, uint8_t integer, uint8_t fract) {
    check_slice_num_param(slice_num);
    valid_params_if(PWM, integer >= 1);
    valid_params_if(PWM, fract < 16);
    pwm_hw->slice[slice_num].div = (((uint)integer) << PWM_CH0_DIV_INT_LSB) | (((uint)fract) << PWM_CH0_DIV_FRAC_LSB);
10003fea:	781a      	ldrb	r2, [r3, #0]
10003fec:	785e      	ldrb	r6, [r3, #1]
10003fee:	0112      	lsls	r2, r2, #4
10003ff0:	4332      	orrs	r2, r6
10003ff2:	606a      	str	r2, [r5, #4]
    hw_xor_bits(addr, (*addr ^ values) & write_mask);
10003ff4:	2501      	movs	r5, #1
10003ff6:	6802      	ldr	r2, [r0, #0]
10003ff8:	3303      	adds	r3, #3
10003ffa:	4395      	bics	r5, r2
    *(io_rw_32 *) hw_xor_alias_untyped((volatile void *) addr) = mask;
10003ffc:	2280      	movs	r2, #128	; 0x80
10003ffe:	0152      	lsls	r2, r2, #5
10004000:	4302      	orrs	r2, r0
10004002:	6015      	str	r5, [r2, #0]
10004004:	3014      	adds	r0, #20
10004006:	2908      	cmp	r1, #8
10004008:	d1d7      	bne.n	10003fba <pwm_rpi_init+0x46>
1000400a:	e7d0      	b.n	10003fae <pwm_rpi_init+0x3a>
1000400c:	10006aaf 	.word	0x10006aaf
10004010:	1000644c 	.word	0x1000644c
10004014:	40050000 	.word	0x40050000
10004018:	40050008 	.word	0x40050008
1000401c:	4005000c 	.word	0x4005000c
10004020:	40050010 	.word	0x40050010
10004024:	0000ffff 	.word	0x0000ffff

10004028 <pwm_rpi_set_cycles>:
{
10004028:	b5f7      	push	{r0, r1, r2, r4, r5, r6, r7, lr}
1000402a:	ac08      	add	r4, sp, #32
1000402c:	8824      	ldrh	r4, [r4, #0]
1000402e:	9300      	str	r3, [sp, #0]
	if (ch >= PWM_RPI_NUM_CHANNELS) {
10004030:	290f      	cmp	r1, #15
10004032:	d843      	bhi.n	100040bc <pwm_rpi_set_cycles+0x94>
	if (period_cycles - 1 > PWM_RPI_PICO_COUNTER_TOP_MAX ||
10004034:	2680      	movs	r6, #128	; 0x80
10004036:	1e55      	subs	r5, r2, #1
10004038:	0276      	lsls	r6, r6, #9
1000403a:	42b5      	cmp	r5, r6
1000403c:	d23e      	bcs.n	100040bc <pwm_rpi_set_cycles+0x94>
1000403e:	42b3      	cmp	r3, r6
10004040:	d23c      	bcs.n	100040bc <pwm_rpi_set_cycles+0x94>
	return channel % 2;
10004042:	2601      	movs	r6, #1
10004044:	000d      	movs	r5, r1
10004046:	4035      	ands	r5, r6
10004048:	9501      	str	r5, [sp, #4]
1000404a:	2514      	movs	r5, #20
	return channel / 2;
1000404c:	084f      	lsrs	r7, r1, #1
	pwm_rpi_set_channel_polarity(dev, slice, pico_channel,
1000404e:	437d      	muls	r5, r7
	bool pwm_polarity_a = (cfg->pwm_controller->slice[slice].csr & PWM_CH0_CSR_A_INV_BITS) > 0;
10004050:	6840      	ldr	r0, [r0, #4]
	pwm_rpi_set_channel_polarity(dev, slice, pico_channel,
10004052:	4034      	ands	r4, r6
	bool pwm_polarity_a = (cfg->pwm_controller->slice[slice].csr & PWM_CH0_CSR_A_INV_BITS) > 0;
10004054:	6800      	ldr	r0, [r0, #0]
10004056:	1940      	adds	r0, r0, r5
10004058:	6803      	ldr	r3, [r0, #0]
	bool pwm_polarity_b = (cfg->pwm_controller->slice[slice].csr & PWM_CH0_CSR_B_INV_BITS) > 0;
1000405a:	6800      	ldr	r0, [r0, #0]
	if (pico_channel == PWM_CHAN_A) {
1000405c:	4231      	tst	r1, r6
1000405e:	d028      	beq.n	100040b2 <pwm_rpi_set_cycles+0x8a>
	bool pwm_polarity_a = (cfg->pwm_controller->slice[slice].csr & PWM_CH0_CSR_A_INV_BITS) > 0;
10004060:	0899      	lsrs	r1, r3, #2
10004062:	4031      	ands	r1, r6
		pwm_polarity_b = inverted;
10004064:	0020      	movs	r0, r4
	bool pwm_polarity_a = (cfg->pwm_controller->slice[slice].csr & PWM_CH0_CSR_A_INV_BITS) > 0;
10004066:	000c      	movs	r4, r1
 * \param a true to invert output A
 * \param b true to invert output B
 */
static inline void pwm_set_output_polarity(uint slice_num, bool a, bool b) {
    check_slice_num_param(slice_num);
    hw_write_masked(&pwm_hw->slice[slice_num].csr, bool_to_bit(a) << PWM_CH0_CSR_A_INV_LSB | bool_to_bit(b) << PWM_CH0_CSR_B_INV_LSB,
10004068:	00c0      	lsls	r0, r0, #3
1000406a:	00a4      	lsls	r4, r4, #2
1000406c:	4304      	orrs	r4, r0
    hw_xor_bits(addr, (*addr ^ values) & write_mask);
1000406e:	200c      	movs	r0, #12
10004070:	4914      	ldr	r1, [pc, #80]	; (100040c4 <pwm_rpi_set_cycles+0x9c>)
	pwm_set_wrap(slice, period_cycles - 1);
10004072:	3a01      	subs	r2, #1
10004074:	000b      	movs	r3, r1
10004076:	1869      	adds	r1, r5, r1
10004078:	680e      	ldr	r6, [r1, #0]
    pwm_hw->slice[slice_num].top = wrap;
1000407a:	b292      	uxth	r2, r2
1000407c:	4074      	eors	r4, r6
1000407e:	4004      	ands	r4, r0
    *(io_rw_32 *) hw_xor_alias_untyped((volatile void *) addr) = mask;
10004080:	2080      	movs	r0, #128	; 0x80
10004082:	0140      	lsls	r0, r0, #5
10004084:	4301      	orrs	r1, r0
10004086:	600c      	str	r4, [r1, #0]
10004088:	2114      	movs	r1, #20
1000408a:	4379      	muls	r1, r7
1000408c:	18c9      	adds	r1, r1, r3
    hw_write_masked(
1000408e:	4b0e      	ldr	r3, [pc, #56]	; (100040c8 <pwm_rpi_set_cycles+0xa0>)
    pwm_hw->slice[slice_num].top = wrap;
10004090:	610a      	str	r2, [r1, #16]
    hw_write_masked(
10004092:	18ed      	adds	r5, r5, r3
        ((uint)level) << (chan ? PWM_CH0_CC_B_LSB : PWM_CH0_CC_A_LSB),
10004094:	9b01      	ldr	r3, [sp, #4]
10004096:	2b00      	cmp	r3, #0
10004098:	d00e      	beq.n	100040b8 <pwm_rpi_set_cycles+0x90>
    hw_write_masked(
1000409a:	9b00      	ldr	r3, [sp, #0]
1000409c:	4a0b      	ldr	r2, [pc, #44]	; (100040cc <pwm_rpi_set_cycles+0xa4>)
1000409e:	041b      	lsls	r3, r3, #16
100040a0:	9300      	str	r3, [sp, #0]
    hw_xor_bits(addr, (*addr ^ values) & write_mask);
100040a2:	6829      	ldr	r1, [r5, #0]
    *(io_rw_32 *) hw_xor_alias_untyped((volatile void *) addr) = mask;
100040a4:	4305      	orrs	r5, r0
	return 0;
100040a6:	2000      	movs	r0, #0
    hw_xor_bits(addr, (*addr ^ values) & write_mask);
100040a8:	9b00      	ldr	r3, [sp, #0]
100040aa:	404b      	eors	r3, r1
100040ac:	401a      	ands	r2, r3
    *(io_rw_32 *) hw_xor_alias_untyped((volatile void *) addr) = mask;
100040ae:	602a      	str	r2, [r5, #0]
};
100040b0:	bdfe      	pop	{r1, r2, r3, r4, r5, r6, r7, pc}
	bool pwm_polarity_b = (cfg->pwm_controller->slice[slice].csr & PWM_CH0_CSR_B_INV_BITS) > 0;
100040b2:	08c0      	lsrs	r0, r0, #3
100040b4:	4030      	ands	r0, r6
100040b6:	e7d7      	b.n	10004068 <pwm_rpi_set_cycles+0x40>
100040b8:	4a05      	ldr	r2, [pc, #20]	; (100040d0 <pwm_rpi_set_cycles+0xa8>)
100040ba:	e7f2      	b.n	100040a2 <pwm_rpi_set_cycles+0x7a>
		return -EINVAL;
100040bc:	2016      	movs	r0, #22
100040be:	4240      	negs	r0, r0
100040c0:	e7f6      	b.n	100040b0 <pwm_rpi_set_cycles+0x88>
100040c2:	46c0      	nop			; (mov r8, r8)
100040c4:	40050000 	.word	0x40050000
100040c8:	4005000c 	.word	0x4005000c
100040cc:	ffff0000 	.word	0xffff0000
100040d0:	0000ffff 	.word	0x0000ffff

100040d4 <pwm_rpi_get_cycles_per_sec>:
{
100040d4:	b5f8      	push	{r3, r4, r5, r6, r7, lr}
100040d6:	0015      	movs	r5, r2
	return channel / 2;
100040d8:	084a      	lsrs	r2, r1, #1
	if (ch >= PWM_RPI_NUM_CHANNELS) {
100040da:	290f      	cmp	r1, #15
100040dc:	d825      	bhi.n	1000412a <pwm_rpi_get_cycles_per_sec+0x56>
	return (float)cfg->slice_configs[slice].integral +
100040de:	2303      	movs	r3, #3
100040e0:	4353      	muls	r3, r2
100040e2:	6844      	ldr	r4, [r0, #4]
100040e4:	18e4      	adds	r4, r4, r3
		(float)cfg->slice_configs[slice].frac / 16.0;
100040e6:	7960      	ldrb	r0, [r4, #5]
100040e8:	f7fc fd34 	bl	10000b54 <__aeabi_ui2f>
100040ec:	f7fd feec 	bl	10001ec8 <__aeabi_f2d>
100040f0:	2200      	movs	r2, #0
100040f2:	4b0f      	ldr	r3, [pc, #60]	; (10004130 <pwm_rpi_get_cycles_per_sec+0x5c>)
100040f4:	f7fd f98a 	bl	1000140c <__aeabi_dmul>
100040f8:	0006      	movs	r6, r0
	return (float)cfg->slice_configs[slice].integral +
100040fa:	7920      	ldrb	r0, [r4, #4]
		(float)cfg->slice_configs[slice].frac / 16.0;
100040fc:	000f      	movs	r7, r1
	return (float)cfg->slice_configs[slice].integral +
100040fe:	f7fc fd29 	bl	10000b54 <__aeabi_ui2f>
10004102:	f7fd fee1 	bl	10001ec8 <__aeabi_f2d>
10004106:	0002      	movs	r2, r0
10004108:	000b      	movs	r3, r1
1000410a:	0030      	movs	r0, r6
1000410c:	0039      	movs	r1, r7
1000410e:	f7fc fd5d 	bl	10000bcc <__aeabi_dadd>
10004112:	f7fd ff1b 	bl	10001f4c <__aeabi_d2f>
10004116:	1c01      	adds	r1, r0, #0
	*cycles = (uint64_t)(f_clock_in / pwm_rpi_get_clkdiv(dev, slice));
10004118:	4806      	ldr	r0, [pc, #24]	; (10004134 <pwm_rpi_get_cycles_per_sec+0x60>)
1000411a:	f7fc fb25 	bl	10000768 <__aeabi_fdiv>
1000411e:	f7fc f98f 	bl	10000440 <__aeabi_f2ulz>
10004122:	6028      	str	r0, [r5, #0]
10004124:	6069      	str	r1, [r5, #4]
	return 0;
10004126:	2000      	movs	r0, #0
}
10004128:	bdf8      	pop	{r3, r4, r5, r6, r7, pc}
		return -EINVAL;
1000412a:	2016      	movs	r0, #22
1000412c:	4240      	negs	r0, r0
1000412e:	e7fb      	b.n	10004128 <pwm_rpi_get_cycles_per_sec+0x54>
10004130:	3fb00000 	.word	0x3fb00000
10004134:	4cee6b28 	.word	0x4cee6b28

10004138 <uart_rpi_irq_err_disable>:
}

static void uart_rpi_irq_err_disable(const struct device *dev)
{
	const struct uart_rpi_config * const config = dev->config;
	uart_hw_t * const uart_hw = config->uart_regs;
10004138:	6843      	ldr	r3, [r0, #4]

	uart_hw->imsc &= ~(UART_UARTIMSC_OEIM_BITS |
1000413a:	4903      	ldr	r1, [pc, #12]	; (10004148 <uart_rpi_irq_err_disable+0x10>)
	uart_hw_t * const uart_hw = config->uart_regs;
1000413c:	685a      	ldr	r2, [r3, #4]
	uart_hw->imsc &= ~(UART_UARTIMSC_OEIM_BITS |
1000413e:	6b93      	ldr	r3, [r2, #56]	; 0x38
10004140:	400b      	ands	r3, r1
10004142:	6393      	str	r3, [r2, #56]	; 0x38
			   UART_UARTIMSC_BEIM_BITS |
			   UART_UARTIMSC_PEIM_BITS |
			   UART_UARTIMSC_FEIM_BITS |
			   UART_UARTIMSC_RTIM_BITS);
}
10004144:	4770      	bx	lr
10004146:	46c0      	nop			; (mov r8, r8)
10004148:	fffff83f 	.word	0xfffff83f

1000414c <uart_rpi_set_format.isra.0>:
static int uart_rpi_set_format(const struct device *dev, const struct uart_config *cfg)
1000414c:	b510      	push	{r4, lr}
1000414e:	2b03      	cmp	r3, #3
10004150:	d823      	bhi.n	1000419a <uart_rpi_set_format.isra.0+0x4e>
	switch (cfg->stop_bits) {
10004152:	2a01      	cmp	r2, #1
10004154:	d002      	beq.n	1000415c <uart_rpi_set_format.isra.0+0x10>
10004156:	2a03      	cmp	r2, #3
10004158:	d11f      	bne.n	1000419a <uart_rpi_set_format.isra.0+0x4e>
1000415a:	3a01      	subs	r2, #1
	switch (cfg->parity) {
1000415c:	2902      	cmp	r1, #2
1000415e:	d81c      	bhi.n	1000419a <uart_rpi_set_format.isra.0+0x4e>
	uart_inst_t * const uart_inst = config->uart_dev;
10004160:	6804      	ldr	r4, [r0, #0]
    invalid_params_if(UART, data_bits < 5 || data_bits > 8);
    invalid_params_if(UART, stop_bits != 1 && stop_bits != 2);
    invalid_params_if(UART, parity != UART_PARITY_NONE && parity != UART_PARITY_EVEN && parity != UART_PARITY_ODD);
    hw_write_masked(&uart_get_hw(uart)->lcr_h,
                   ((data_bits - 5u) << UART_UARTLCR_H_WLEN_LSB) |
                   ((stop_bits - 1u) << UART_UARTLCR_H_STP2_LSB) |
10004162:	3a01      	subs	r2, #1
10004164:	480e      	ldr	r0, [pc, #56]	; (100041a0 <uart_rpi_set_format.isra.0+0x54>)
                   ((data_bits - 5u) << UART_UARTLCR_H_WLEN_LSB) |
10004166:	015b      	lsls	r3, r3, #5
                   ((stop_bits - 1u) << UART_UARTLCR_H_STP2_LSB) |
10004168:	00d2      	lsls	r2, r2, #3
1000416a:	5c41      	ldrb	r1, [r0, r1]
                   ((data_bits - 5u) << UART_UARTLCR_H_WLEN_LSB) |
1000416c:	431a      	orrs	r2, r3
    hw_write_masked(&uart_get_hw(uart)->lcr_h,
1000416e:	0020      	movs	r0, r4
                   (bool_to_bit(parity != UART_PARITY_NONE) << UART_UARTLCR_H_PEN_LSB) |
                   (bool_to_bit(parity == UART_PARITY_EVEN) << UART_UARTLCR_H_EPS_LSB),
10004170:	2300      	movs	r3, #0
    hw_write_masked(&uart_get_hw(uart)->lcr_h,
10004172:	302c      	adds	r0, #44	; 0x2c
                   (bool_to_bit(parity != UART_PARITY_NONE) << UART_UARTLCR_H_PEN_LSB) |
10004174:	4299      	cmp	r1, r3
10004176:	d005      	beq.n	10004184 <uart_rpi_set_format.isra.0+0x38>
                   ((stop_bits - 1u) << UART_UARTLCR_H_STP2_LSB) |
10004178:	3302      	adds	r3, #2
                   (bool_to_bit(parity == UART_PARITY_EVEN) << UART_UARTLCR_H_EPS_LSB),
1000417a:	3901      	subs	r1, #1
                   ((stop_bits - 1u) << UART_UARTLCR_H_STP2_LSB) |
1000417c:	431a      	orrs	r2, r3
                   (bool_to_bit(parity == UART_PARITY_EVEN) << UART_UARTLCR_H_EPS_LSB),
1000417e:	424b      	negs	r3, r1
10004180:	4159      	adcs	r1, r3
10004182:	008b      	lsls	r3, r1, #2
    hw_write_masked(&uart_get_hw(uart)->lcr_h,
10004184:	431a      	orrs	r2, r3
    hw_xor_bits(addr, (*addr ^ values) & write_mask);
10004186:	236e      	movs	r3, #110	; 0x6e
10004188:	6ae1      	ldr	r1, [r4, #44]	; 0x2c
1000418a:	404a      	eors	r2, r1
1000418c:	401a      	ands	r2, r3
    *(io_rw_32 *) hw_xor_alias_untyped((volatile void *) addr) = mask;
1000418e:	2380      	movs	r3, #128	; 0x80
10004190:	015b      	lsls	r3, r3, #5
10004192:	4303      	orrs	r3, r0
	return 0;
10004194:	2000      	movs	r0, #0
10004196:	601a      	str	r2, [r3, #0]
}
10004198:	bd10      	pop	{r4, pc}
		return -EINVAL;
1000419a:	2016      	movs	r0, #22
1000419c:	4240      	negs	r0, r0
1000419e:	e7fb      	b.n	10004198 <uart_rpi_set_format.isra.0+0x4c>
100041a0:	10006b0c 	.word	0x10006b0c

100041a4 <uart_rpi_init>:
{
100041a4:	b5f0      	push	{r4, r5, r6, r7, lr}
	const struct uart_rpi_config *config = dev->config;
100041a6:	6845      	ldr	r5, [r0, #4]
{
100041a8:	b085      	sub	sp, #20
	uart_inst_t * const uart_inst = config->uart_dev;
100041aa:	682b      	ldr	r3, [r5, #0]
{
100041ac:	0004      	movs	r4, r0
	struct uart_rpi_data * const data = dev->data;
100041ae:	6906      	ldr	r6, [r0, #16]
	ret = pinctrl_lookup_state(config, id, &state);
100041b0:	2100      	movs	r1, #0
100041b2:	68a8      	ldr	r0, [r5, #8]
100041b4:	aa03      	add	r2, sp, #12
	uart_hw_t * const uart_hw = config->uart_regs;
100041b6:	686f      	ldr	r7, [r5, #4]
	uart_inst_t * const uart_inst = config->uart_dev;
100041b8:	9301      	str	r3, [sp, #4]
100041ba:	f001 fd4e 	bl	10005c5a <pinctrl_lookup_state>
	if (ret < 0) {
100041be:	2800      	cmp	r0, #0
100041c0:	db23      	blt.n	1000420a <uart_rpi_init+0x66>
	return pinctrl_apply_state_direct(config, state);
100041c2:	9b03      	ldr	r3, [sp, #12]
	return pinctrl_configure_pins(state->pins, state->pin_cnt, reg);
100041c4:	2200      	movs	r2, #0
100041c6:	7919      	ldrb	r1, [r3, #4]
100041c8:	6818      	ldr	r0, [r3, #0]
100041ca:	f001 fd59 	bl	10005c80 <pinctrl_configure_pins>
	if (ret < 0) {
100041ce:	2800      	cmp	r0, #0
100041d0:	db1b      	blt.n	1000420a <uart_rpi_init+0x66>
	baudrate = uart_init(uart_inst, data->uart_config.baudrate);
100041d2:	6831      	ldr	r1, [r6, #0]
100041d4:	9801      	ldr	r0, [sp, #4]
100041d6:	f000 fb33 	bl	10004840 <uart_init>
	if (baudrate == 0) {
100041da:	2800      	cmp	r0, #0
100041dc:	d017      	beq.n	1000420e <uart_rpi_init+0x6a>
	data->uart_config = (struct uart_config){
100041de:	4b0d      	ldr	r3, [pc, #52]	; (10004214 <uart_rpi_init+0x70>)
100041e0:	6030      	str	r0, [r6, #0]
100041e2:	6073      	str	r3, [r6, #4]
	uart_rpi_set_format(dev, &data->uart_config);
100041e4:	2201      	movs	r2, #1
100041e6:	2303      	movs	r3, #3
100041e8:	2100      	movs	r1, #0
100041ea:	6860      	ldr	r0, [r4, #4]
100041ec:	f7ff ffae 	bl	1000414c <uart_rpi_set_format.isra.0>
	hw_clear_bits(&uart_hw->lcr_h, UART_UARTLCR_H_FEN_BITS);
100041f0:	003a      	movs	r2, r7
    *(io_rw_32 *) hw_clear_alias_untyped((volatile void *) addr) = mask;
100041f2:	23c0      	movs	r3, #192	; 0xc0
100041f4:	322c      	adds	r2, #44	; 0x2c
100041f6:	019b      	lsls	r3, r3, #6
100041f8:	4313      	orrs	r3, r2
	uart_hw->dr = 0U;
100041fa:	2600      	movs	r6, #0
100041fc:	2210      	movs	r2, #16
100041fe:	601a      	str	r2, [r3, #0]
10004200:	603e      	str	r6, [r7, #0]
	config->irq_config_func(dev);
10004202:	0020      	movs	r0, r4
10004204:	696b      	ldr	r3, [r5, #20]
10004206:	4798      	blx	r3
	return 0;
10004208:	0030      	movs	r0, r6
}
1000420a:	b005      	add	sp, #20
1000420c:	bdf0      	pop	{r4, r5, r6, r7, pc}
		return -EINVAL;
1000420e:	2016      	movs	r0, #22
10004210:	4240      	negs	r0, r0
10004212:	e7fa      	b.n	1000420a <uart_rpi_init+0x66>
10004214:	00030100 	.word	0x00030100

10004218 <elapsed>:
 *     - the timer reset or the last time the function was called
 *     - and until the current call of the function is completed.
 * - the function is invoked with interrupts disabled.
 */
static uint32_t elapsed(void)
{
10004218:	b530      	push	{r4, r5, lr}
	uint32_t val1 = SysTick->VAL;	/* A */
1000421a:	4b0a      	ldr	r3, [pc, #40]	; (10004244 <elapsed+0x2c>)
1000421c:	4a0a      	ldr	r2, [pc, #40]	; (10004248 <elapsed+0x30>)
1000421e:	6898      	ldr	r0, [r3, #8]
	uint32_t ctrl = SysTick->CTRL;	/* B */
10004220:	6819      	ldr	r1, [r3, #0]
	uint32_t val2 = SysTick->VAL;	/* C */
10004222:	4d0a      	ldr	r5, [pc, #40]	; (1000424c <elapsed+0x34>)
10004224:	689c      	ldr	r4, [r3, #8]
	 * 4) After C we'll see it next time
	 *
	 * So the count in val2 is post-wrap and last_load needs to be
	 * added if and only if COUNTFLAG is set or val1 < val2.
	 */
	if ((ctrl & SysTick_CTRL_COUNTFLAG_Msk)
10004226:	03c9      	lsls	r1, r1, #15
10004228:	d401      	bmi.n	1000422e <elapsed+0x16>
	    || (val1 < val2)) {
1000422a:	42a0      	cmp	r0, r4
1000422c:	d204      	bcs.n	10004238 <elapsed+0x20>
		overflow_cyc += last_load;
1000422e:	6811      	ldr	r1, [r2, #0]
10004230:	6828      	ldr	r0, [r5, #0]
10004232:	1809      	adds	r1, r1, r0
10004234:	6011      	str	r1, [r2, #0]

		/* We know there was a wrap, but we might not have
		 * seen it in CTRL, so clear it. */
		(void)SysTick->CTRL;
10004236:	681b      	ldr	r3, [r3, #0]
	}

	return (last_load - val2) + overflow_cyc;
10004238:	682b      	ldr	r3, [r5, #0]
1000423a:	6810      	ldr	r0, [r2, #0]
1000423c:	18c0      	adds	r0, r0, r3
1000423e:	1b00      	subs	r0, r0, r4
}
10004240:	bd30      	pop	{r4, r5, pc}
10004242:	46c0      	nop			; (mov r8, r8)
10004244:	e000e010 	.word	0xe000e010
10004248:	2000022c 	.word	0x2000022c
1000424c:	20000238 	.word	0x20000238

10004250 <sys_clock_driver_init>:
{
	ARG_UNUSED(dev);

	NVIC_SetPriority(SysTick_IRQn, _IRQ_PRIO_OFFSET);
	last_load = CYC_PER_TICK - 1;
	overflow_cyc = 0U;
10004250:	2000      	movs	r0, #0
    SCB->SHP[_SHP_IDX(IRQn)] = ((uint32_t)(SCB->SHP[_SHP_IDX(IRQn)] & ~(0xFFUL << _BIT_SHIFT(IRQn))) |
10004252:	4a09      	ldr	r2, [pc, #36]	; (10004278 <sys_clock_driver_init+0x28>)
10004254:	6a13      	ldr	r3, [r2, #32]
10004256:	021b      	lsls	r3, r3, #8
10004258:	0a1b      	lsrs	r3, r3, #8
1000425a:	6213      	str	r3, [r2, #32]
	last_load = CYC_PER_TICK - 1;
1000425c:	4b07      	ldr	r3, [pc, #28]	; (1000427c <sys_clock_driver_init+0x2c>)
1000425e:	4a08      	ldr	r2, [pc, #32]	; (10004280 <sys_clock_driver_init+0x30>)
10004260:	601a      	str	r2, [r3, #0]
	overflow_cyc = 0U;
10004262:	4b08      	ldr	r3, [pc, #32]	; (10004284 <sys_clock_driver_init+0x34>)
10004264:	6018      	str	r0, [r3, #0]
	SysTick->LOAD = last_load;
10004266:	4b08      	ldr	r3, [pc, #32]	; (10004288 <sys_clock_driver_init+0x38>)
10004268:	605a      	str	r2, [r3, #4]
	SysTick->VAL = 0; /* resets timer to last_load */
	SysTick->CTRL |= (SysTick_CTRL_ENABLE_Msk |
1000426a:	2207      	movs	r2, #7
	SysTick->VAL = 0; /* resets timer to last_load */
1000426c:	6098      	str	r0, [r3, #8]
	SysTick->CTRL |= (SysTick_CTRL_ENABLE_Msk |
1000426e:	6819      	ldr	r1, [r3, #0]
10004270:	430a      	orrs	r2, r1
10004272:	601a      	str	r2, [r3, #0]
			  SysTick_CTRL_TICKINT_Msk |
			  SysTick_CTRL_CLKSOURCE_Msk);
	return 0;
}
10004274:	4770      	bx	lr
10004276:	46c0      	nop			; (mov r8, r8)
10004278:	e000ed00 	.word	0xe000ed00
1000427c:	20000238 	.word	0x20000238
10004280:	000030d3 	.word	0x000030d3
10004284:	2000022c 	.word	0x2000022c
10004288:	e000e010 	.word	0xe000e010

1000428c <sys_clock_isr>:
{
1000428c:	b570      	push	{r4, r5, r6, lr}
	elapsed();
1000428e:	f7ff ffc3 	bl	10004218 <elapsed>
	cycle_count += overflow_cyc;
10004292:	4b0b      	ldr	r3, [pc, #44]	; (100042c0 <sys_clock_isr+0x34>)
10004294:	4a0b      	ldr	r2, [pc, #44]	; (100042c4 <sys_clock_isr+0x38>)
10004296:	6818      	ldr	r0, [r3, #0]
10004298:	6811      	ldr	r1, [r2, #0]
		dticks = (cycle_count - announced_cycles) / CYC_PER_TICK;
1000429a:	4c0b      	ldr	r4, [pc, #44]	; (100042c8 <sys_clock_isr+0x3c>)
	cycle_count += overflow_cyc;
1000429c:	1840      	adds	r0, r0, r1
1000429e:	6010      	str	r0, [r2, #0]
	overflow_cyc = 0;
100042a0:	2200      	movs	r2, #0
		dticks = (cycle_count - announced_cycles) / CYC_PER_TICK;
100042a2:	6825      	ldr	r5, [r4, #0]
	overflow_cyc = 0;
100042a4:	601a      	str	r2, [r3, #0]
		dticks = (cycle_count - announced_cycles) / CYC_PER_TICK;
100042a6:	4909      	ldr	r1, [pc, #36]	; (100042cc <sys_clock_isr+0x40>)
100042a8:	1b40      	subs	r0, r0, r5
100042aa:	f7fb ff91 	bl	100001d0 <__udivsi3>
		announced_cycles += dticks * CYC_PER_TICK;
100042ae:	4b07      	ldr	r3, [pc, #28]	; (100042cc <sys_clock_isr+0x40>)
100042b0:	4343      	muls	r3, r0
100042b2:	195b      	adds	r3, r3, r5
100042b4:	6023      	str	r3, [r4, #0]
		sys_clock_announce(dticks);
100042b6:	f001 f8ef 	bl	10005498 <sys_clock_announce>
	z_arm_int_exit();
100042ba:	f7ff fb09 	bl	100038d0 <z_arm_exc_exit>
}
100042be:	bd70      	pop	{r4, r5, r6, pc}
100042c0:	2000022c 	.word	0x2000022c
100042c4:	20000234 	.word	0x20000234
100042c8:	20000230 	.word	0x20000230
100042cc:	000030d4 	.word	0x000030d4

100042d0 <sys_clock_set_timeout>:
{
100042d0:	b5f0      	push	{r4, r5, r6, r7, lr}
100042d2:	4d32      	ldr	r5, [pc, #200]	; (1000439c <sys_clock_set_timeout+0xcc>)
100042d4:	4f32      	ldr	r7, [pc, #200]	; (100043a0 <sys_clock_set_timeout+0xd0>)
100042d6:	b085      	sub	sp, #20
	if (IS_ENABLED(CONFIG_TICKLESS_KERNEL) && idle && ticks == K_TICKS_FOREVER) {
100042d8:	2900      	cmp	r1, #0
100042da:	d054      	beq.n	10004386 <sys_clock_set_timeout+0xb6>
100042dc:	1c43      	adds	r3, r0, #1
100042de:	d108      	bne.n	100042f2 <sys_clock_set_timeout+0x22>
		SysTick->CTRL &= ~SysTick_CTRL_ENABLE_Msk;
100042e0:	2201      	movs	r2, #1
100042e2:	682b      	ldr	r3, [r5, #0]
100042e4:	4393      	bics	r3, r2
100042e6:	602b      	str	r3, [r5, #0]
		last_load = TIMER_STOPPED;
100042e8:	23ff      	movs	r3, #255	; 0xff
100042ea:	061b      	lsls	r3, r3, #24
100042ec:	603b      	str	r3, [r7, #0]
}
100042ee:	b005      	add	sp, #20
100042f0:	bdf0      	pop	{r4, r5, r6, r7, pc}
	uint32_t last_load_ = last_load;
100042f2:	683b      	ldr	r3, [r7, #0]
100042f4:	9301      	str	r3, [sp, #4]
	ticks = CLAMP(ticks - 1, 0, (int32_t)MAX_TICKS);
100042f6:	2600      	movs	r6, #0
100042f8:	2801      	cmp	r0, #1
100042fa:	dd04      	ble.n	10004306 <sys_clock_set_timeout+0x36>
100042fc:	4b29      	ldr	r3, [pc, #164]	; (100043a4 <sys_clock_set_timeout+0xd4>)
100042fe:	001e      	movs	r6, r3
10004300:	4298      	cmp	r0, r3
10004302:	dc00      	bgt.n	10004306 <sys_clock_set_timeout+0x36>
10004304:	1e46      	subs	r6, r0, #1
	__asm__ volatile("mrs %0, PRIMASK;"
10004306:	f3ef 8310 	mrs	r3, PRIMASK
1000430a:	b672      	cpsid	i
1000430c:	9303      	str	r3, [sp, #12]
	uint32_t pending = elapsed();
1000430e:	f7ff ff83 	bl	10004218 <elapsed>
	overflow_cyc = 0U;
10004312:	2200      	movs	r2, #0
	val1 = SysTick->VAL;
10004314:	68ab      	ldr	r3, [r5, #8]
10004316:	9302      	str	r3, [sp, #8]
	cycle_count += pending;
10004318:	4b23      	ldr	r3, [pc, #140]	; (100043a8 <sys_clock_set_timeout+0xd8>)
1000431a:	681c      	ldr	r4, [r3, #0]
	overflow_cyc = 0U;
1000431c:	4b23      	ldr	r3, [pc, #140]	; (100043ac <sys_clock_set_timeout+0xdc>)
	cycle_count += pending;
1000431e:	1904      	adds	r4, r0, r4
	overflow_cyc = 0U;
10004320:	601a      	str	r2, [r3, #0]
	uint32_t unannounced = cycle_count - announced_cycles;
10004322:	4b23      	ldr	r3, [pc, #140]	; (100043b0 <sys_clock_set_timeout+0xe0>)
10004324:	681b      	ldr	r3, [r3, #0]
10004326:	9300      	str	r3, [sp, #0]
10004328:	1ae0      	subs	r0, r4, r3
	if ((int32_t)unannounced < 0) {
1000432a:	4290      	cmp	r0, r2
1000432c:	db31      	blt.n	10004392 <sys_clock_set_timeout+0xc2>
		delay = ticks * CYC_PER_TICK;
1000432e:	4b21      	ldr	r3, [pc, #132]	; (100043b4 <sys_clock_set_timeout+0xe4>)
		 ((delay + CYC_PER_TICK - 1) / CYC_PER_TICK) * CYC_PER_TICK;
10004330:	4a21      	ldr	r2, [pc, #132]	; (100043b8 <sys_clock_set_timeout+0xe8>)
		delay = ticks * CYC_PER_TICK;
10004332:	435e      	muls	r6, r3
		delay += unannounced;
10004334:	1980      	adds	r0, r0, r6
		 ((delay + CYC_PER_TICK - 1) / CYC_PER_TICK) * CYC_PER_TICK;
10004336:	0019      	movs	r1, r3
10004338:	1880      	adds	r0, r0, r2
1000433a:	f7fb ff49 	bl	100001d0 <__udivsi3>
		delay =
1000433e:	4b1d      	ldr	r3, [pc, #116]	; (100043b4 <sys_clock_set_timeout+0xe4>)
10004340:	4358      	muls	r0, r3
		delay -= unannounced;
10004342:	9b00      	ldr	r3, [sp, #0]
10004344:	1b1b      	subs	r3, r3, r4
10004346:	1818      	adds	r0, r3, r0
		delay = MAX(delay, MIN_DELAY);
10004348:	2380      	movs	r3, #128	; 0x80
1000434a:	00db      	lsls	r3, r3, #3
1000434c:	4298      	cmp	r0, r3
1000434e:	d923      	bls.n	10004398 <sys_clock_set_timeout+0xc8>
		if (delay > MAX_CYCLES) {
10004350:	4b1a      	ldr	r3, [pc, #104]	; (100043bc <sys_clock_set_timeout+0xec>)
10004352:	4298      	cmp	r0, r3
10004354:	d820      	bhi.n	10004398 <sys_clock_set_timeout+0xc8>
	SysTick->VAL = 0; /* resets timer to last_load */
10004356:	2300      	movs	r3, #0
		last_load = MIN_DELAY;
10004358:	6038      	str	r0, [r7, #0]
	SysTick->LOAD = last_load - 1;
1000435a:	3801      	subs	r0, #1
	val2 = SysTick->VAL;
1000435c:	68a9      	ldr	r1, [r5, #8]
	SysTick->LOAD = last_load - 1;
1000435e:	6068      	str	r0, [r5, #4]
	SysTick->VAL = 0; /* resets timer to last_load */
10004360:	60ab      	str	r3, [r5, #8]
	if (val1 < val2) {
10004362:	9b02      	ldr	r3, [sp, #8]
10004364:	9802      	ldr	r0, [sp, #8]
10004366:	1a5b      	subs	r3, r3, r1
		cycle_count += (val1 - val2);
10004368:	191a      	adds	r2, r3, r4
	if (val1 < val2) {
1000436a:	4288      	cmp	r0, r1
1000436c:	d202      	bcs.n	10004374 <sys_clock_set_timeout+0xa4>
		cycle_count += (val1 + (last_load_ - val2));
1000436e:	9a01      	ldr	r2, [sp, #4]
10004370:	189b      	adds	r3, r3, r2
10004372:	191a      	adds	r2, r3, r4
10004374:	4b0c      	ldr	r3, [pc, #48]	; (100043a8 <sys_clock_set_timeout+0xd8>)
10004376:	601a      	str	r2, [r3, #0]
	if (key != 0U) {
10004378:	9b03      	ldr	r3, [sp, #12]
1000437a:	2b00      	cmp	r3, #0
1000437c:	d1b7      	bne.n	100042ee <sys_clock_set_timeout+0x1e>
	__asm__ volatile(
1000437e:	b662      	cpsie	i
10004380:	f3bf 8f6f 	isb	sy
10004384:	e7b3      	b.n	100042ee <sys_clock_set_timeout+0x1e>
	uint32_t last_load_ = last_load;
10004386:	683b      	ldr	r3, [r7, #0]
10004388:	9301      	str	r3, [sp, #4]
	ticks = (ticks == K_TICKS_FOREVER) ? MAX_TICKS : ticks;
1000438a:	1c43      	adds	r3, r0, #1
1000438c:	d1b3      	bne.n	100042f6 <sys_clock_set_timeout+0x26>
1000438e:	4805      	ldr	r0, [pc, #20]	; (100043a4 <sys_clock_set_timeout+0xd4>)
10004390:	e7b8      	b.n	10004304 <sys_clock_set_timeout+0x34>
10004392:	2080      	movs	r0, #128	; 0x80
10004394:	00c0      	lsls	r0, r0, #3
10004396:	e7de      	b.n	10004356 <sys_clock_set_timeout+0x86>
10004398:	0018      	movs	r0, r3
1000439a:	e7dc      	b.n	10004356 <sys_clock_set_timeout+0x86>
1000439c:	e000e010 	.word	0xe000e010
100043a0:	20000238 	.word	0x20000238
100043a4:	0000053d 	.word	0x0000053d
100043a8:	20000234 	.word	0x20000234
100043ac:	2000022c 	.word	0x2000022c
100043b0:	20000230 	.word	0x20000230
100043b4:	000030d4 	.word	0x000030d4
100043b8:	000030d3 	.word	0x000030d3
100043bc:	00ffc684 	.word	0x00ffc684

100043c0 <sys_clock_elapsed>:
{
100043c0:	b510      	push	{r4, lr}
	__asm__ volatile("mrs %0, PRIMASK;"
100043c2:	f3ef 8410 	mrs	r4, PRIMASK
100043c6:	b672      	cpsid	i
	uint32_t cyc = elapsed() + cycle_count - announced_cycles;
100043c8:	f7ff ff26 	bl	10004218 <elapsed>
100043cc:	4b07      	ldr	r3, [pc, #28]	; (100043ec <sys_clock_elapsed+0x2c>)
100043ce:	4a08      	ldr	r2, [pc, #32]	; (100043f0 <sys_clock_elapsed+0x30>)
100043d0:	681b      	ldr	r3, [r3, #0]
100043d2:	6812      	ldr	r2, [r2, #0]
100043d4:	1a9b      	subs	r3, r3, r2
100043d6:	1818      	adds	r0, r3, r0
	if (key != 0U) {
100043d8:	2c00      	cmp	r4, #0
100043da:	d102      	bne.n	100043e2 <sys_clock_elapsed+0x22>
	__asm__ volatile(
100043dc:	b662      	cpsie	i
100043de:	f3bf 8f6f 	isb	sy
	return cyc / CYC_PER_TICK;
100043e2:	4904      	ldr	r1, [pc, #16]	; (100043f4 <sys_clock_elapsed+0x34>)
100043e4:	f7fb fef4 	bl	100001d0 <__udivsi3>
}
100043e8:	bd10      	pop	{r4, pc}
100043ea:	46c0      	nop			; (mov r8, r8)
100043ec:	20000234 	.word	0x20000234
100043f0:	20000230 	.word	0x20000230
100043f4:	000030d4 	.word	0x000030d4

100043f8 <clock_configure>:
    hw_clear_bits(&clock->ctrl, CLOCKS_CLK_USB_CTRL_ENABLE_BITS);
    configured_freq[clk_index] = 0;
}

/// \tag::clock_configure[]
bool clock_configure(enum clock_index clk_index, uint32_t src, uint32_t auxsrc, uint32_t src_freq, uint32_t freq) {
100043f8:	b5f0      	push	{r4, r5, r6, r7, lr}
100043fa:	b085      	sub	sp, #20
100043fc:	9201      	str	r2, [sp, #4]
    uint32_t div;

    assert(src_freq >= freq);

    if (freq > src_freq)
100043fe:	9a0a      	ldr	r2, [sp, #40]	; 0x28
bool clock_configure(enum clock_index clk_index, uint32_t src, uint32_t auxsrc, uint32_t src_freq, uint32_t freq) {
10004400:	0005      	movs	r5, r0
10004402:	000f      	movs	r7, r1
        return false;
10004404:	2000      	movs	r0, #0
    if (freq > src_freq)
10004406:	429a      	cmp	r2, r3
10004408:	d863      	bhi.n	100044d2 <clock_configure+0xda>

    // Div register is 24.8 int.frac divider so multiply by 2^8 (left shift by 8)
    div = (uint32_t) (((uint64_t) src_freq << 8) / freq);

    clock_hw_t *clock = &clocks_hw->clk[clk_index];
1000440a:	240c      	movs	r4, #12
    div = (uint32_t) (((uint64_t) src_freq << 8) / freq);
1000440c:	0e1a      	lsrs	r2, r3, #24
1000440e:	021b      	lsls	r3, r3, #8
10004410:	9203      	str	r2, [sp, #12]
10004412:	9302      	str	r3, [sp, #8]
10004414:	9a0a      	ldr	r2, [sp, #40]	; 0x28
10004416:	0003      	movs	r3, r0
10004418:	9903      	ldr	r1, [sp, #12]
1000441a:	9802      	ldr	r0, [sp, #8]
1000441c:	f7fb fff0 	bl	10000400 <__aeabi_uldivmod>
    clock_hw_t *clock = &clocks_hw->clk[clk_index];
10004420:	436c      	muls	r4, r5
10004422:	4b2d      	ldr	r3, [pc, #180]	; (100044d8 <clock_configure+0xe0>)
    div = (uint32_t) (((uint64_t) src_freq << 8) / freq);
10004424:	0006      	movs	r6, r0
    clock_hw_t *clock = &clocks_hw->clk[clk_index];
10004426:	18e4      	adds	r4, r4, r3

    // If increasing divisor, set divisor before source. Otherwise set source
    // before divisor. This avoids a momentary overspeed when e.g. switching
    // to a faster source and increasing divisor to compensate.
    if (div > clock->div)
10004428:	6863      	ldr	r3, [r4, #4]
1000442a:	4283      	cmp	r3, r0
1000442c:	d200      	bcs.n	10004430 <clock_configure+0x38>
        clock->div = div;
1000442e:	6060      	str	r0, [r4, #4]
    return clk_index == clk_sys || clk_index == clk_ref;
10004430:	1f2b      	subs	r3, r5, #4
10004432:	b2db      	uxtb	r3, r3
10004434:	9300      	str	r3, [sp, #0]
10004436:	23c0      	movs	r3, #192	; 0xc0

    // If switching a glitchless slice (ref or sys) to an aux source, switch
    // away from aux *first* to avoid passing glitches when changing aux mux.
    // Assume (!!!) glitchless source 0 is no faster than the aux source.
    if (has_glitchless_mux(clk_index) && src == CLOCKS_CLK_SYS_CTRL_SRC_VALUE_CLKSRC_CLK_SYS_AUX) {
10004438:	9a00      	ldr	r2, [sp, #0]
1000443a:	019b      	lsls	r3, r3, #6
1000443c:	4323      	orrs	r3, r4
1000443e:	2a01      	cmp	r2, #1
10004440:	d81b      	bhi.n	1000447a <clock_configure+0x82>
10004442:	2f01      	cmp	r7, #1
10004444:	d119      	bne.n	1000447a <clock_configure+0x82>
10004446:	2203      	movs	r2, #3
10004448:	601a      	str	r2, [r3, #0]
        hw_clear_bits(&clock->ctrl, CLOCKS_CLK_REF_CTRL_SRC_BITS);
        while (!(clock->selected & 1u))
1000444a:	68a3      	ldr	r3, [r4, #8]
1000444c:	423b      	tst	r3, r7
1000444e:	d0fc      	beq.n	1000444a <clock_configure+0x52>
            );
        }
    }

    // Set aux mux first, and then glitchless mux if this clock has one
    hw_write_masked(&clock->ctrl,
10004450:	9a01      	ldr	r2, [sp, #4]
    hw_xor_bits(addr, (*addr ^ values) & write_mask);
10004452:	6823      	ldr	r3, [r4, #0]
10004454:	0152      	lsls	r2, r2, #5
10004456:	405a      	eors	r2, r3
10004458:	23e0      	movs	r3, #224	; 0xe0
1000445a:	401a      	ands	r2, r3
    *(io_rw_32 *) hw_xor_alias_untyped((volatile void *) addr) = mask;
1000445c:	2380      	movs	r3, #128	; 0x80
1000445e:	015b      	lsls	r3, r3, #5
10004460:	4323      	orrs	r3, r4
10004462:	601a      	str	r2, [r3, #0]
    hw_xor_bits(addr, (*addr ^ values) & write_mask);
10004464:	2103      	movs	r1, #3
10004466:	6822      	ldr	r2, [r4, #0]
10004468:	407a      	eors	r2, r7
1000446a:	400a      	ands	r2, r1
    *(io_rw_32 *) hw_xor_alias_untyped((volatile void *) addr) = mask;
1000446c:	601a      	str	r2, [r3, #0]
    if (has_glitchless_mux(clk_index)) {
        hw_write_masked(&clock->ctrl,
            src << CLOCKS_CLK_REF_CTRL_SRC_LSB,
            CLOCKS_CLK_REF_CTRL_SRC_BITS
        );
        while (!(clock->selected & (1u << src)))
1000446e:	2301      	movs	r3, #1
10004470:	40bb      	lsls	r3, r7
10004472:	68a2      	ldr	r2, [r4, #8]
10004474:	4213      	tst	r3, r2
10004476:	d0fc      	beq.n	10004472 <clock_configure+0x7a>
10004478:	e01a      	b.n	100044b0 <clock_configure+0xb8>
    *(io_rw_32 *) hw_clear_alias_untyped((volatile void *) addr) = mask;
1000447a:	2280      	movs	r2, #128	; 0x80
1000447c:	0112      	lsls	r2, r2, #4
1000447e:	601a      	str	r2, [r3, #0]
        if (configured_freq[clk_index] > 0) {
10004480:	4b16      	ldr	r3, [pc, #88]	; (100044dc <clock_configure+0xe4>)
10004482:	00aa      	lsls	r2, r5, #2
10004484:	58d1      	ldr	r1, [r2, r3]
10004486:	2900      	cmp	r1, #0
10004488:	d005      	beq.n	10004496 <clock_configure+0x9e>
            uint delay_cyc = configured_freq[clk_sys] / configured_freq[clk_index] + 1;
1000448a:	6958      	ldr	r0, [r3, #20]
1000448c:	f7fb fea0 	bl	100001d0 <__udivsi3>
10004490:	3001      	adds	r0, #1
            asm volatile (
10004492:	3801      	subs	r0, #1
10004494:	d1fd      	bne.n	10004492 <clock_configure+0x9a>
    hw_write_masked(&clock->ctrl,
10004496:	9a01      	ldr	r2, [sp, #4]
    hw_xor_bits(addr, (*addr ^ values) & write_mask);
10004498:	6823      	ldr	r3, [r4, #0]
1000449a:	0152      	lsls	r2, r2, #5
1000449c:	405a      	eors	r2, r3
1000449e:	23e0      	movs	r3, #224	; 0xe0
100044a0:	401a      	ands	r2, r3
    *(io_rw_32 *) hw_xor_alias_untyped((volatile void *) addr) = mask;
100044a2:	2380      	movs	r3, #128	; 0x80
100044a4:	015b      	lsls	r3, r3, #5
100044a6:	4323      	orrs	r3, r4
100044a8:	601a      	str	r2, [r3, #0]
    if (has_glitchless_mux(clk_index)) {
100044aa:	9a00      	ldr	r2, [sp, #0]
100044ac:	2a01      	cmp	r2, #1
100044ae:	d9d9      	bls.n	10004464 <clock_configure+0x6c>
    *(io_rw_32 *) hw_set_alias_untyped((volatile void *) addr) = mask;
100044b0:	2380      	movs	r3, #128	; 0x80
100044b2:	2280      	movs	r2, #128	; 0x80
100044b4:	019b      	lsls	r3, r3, #6
100044b6:	4323      	orrs	r3, r4
100044b8:	0112      	lsls	r2, r2, #4
100044ba:	601a      	str	r2, [r3, #0]
    // Now that the source is configured, we can trust that the user-supplied
    // divisor is a safe value.
    clock->div = div;

    // Store the configured frequency
    configured_freq[clk_index] = (uint32_t)(((uint64_t) src_freq << 8) / div);
100044bc:	9802      	ldr	r0, [sp, #8]
    clock->div = div;
100044be:	6066      	str	r6, [r4, #4]
    configured_freq[clk_index] = (uint32_t)(((uint64_t) src_freq << 8) / div);
100044c0:	0032      	movs	r2, r6
100044c2:	2300      	movs	r3, #0
100044c4:	9903      	ldr	r1, [sp, #12]
100044c6:	f7fb ff9b 	bl	10000400 <__aeabi_uldivmod>
100044ca:	4c04      	ldr	r4, [pc, #16]	; (100044dc <clock_configure+0xe4>)
100044cc:	00ad      	lsls	r5, r5, #2
100044ce:	5160      	str	r0, [r4, r5]
100044d0:	2001      	movs	r0, #1

    return true;
}
100044d2:	b005      	add	sp, #20
100044d4:	bdf0      	pop	{r4, r5, r6, r7, pc}
100044d6:	46c0      	nop			; (mov r8, r8)
100044d8:	40008000 	.word	0x40008000
100044dc:	2000023c 	.word	0x2000023c

100044e0 <clocks_init>:
/// \end::clock_configure[]

void clocks_init(void) {
100044e0:	b573      	push	{r0, r1, r4, r5, r6, lr}
    // Start tick in watchdog
    watchdog_start_tick(XOSC_MHZ);
100044e2:	200c      	movs	r0, #12
100044e4:	f000 f8de 	bl	100046a4 <watchdog_start_tick>

    // Everything is 48MHz on FPGA apart from RTC. Otherwise set to 0 and will be set in clock configure
    if (running_on_fpga()) {
100044e8:	f000 f8e4 	bl	100046b4 <running_on_fpga>
100044ec:	2800      	cmp	r0, #0
100044ee:	d00a      	beq.n	10004506 <clocks_init+0x26>
        for (uint i = 0; i < CLK_COUNT; i++) {
100044f0:	2300      	movs	r3, #0
            configured_freq[i] = 48 * PICO_MHZ;
100044f2:	4a2c      	ldr	r2, [pc, #176]	; (100045a4 <clocks_init+0xc4>)
100044f4:	482c      	ldr	r0, [pc, #176]	; (100045a8 <clocks_init+0xc8>)
100044f6:	0099      	lsls	r1, r3, #2
        for (uint i = 0; i < CLK_COUNT; i++) {
100044f8:	3301      	adds	r3, #1
            configured_freq[i] = 48 * PICO_MHZ;
100044fa:	5050      	str	r0, [r2, r1]
        for (uint i = 0; i < CLK_COUNT; i++) {
100044fc:	2b0a      	cmp	r3, #10
100044fe:	d1fa      	bne.n	100044f6 <clocks_init+0x16>
        }
        configured_freq[clk_rtc] = 46875;
10004500:	4b2a      	ldr	r3, [pc, #168]	; (100045ac <clocks_init+0xcc>)
10004502:	6253      	str	r3, [r2, #36]	; 0x24
    clock_configure(clk_peri,
                    0,
                    CLOCKS_CLK_PERI_CTRL_AUXSRC_VALUE_CLK_SYS,
                    125 * PICO_MHZ,
                    125 * PICO_MHZ);
}
10004504:	bd73      	pop	{r0, r1, r4, r5, r6, pc}
    clocks_hw->resus.ctrl = 0;
10004506:	4d2a      	ldr	r5, [pc, #168]	; (100045b0 <clocks_init+0xd0>)
10004508:	67a8      	str	r0, [r5, #120]	; 0x78
    xosc_init();
1000450a:	f000 f8b7 	bl	1000467c <xosc_init>
    *(io_rw_32 *) hw_clear_alias_untyped((volatile void *) addr) = mask;
1000450e:	2201      	movs	r2, #1
10004510:	4b28      	ldr	r3, [pc, #160]	; (100045b4 <clocks_init+0xd4>)
10004512:	601a      	str	r2, [r3, #0]
    while (clocks_hw->clk[clk_sys].selected != 0x1)
10004514:	6c6b      	ldr	r3, [r5, #68]	; 0x44
10004516:	2b01      	cmp	r3, #1
10004518:	d1fc      	bne.n	10004514 <clocks_init+0x34>
1000451a:	2203      	movs	r2, #3
1000451c:	4b26      	ldr	r3, [pc, #152]	; (100045b8 <clocks_init+0xd8>)
1000451e:	601a      	str	r2, [r3, #0]
    while (clocks_hw->clk[clk_ref].selected != 0x1)
10004520:	6bac      	ldr	r4, [r5, #56]	; 0x38
10004522:	2c01      	cmp	r4, #1
10004524:	d1fc      	bne.n	10004520 <clocks_init+0x40>
    pll_init(pll_sys, 1, 1500 * PICO_MHZ, 6, 2);
10004526:	2502      	movs	r5, #2
    pll_init(pll_usb, 1, 1200 * PICO_MHZ, 5, 5);
10004528:	2605      	movs	r6, #5
    pll_init(pll_sys, 1, 1500 * PICO_MHZ, 6, 2);
1000452a:	0021      	movs	r1, r4
1000452c:	9500      	str	r5, [sp, #0]
1000452e:	2306      	movs	r3, #6
10004530:	4a22      	ldr	r2, [pc, #136]	; (100045bc <clocks_init+0xdc>)
10004532:	4823      	ldr	r0, [pc, #140]	; (100045c0 <clocks_init+0xe0>)
10004534:	f000 f854 	bl	100045e0 <pll_init>
    pll_init(pll_usb, 1, 1200 * PICO_MHZ, 5, 5);
10004538:	0033      	movs	r3, r6
1000453a:	0021      	movs	r1, r4
1000453c:	4a21      	ldr	r2, [pc, #132]	; (100045c4 <clocks_init+0xe4>)
1000453e:	4822      	ldr	r0, [pc, #136]	; (100045c8 <clocks_init+0xe8>)
10004540:	9600      	str	r6, [sp, #0]
10004542:	f000 f84d 	bl	100045e0 <pll_init>
    clock_configure(clk_ref,
10004546:	4b21      	ldr	r3, [pc, #132]	; (100045cc <clocks_init+0xec>)
10004548:	0029      	movs	r1, r5
    clock_configure(clk_sys,
1000454a:	4d21      	ldr	r5, [pc, #132]	; (100045d0 <clocks_init+0xf0>)
    clock_configure(clk_ref,
1000454c:	9300      	str	r3, [sp, #0]
1000454e:	2200      	movs	r2, #0
10004550:	2004      	movs	r0, #4
10004552:	f7ff ff51 	bl	100043f8 <clock_configure>
    clock_configure(clk_sys,
10004556:	002b      	movs	r3, r5
10004558:	0021      	movs	r1, r4
1000455a:	2200      	movs	r2, #0
1000455c:	0030      	movs	r0, r6
1000455e:	9500      	str	r5, [sp, #0]
10004560:	f7ff ff4a 	bl	100043f8 <clock_configure>
    clock_configure(clk_usb,
10004564:	2200      	movs	r2, #0
10004566:	4c10      	ldr	r4, [pc, #64]	; (100045a8 <clocks_init+0xc8>)
10004568:	0011      	movs	r1, r2
1000456a:	0023      	movs	r3, r4
1000456c:	9400      	str	r4, [sp, #0]
1000456e:	2007      	movs	r0, #7
10004570:	f7ff ff42 	bl	100043f8 <clock_configure>
    clock_configure(clk_adc,
10004574:	2200      	movs	r2, #0
10004576:	0023      	movs	r3, r4
10004578:	0011      	movs	r1, r2
1000457a:	9400      	str	r4, [sp, #0]
1000457c:	2008      	movs	r0, #8
1000457e:	f7ff ff3b 	bl	100043f8 <clock_configure>
    clock_configure(clk_rtc,
10004582:	2200      	movs	r2, #0
10004584:	4b09      	ldr	r3, [pc, #36]	; (100045ac <clocks_init+0xcc>)
10004586:	0011      	movs	r1, r2
10004588:	9300      	str	r3, [sp, #0]
1000458a:	2009      	movs	r0, #9
1000458c:	0023      	movs	r3, r4
1000458e:	f7ff ff33 	bl	100043f8 <clock_configure>
    clock_configure(clk_peri,
10004592:	2200      	movs	r2, #0
10004594:	002b      	movs	r3, r5
10004596:	0011      	movs	r1, r2
10004598:	9500      	str	r5, [sp, #0]
1000459a:	2006      	movs	r0, #6
1000459c:	f7ff ff2c 	bl	100043f8 <clock_configure>
100045a0:	e7b0      	b.n	10004504 <clocks_init+0x24>
100045a2:	46c0      	nop			; (mov r8, r8)
100045a4:	2000023c 	.word	0x2000023c
100045a8:	02dc6c00 	.word	0x02dc6c00
100045ac:	0000b71b 	.word	0x0000b71b
100045b0:	40008000 	.word	0x40008000
100045b4:	4000b03c 	.word	0x4000b03c
100045b8:	4000b030 	.word	0x4000b030
100045bc:	59682f00 	.word	0x59682f00
100045c0:	40028000 	.word	0x40028000
100045c4:	47868c00 	.word	0x47868c00
100045c8:	4002c000 	.word	0x4002c000
100045cc:	00b71b00 	.word	0x00b71b00
100045d0:	07735940 	.word	0x07735940

100045d4 <clock_get_hz>:

/// \tag::clock_get_hz[]
uint32_t clock_get_hz(enum clock_index clk_index) {
    return configured_freq[clk_index];
100045d4:	4b01      	ldr	r3, [pc, #4]	; (100045dc <clock_get_hz+0x8>)
100045d6:	0080      	lsls	r0, r0, #2
100045d8:	58c0      	ldr	r0, [r0, r3]
}
100045da:	4770      	bx	lr
100045dc:	2000023c 	.word	0x2000023c

100045e0 <pll_init>:
#include "hardware/clocks.h"
#include "hardware/pll.h"
#include "hardware/resets.h"

/// \tag::pll_init_calculations[]
void pll_init(PLL pll, uint refdiv, uint vco_freq, uint post_div1, uint post_div2) {
100045e0:	b5f8      	push	{r3, r4, r5, r6, r7, lr}
100045e2:	0004      	movs	r4, r0
    uint32_t ref_mhz = XOSC_MHZ / refdiv;
100045e4:	200c      	movs	r0, #12
void pll_init(PLL pll, uint refdiv, uint vco_freq, uint post_div1, uint post_div2) {
100045e6:	0017      	movs	r7, r2
100045e8:	001e      	movs	r6, r3
100045ea:	000d      	movs	r5, r1
    uint32_t ref_mhz = XOSC_MHZ / refdiv;
100045ec:	f7fb fdf0 	bl	100001d0 <__udivsi3>
    // Check vco freq is in an acceptable range
    assert(vco_freq >= (PICO_PLL_VCO_MIN_FREQ_MHZ * PICO_MHZ) && vco_freq <= (PICO_PLL_VCO_MAX_FREQ_MHZ * PICO_MHZ));

    // What are we multiplying the reference clock by to get the vco freq
    // (The regs are called div, because you divide the vco output and compare it to the refclk)
    uint32_t fbdiv = vco_freq / (ref_mhz * PICO_MHZ);
100045f0:	491d      	ldr	r1, [pc, #116]	; (10004668 <pll_init+0x88>)
100045f2:	4341      	muls	r1, r0
100045f4:	0038      	movs	r0, r7
100045f6:	f7fb fdeb 	bl	100001d0 <__udivsi3>
    // Check that reference frequency is no greater than vco / 16
    assert(ref_mhz <= (vco_freq / 16));

    // div1 feeds into div2 so if div1 is 5 and div2 is 2 then you get a divide by 10
    uint32_t pdiv = (post_div1 << PLL_PRIM_POSTDIV1_LSB) |
                    (post_div2 << PLL_PRIM_POSTDIV2_LSB);
100045fa:	9a06      	ldr	r2, [sp, #24]
    uint32_t pdiv = (post_div1 << PLL_PRIM_POSTDIV1_LSB) |
100045fc:	0433      	lsls	r3, r6, #16
                    (post_div2 << PLL_PRIM_POSTDIV2_LSB);
100045fe:	0312      	lsls	r2, r2, #12
    uint32_t pdiv = (post_div1 << PLL_PRIM_POSTDIV1_LSB) |
10004600:	4313      	orrs	r3, r2

/// \tag::pll_init_finish[]
    if ((pll->cs & PLL_CS_LOCK_BITS) &&
10004602:	6822      	ldr	r2, [r4, #0]
10004604:	2a00      	cmp	r2, #0
10004606:	da0f      	bge.n	10004628 <pll_init+0x48>
        (refdiv == (pll->cs & PLL_CS_REFDIV_BITS)) &&
10004608:	213f      	movs	r1, #63	; 0x3f
1000460a:	6822      	ldr	r2, [r4, #0]
1000460c:	400a      	ands	r2, r1
    if ((pll->cs & PLL_CS_LOCK_BITS) &&
1000460e:	42aa      	cmp	r2, r5
10004610:	d10a      	bne.n	10004628 <pll_init+0x48>
        (fbdiv  == (pll->fbdiv_int & PLL_FBDIV_INT_BITS)) &&
10004612:	68a2      	ldr	r2, [r4, #8]
10004614:	0512      	lsls	r2, r2, #20
10004616:	0d12      	lsrs	r2, r2, #20
        (refdiv == (pll->cs & PLL_CS_REFDIV_BITS)) &&
10004618:	4282      	cmp	r2, r0
1000461a:	d105      	bne.n	10004628 <pll_init+0x48>
        (pdiv   == (pll->prim & (PLL_PRIM_POSTDIV1_BITS | PLL_PRIM_POSTDIV2_BITS)))) {
1000461c:	21ee      	movs	r1, #238	; 0xee
1000461e:	68e2      	ldr	r2, [r4, #12]
10004620:	02c9      	lsls	r1, r1, #11
10004622:	400a      	ands	r2, r1
        (fbdiv  == (pll->fbdiv_int & PLL_FBDIV_INT_BITS)) &&
10004624:	429a      	cmp	r2, r3
10004626:	d01b      	beq.n	10004660 <pll_init+0x80>
        // do not disrupt PLL that is already correctly configured and operating
        return;
    }

    uint32_t pll_reset = (pll_usb_hw == pll) ? RESETS_RESET_PLL_USB_BITS : RESETS_RESET_PLL_SYS_BITS;
10004628:	4a10      	ldr	r2, [pc, #64]	; (1000466c <pll_init+0x8c>)
1000462a:	4294      	cmp	r4, r2
1000462c:	d019      	beq.n	10004662 <pll_init+0x82>
1000462e:	2280      	movs	r2, #128	; 0x80
10004630:	0152      	lsls	r2, r2, #5
    *(io_rw_32 *) hw_set_alias_untyped((volatile void *) addr) = mask;
10004632:	490f      	ldr	r1, [pc, #60]	; (10004670 <pll_init+0x90>)
10004634:	4e0f      	ldr	r6, [pc, #60]	; (10004674 <pll_init+0x94>)
10004636:	600a      	str	r2, [r1, #0]
    *(io_rw_32 *) hw_clear_alias_untyped((volatile void *) addr) = mask;
10004638:	490f      	ldr	r1, [pc, #60]	; (10004678 <pll_init+0x98>)
1000463a:	600a      	str	r2, [r1, #0]
1000463c:	0017      	movs	r7, r2
1000463e:	68b1      	ldr	r1, [r6, #8]
10004640:	438f      	bics	r7, r1
10004642:	d1fb      	bne.n	1000463c <pll_init+0x5c>
10004644:	22c0      	movs	r2, #192	; 0xc0

    // Turn on PLL
    uint32_t power = PLL_PWR_PD_BITS | // Main power
                     PLL_PWR_VCOPD_BITS; // VCO Power

    hw_clear_bits(&pll->pwr, power);
10004646:	1d21      	adds	r1, r4, #4
10004648:	0192      	lsls	r2, r2, #6
1000464a:	430a      	orrs	r2, r1
1000464c:	2121      	movs	r1, #33	; 0x21
    pll->cs = refdiv;
1000464e:	6025      	str	r5, [r4, #0]
    pll->fbdiv_int = fbdiv;
10004650:	60a0      	str	r0, [r4, #8]
10004652:	6011      	str	r1, [r2, #0]

    // Wait for PLL to lock
    while (!(pll->cs & PLL_CS_LOCK_BITS)) tight_loop_contents();
10004654:	6821      	ldr	r1, [r4, #0]
10004656:	2900      	cmp	r1, #0
10004658:	dafc      	bge.n	10004654 <pll_init+0x74>

    // Set up post dividers
    pll->prim = pdiv;
1000465a:	60e3      	str	r3, [r4, #12]
1000465c:	2308      	movs	r3, #8
1000465e:	6013      	str	r3, [r2, #0]

    // Turn on post divider
    hw_clear_bits(&pll->pwr, PLL_PWR_POSTDIVPD_BITS);
/// \end::pll_init_finish[]
}
10004660:	bdf8      	pop	{r3, r4, r5, r6, r7, pc}
    uint32_t pll_reset = (pll_usb_hw == pll) ? RESETS_RESET_PLL_USB_BITS : RESETS_RESET_PLL_SYS_BITS;
10004662:	2280      	movs	r2, #128	; 0x80
10004664:	0192      	lsls	r2, r2, #6
10004666:	e7e4      	b.n	10004632 <pll_init+0x52>
10004668:	000f4240 	.word	0x000f4240
1000466c:	4002c000 	.word	0x4002c000
10004670:	4000e000 	.word	0x4000e000
10004674:	4000c000 	.word	0x4000c000
10004678:	4000f000 	.word	0x4000f000

1000467c <xosc_init>:
#error PICO_XOSC_STARTUP_DELAY_MULTIPLIER is too large: XOSC STARTUP.DELAY must be < 8192
#endif

void xosc_init(void) {
    // Assumes 1-15 MHz input, checked above.
    xosc_hw->ctrl = XOSC_CTRL_FREQ_RANGE_VALUE_1_15MHZ;
1000467c:	22aa      	movs	r2, #170	; 0xaa
1000467e:	4b06      	ldr	r3, [pc, #24]	; (10004698 <xosc_init+0x1c>)
10004680:	0112      	lsls	r2, r2, #4
10004682:	601a      	str	r2, [r3, #0]

    // Set xosc startup delay
    xosc_hw->startup = STARTUP_DELAY;
10004684:	222f      	movs	r2, #47	; 0x2f
    *(io_rw_32 *) hw_set_alias_untyped((volatile void *) addr) = mask;
10004686:	4905      	ldr	r1, [pc, #20]	; (1000469c <xosc_init+0x20>)
10004688:	60da      	str	r2, [r3, #12]
1000468a:	4a05      	ldr	r2, [pc, #20]	; (100046a0 <xosc_init+0x24>)
1000468c:	6011      	str	r1, [r2, #0]

    // Set the enable bit now that we have set freq range and startup delay
    hw_set_bits(&xosc_hw->ctrl, XOSC_CTRL_ENABLE_VALUE_ENABLE << XOSC_CTRL_ENABLE_LSB);

    // Wait for XOSC to be stable
    while(!(xosc_hw->status & XOSC_STATUS_STABLE_BITS));
1000468e:	685a      	ldr	r2, [r3, #4]
10004690:	2a00      	cmp	r2, #0
10004692:	dafc      	bge.n	1000468e <xosc_init+0x12>
}
10004694:	4770      	bx	lr
10004696:	46c0      	nop			; (mov r8, r8)
10004698:	40024000 	.word	0x40024000
1000469c:	00fab000 	.word	0x00fab000
100046a0:	40026000 	.word	0x40026000

100046a4 <watchdog_start_tick>:
#include "hardware/structs/psm.h"

/// \tag::watchdog_start_tick[]
void watchdog_start_tick(uint cycles) {
    // Important: This function also provides a tick reference to the timer
    watchdog_hw->tick = cycles | WATCHDOG_TICK_ENABLE_BITS;
100046a4:	2380      	movs	r3, #128	; 0x80
100046a6:	4a02      	ldr	r2, [pc, #8]	; (100046b0 <watchdog_start_tick+0xc>)
100046a8:	009b      	lsls	r3, r3, #2
100046aa:	4303      	orrs	r3, r0
100046ac:	62d3      	str	r3, [r2, #44]	; 0x2c
}
100046ae:	4770      	bx	lr
100046b0:	40058000 	.word	0x40058000

100046b4 <running_on_fpga>:

#if !PICO_NO_FPGA_CHECK
// Inline stub provided in header if this code is unused (so folding can be
// done in each TU instead of relying on LTO)
bool running_on_fpga() {
    return !!((*(io_ro_32 *)TBMAN_BASE) & TBMAN_PLATFORM_FPGA_BITS);
100046b4:	4b02      	ldr	r3, [pc, #8]	; (100046c0 <running_on_fpga+0xc>)
100046b6:	6818      	ldr	r0, [r3, #0]
100046b8:	0780      	lsls	r0, r0, #30
100046ba:	0fc0      	lsrs	r0, r0, #31
}
100046bc:	4770      	bx	lr
100046be:	46c0      	nop			; (mov r8, r8)
100046c0:	4006c000 	.word	0x4006c000

100046c4 <gpio_set_function>:
// This also clears the input/output/irq override bits.
void gpio_set_function(uint gpio, enum gpio_function fn) {
    check_gpio_param(gpio);
    invalid_params_if(GPIO, ((uint32_t)fn << IO_BANK0_GPIO0_CTRL_FUNCSEL_LSB) & ~IO_BANK0_GPIO0_CTRL_FUNCSEL_BITS);
    // Set input enable on, output disable off
    hw_write_masked(&padsbank0_hw->io[gpio],
100046c4:	4b08      	ldr	r3, [pc, #32]	; (100046e8 <gpio_set_function+0x24>)
100046c6:	0082      	lsls	r2, r0, #2
100046c8:	18d2      	adds	r2, r2, r3
    hw_xor_bits(addr, (*addr ^ values) & write_mask);
100046ca:	2340      	movs	r3, #64	; 0x40
void gpio_set_function(uint gpio, enum gpio_function fn) {
100046cc:	b510      	push	{r4, lr}
100046ce:	6814      	ldr	r4, [r2, #0]
                   PADS_BANK0_GPIO0_IE_BITS,
                   PADS_BANK0_GPIO0_IE_BITS | PADS_BANK0_GPIO0_OD_BITS
    );
    // Zero all fields apart from fsel; we want this IO to do what the peripheral tells it.
    // This doesn't affect e.g. pullup/pulldown, as these are in pad controls.
    iobank0_hw->io[gpio].ctrl = fn << IO_BANK0_GPIO0_CTRL_FUNCSEL_LSB;
100046d0:	00c0      	lsls	r0, r0, #3
100046d2:	4063      	eors	r3, r4
100046d4:	24c0      	movs	r4, #192	; 0xc0
100046d6:	4023      	ands	r3, r4
    *(io_rw_32 *) hw_xor_alias_untyped((volatile void *) addr) = mask;
100046d8:	2480      	movs	r4, #128	; 0x80
100046da:	0164      	lsls	r4, r4, #5
100046dc:	4322      	orrs	r2, r4
100046de:	6013      	str	r3, [r2, #0]
100046e0:	4b02      	ldr	r3, [pc, #8]	; (100046ec <gpio_set_function+0x28>)
100046e2:	18c0      	adds	r0, r0, r3
100046e4:	6041      	str	r1, [r0, #4]
}
100046e6:	bd10      	pop	{r4, pc}
100046e8:	4001c004 	.word	0x4001c004
100046ec:	40014000 	.word	0x40014000

100046f0 <gpio_set_pulls>:

// Note that, on RP2040, setting both pulls enables a "bus keep" function,
// i.e. weak pull to whatever is current high/low state of GPIO.
void gpio_set_pulls(uint gpio, bool up, bool down) {
    check_gpio_param(gpio);
    hw_write_masked(
100046f0:	4b07      	ldr	r3, [pc, #28]	; (10004710 <gpio_set_pulls+0x20>)
100046f2:	0080      	lsls	r0, r0, #2
100046f4:	18c0      	adds	r0, r0, r3
    hw_xor_bits(addr, (*addr ^ values) & write_mask);
100046f6:	6803      	ldr	r3, [r0, #0]
            &padsbank0_hw->io[gpio],
            (bool_to_bit(up) << PADS_BANK0_GPIO0_PUE_LSB) | (bool_to_bit(down) << PADS_BANK0_GPIO0_PDE_LSB),
100046f8:	00c9      	lsls	r1, r1, #3
100046fa:	0092      	lsls	r2, r2, #2
    hw_write_masked(
100046fc:	430a      	orrs	r2, r1
100046fe:	405a      	eors	r2, r3
10004700:	230c      	movs	r3, #12
10004702:	401a      	ands	r2, r3
    *(io_rw_32 *) hw_xor_alias_untyped((volatile void *) addr) = mask;
10004704:	2380      	movs	r3, #128	; 0x80
10004706:	015b      	lsls	r3, r3, #5
10004708:	4303      	orrs	r3, r0
1000470a:	601a      	str	r2, [r3, #0]
            PADS_BANK0_GPIO0_PUE_BITS | PADS_BANK0_GPIO0_PDE_BITS
    );
}
1000470c:	4770      	bx	lr
1000470e:	46c0      	nop			; (mov r8, r8)
10004710:	4001c004 	.word	0x4001c004

10004714 <gpio_set_input_hysteresis_enabled>:
}

void gpio_set_input_hysteresis_enabled(uint gpio, bool enabled) {
    check_gpio_param(gpio);
    if (enabled)
        hw_set_bits(&padsbank0_hw->io[gpio], PADS_BANK0_GPIO0_SCHMITT_BITS);
10004714:	4b05      	ldr	r3, [pc, #20]	; (1000472c <gpio_set_input_hysteresis_enabled+0x18>)
10004716:	0080      	lsls	r0, r0, #2
10004718:	18c0      	adds	r0, r0, r3
1000471a:	2202      	movs	r2, #2
    *(io_rw_32 *) hw_set_alias_untyped((volatile void *) addr) = mask;
1000471c:	2380      	movs	r3, #128	; 0x80
    if (enabled)
1000471e:	2900      	cmp	r1, #0
10004720:	d100      	bne.n	10004724 <gpio_set_input_hysteresis_enabled+0x10>
    *(io_rw_32 *) hw_clear_alias_untyped((volatile void *) addr) = mask;
10004722:	23c0      	movs	r3, #192	; 0xc0
10004724:	019b      	lsls	r3, r3, #6
10004726:	4303      	orrs	r3, r0
10004728:	601a      	str	r2, [r3, #0]
    else
        hw_clear_bits(&padsbank0_hw->io[gpio], PADS_BANK0_GPIO0_SCHMITT_BITS);
}
1000472a:	4770      	bx	lr
1000472c:	4001c004 	.word	0x4001c004

10004730 <gpio_set_slew_rate>:
    return (padsbank0_hw->io[gpio] & PADS_BANK0_GPIO0_SCHMITT_BITS) != 0;
}

void gpio_set_slew_rate(uint gpio, enum gpio_slew_rate slew) {
    check_gpio_param(gpio);
    hw_write_masked(&padsbank0_hw->io[gpio],
10004730:	4b05      	ldr	r3, [pc, #20]	; (10004748 <gpio_set_slew_rate+0x18>)
10004732:	0080      	lsls	r0, r0, #2
10004734:	18c0      	adds	r0, r0, r3
    hw_xor_bits(addr, (*addr ^ values) & write_mask);
10004736:	6803      	ldr	r3, [r0, #0]
10004738:	4059      	eors	r1, r3
1000473a:	2301      	movs	r3, #1
1000473c:	4019      	ands	r1, r3
    *(io_rw_32 *) hw_xor_alias_untyped((volatile void *) addr) = mask;
1000473e:	2380      	movs	r3, #128	; 0x80
10004740:	015b      	lsls	r3, r3, #5
10004742:	4303      	orrs	r3, r0
10004744:	6019      	str	r1, [r3, #0]
                    (uint)slew << PADS_BANK0_GPIO0_SLEWFAST_LSB,
                    PADS_BANK0_GPIO0_SLEWFAST_BITS
    );
}
10004746:	4770      	bx	lr
10004748:	4001c004 	.word	0x4001c004

1000474c <gpio_set_drive_strength>:

// Enum encoding should match hardware encoding on RP2040
static_assert(PADS_BANK0_GPIO0_DRIVE_VALUE_8MA == GPIO_DRIVE_STRENGTH_8MA, "");
void gpio_set_drive_strength(uint gpio, enum gpio_drive_strength drive) {
    check_gpio_param(gpio);
    hw_write_masked(&padsbank0_hw->io[gpio],
1000474c:	4b06      	ldr	r3, [pc, #24]	; (10004768 <gpio_set_drive_strength+0x1c>)
1000474e:	0080      	lsls	r0, r0, #2
10004750:	18c0      	adds	r0, r0, r3
    hw_xor_bits(addr, (*addr ^ values) & write_mask);
10004752:	6803      	ldr	r3, [r0, #0]
10004754:	0109      	lsls	r1, r1, #4
10004756:	4059      	eors	r1, r3
10004758:	2330      	movs	r3, #48	; 0x30
1000475a:	4019      	ands	r1, r3
    *(io_rw_32 *) hw_xor_alias_untyped((volatile void *) addr) = mask;
1000475c:	2380      	movs	r3, #128	; 0x80
1000475e:	015b      	lsls	r3, r3, #5
10004760:	4303      	orrs	r3, r0
10004762:	6019      	str	r1, [r3, #0]
                    (uint)drive << PADS_BANK0_GPIO0_DRIVE_LSB,
                    PADS_BANK0_GPIO0_DRIVE_BITS
    );
}
10004764:	4770      	bx	lr
10004766:	46c0      	nop			; (mov r8, r8)
10004768:	4001c004 	.word	0x4001c004

1000476c <gpio_acknowledge_irq>:
    _gpio_set_irq_enabled(gpio, events, enabled, irq_ctrl_base);
}

void gpio_acknowledge_irq(uint gpio, uint32_t events) {
    check_gpio_param(gpio);
    iobank0_hw->intr[gpio / 8] = events << (4 * (gpio % 8));
1000476c:	2207      	movs	r2, #7
1000476e:	08c3      	lsrs	r3, r0, #3
10004770:	4010      	ands	r0, r2
10004772:	0080      	lsls	r0, r0, #2
10004774:	4081      	lsls	r1, r0
10004776:	4a02      	ldr	r2, [pc, #8]	; (10004780 <gpio_acknowledge_irq+0x14>)
10004778:	333c      	adds	r3, #60	; 0x3c
1000477a:	009b      	lsls	r3, r3, #2
1000477c:	5099      	str	r1, [r3, r2]
}
1000477e:	4770      	bx	lr
10004780:	40014000 	.word	0x40014000

10004784 <gpio_set_irq_enabled>:
void gpio_set_irq_enabled(uint gpio, uint32_t events, bool enabled) {
10004784:	b5f8      	push	{r3, r4, r5, r6, r7, lr}
 *  \ingroup pico_platform
 *
 * \return The core number the call was made from
 */
__force_inline static uint get_core_num(void) {
    return (*(uint32_t *) (SIO_BASE + SIO_CPUID_OFFSET));
10004786:	23d0      	movs	r3, #208	; 0xd0
10004788:	061b      	lsls	r3, r3, #24
                                           &iobank0_hw->proc1_irq_ctrl : &iobank0_hw->proc0_irq_ctrl;
1000478a:	681c      	ldr	r4, [r3, #0]
void gpio_set_irq_enabled(uint gpio, uint32_t events, bool enabled) {
1000478c:	0005      	movs	r5, r0
                                           &iobank0_hw->proc1_irq_ctrl : &iobank0_hw->proc0_irq_ctrl;
1000478e:	4263      	negs	r3, r4
10004790:	415c      	adcs	r4, r3
10004792:	232f      	movs	r3, #47	; 0x2f
10004794:	4264      	negs	r4, r4
10004796:	439c      	bics	r4, r3
10004798:	4b0a      	ldr	r3, [pc, #40]	; (100047c4 <gpio_set_irq_enabled+0x40>)
void gpio_set_irq_enabled(uint gpio, uint32_t events, bool enabled) {
1000479a:	000f      	movs	r7, r1
                                           &iobank0_hw->proc1_irq_ctrl : &iobank0_hw->proc0_irq_ctrl;
1000479c:	18e4      	adds	r4, r4, r3
void gpio_set_irq_enabled(uint gpio, uint32_t events, bool enabled) {
1000479e:	0016      	movs	r6, r2
    gpio_acknowledge_irq(gpio, events);
100047a0:	f7ff ffe4 	bl	1000476c <gpio_acknowledge_irq>
    events <<= 4 * (gpio % 8);
100047a4:	2307      	movs	r3, #7
100047a6:	402b      	ands	r3, r5
    io_rw_32 *en_reg = &irq_ctrl_base->inte[gpio / 8];
100047a8:	08ed      	lsrs	r5, r5, #3
    events <<= 4 * (gpio % 8);
100047aa:	009b      	lsls	r3, r3, #2
    io_rw_32 *en_reg = &irq_ctrl_base->inte[gpio / 8];
100047ac:	00ad      	lsls	r5, r5, #2
    events <<= 4 * (gpio % 8);
100047ae:	409f      	lsls	r7, r3
    io_rw_32 *en_reg = &irq_ctrl_base->inte[gpio / 8];
100047b0:	1964      	adds	r4, r4, r5
    *(io_rw_32 *) hw_set_alias_untyped((volatile void *) addr) = mask;
100047b2:	2380      	movs	r3, #128	; 0x80
    if (enabled)
100047b4:	2e00      	cmp	r6, #0
100047b6:	d100      	bne.n	100047ba <gpio_set_irq_enabled+0x36>
    *(io_rw_32 *) hw_clear_alias_untyped((volatile void *) addr) = mask;
100047b8:	23c0      	movs	r3, #192	; 0xc0
100047ba:	019b      	lsls	r3, r3, #6
100047bc:	4323      	orrs	r3, r4
100047be:	601f      	str	r7, [r3, #0]
}
100047c0:	bdf8      	pop	{r3, r4, r5, r6, r7, pc}
100047c2:	46c0      	nop			; (mov r8, r8)
100047c4:	40014130 	.word	0x40014130

100047c8 <gpio_set_input_enabled>:
#endif
}

void gpio_set_input_enabled(uint gpio, bool enabled) {
    if (enabled)
        hw_set_bits(&padsbank0_hw->io[gpio], PADS_BANK0_GPIO0_IE_BITS);
100047c8:	4b05      	ldr	r3, [pc, #20]	; (100047e0 <gpio_set_input_enabled+0x18>)
100047ca:	0080      	lsls	r0, r0, #2
100047cc:	18c0      	adds	r0, r0, r3
100047ce:	2240      	movs	r2, #64	; 0x40
    *(io_rw_32 *) hw_set_alias_untyped((volatile void *) addr) = mask;
100047d0:	2380      	movs	r3, #128	; 0x80
    if (enabled)
100047d2:	2900      	cmp	r1, #0
100047d4:	d100      	bne.n	100047d8 <gpio_set_input_enabled+0x10>
    *(io_rw_32 *) hw_clear_alias_untyped((volatile void *) addr) = mask;
100047d6:	23c0      	movs	r3, #192	; 0xc0
100047d8:	019b      	lsls	r3, r3, #6
100047da:	4303      	orrs	r3, r0
100047dc:	601a      	str	r2, [r3, #0]
    else
        hw_clear_bits(&padsbank0_hw->io[gpio], PADS_BANK0_GPIO0_IE_BITS);
}
100047de:	4770      	bx	lr
100047e0:	4001c004 	.word	0x4001c004

100047e4 <uart_set_baudrate>:
    invalid_params_if(UART, uart != uart0 && uart != uart1);
    uart_reset(uart);
}

/// \tag::uart_set_baudrate[]
uint uart_set_baudrate(uart_inst_t *uart, uint baudrate) {
100047e4:	b570      	push	{r4, r5, r6, lr}
100047e6:	0006      	movs	r6, r0
    invalid_params_if(UART, baudrate == 0);
    uint32_t baud_rate_div = (8 * clock_get_hz(clk_peri) / baudrate);
100047e8:	2006      	movs	r0, #6
uint uart_set_baudrate(uart_inst_t *uart, uint baudrate) {
100047ea:	000c      	movs	r4, r1
    uint32_t baud_rate_div = (8 * clock_get_hz(clk_peri) / baudrate);
100047ec:	f7ff fef2 	bl	100045d4 <clock_get_hz>
100047f0:	0021      	movs	r1, r4
100047f2:	00c0      	lsls	r0, r0, #3
100047f4:	f7fb fcec 	bl	100001d0 <__udivsi3>
    uint32_t baud_ibrd = baud_rate_div >> 7;
    uint32_t baud_fbrd;

    if (baud_ibrd == 0) {
        baud_ibrd = 1;
100047f8:	2401      	movs	r4, #1
    uint32_t baud_ibrd = baud_rate_div >> 7;
100047fa:	09c5      	lsrs	r5, r0, #7
    if (baud_ibrd == 0) {
100047fc:	d007      	beq.n	1000480e <uart_set_baudrate+0x2a>
        baud_fbrd = 0;
    } else if (baud_ibrd >= 65535) {
100047fe:	4b0e      	ldr	r3, [pc, #56]	; (10004838 <uart_set_baudrate+0x54>)
10004800:	429d      	cmp	r5, r3
10004802:	d815      	bhi.n	10004830 <uart_set_baudrate+0x4c>
        baud_ibrd = 65535;
        baud_fbrd = 0;
    }  else {
        baud_fbrd = ((baud_rate_div & 0x7f) + 1) / 2;
10004804:	237f      	movs	r3, #127	; 0x7f
10004806:	4018      	ands	r0, r3
10004808:	1900      	adds	r0, r0, r4
1000480a:	002c      	movs	r4, r5
1000480c:	0845      	lsrs	r5, r0, #1
    *(io_rw_32 *) hw_set_alias_untyped((volatile void *) addr) = mask;
1000480e:	2380      	movs	r3, #128	; 0x80
10004810:	2200      	movs	r2, #0
    }

    // Load PL011's baud divisor registers
    uart_get_hw(uart)->ibrd = baud_ibrd;
10004812:	6274      	str	r4, [r6, #36]	; 0x24
10004814:	019b      	lsls	r3, r3, #6
    uart_get_hw(uart)->fbrd = baud_fbrd;
10004816:	62b5      	str	r5, [r6, #40]	; 0x28

    // PL011 needs a (dummy) line control register write to latch in the
    // divisors. We don't want to actually change LCR contents here.
    hw_set_bits(&uart_get_hw(uart)->lcr_h, 0);
10004818:	362c      	adds	r6, #44	; 0x2c
1000481a:	4333      	orrs	r3, r6
1000481c:	601a      	str	r2, [r3, #0]

    // See datasheet
    return (4 * clock_get_hz(clk_peri)) / (64 * baud_ibrd + baud_fbrd);
1000481e:	2006      	movs	r0, #6
10004820:	f7ff fed8 	bl	100045d4 <clock_get_hz>
10004824:	01a1      	lsls	r1, r4, #6
10004826:	1949      	adds	r1, r1, r5
10004828:	0080      	lsls	r0, r0, #2
1000482a:	f7fb fcd1 	bl	100001d0 <__udivsi3>
}
1000482e:	bd70      	pop	{r4, r5, r6, pc}
        baud_fbrd = 0;
10004830:	2500      	movs	r5, #0
        baud_ibrd = 65535;
10004832:	4c02      	ldr	r4, [pc, #8]	; (1000483c <uart_set_baudrate+0x58>)
10004834:	e7eb      	b.n	1000480e <uart_set_baudrate+0x2a>
10004836:	46c0      	nop			; (mov r8, r8)
10004838:	0000fffe 	.word	0x0000fffe
1000483c:	0000ffff 	.word	0x0000ffff

10004840 <uart_init>:
uint uart_init(uart_inst_t *uart, uint baudrate) {
10004840:	b570      	push	{r4, r5, r6, lr}
10004842:	0004      	movs	r4, r0
    if (clock_get_hz(clk_peri) == 0)
10004844:	2006      	movs	r0, #6
uint uart_init(uart_inst_t *uart, uint baudrate) {
10004846:	000d      	movs	r5, r1
    if (clock_get_hz(clk_peri) == 0)
10004848:	f7ff fec4 	bl	100045d4 <clock_get_hz>
1000484c:	2800      	cmp	r0, #0
1000484e:	d02e      	beq.n	100048ae <uart_init+0x6e>
    reset_block(uart_get_index(uart) ? RESETS_RESET_UART1_BITS : RESETS_RESET_UART0_BITS);
10004850:	4b19      	ldr	r3, [pc, #100]	; (100048b8 <uart_init+0x78>)
10004852:	429c      	cmp	r4, r3
10004854:	d02c      	beq.n	100048b0 <uart_init+0x70>
10004856:	2380      	movs	r3, #128	; 0x80
10004858:	03db      	lsls	r3, r3, #15
1000485a:	4a18      	ldr	r2, [pc, #96]	; (100048bc <uart_init+0x7c>)
1000485c:	4918      	ldr	r1, [pc, #96]	; (100048c0 <uart_init+0x80>)
1000485e:	6013      	str	r3, [r2, #0]
    *(io_rw_32 *) hw_clear_alias_untyped((volatile void *) addr) = mask;
10004860:	4a18      	ldr	r2, [pc, #96]	; (100048c4 <uart_init+0x84>)
10004862:	6013      	str	r3, [r2, #0]
10004864:	0018      	movs	r0, r3
10004866:	688a      	ldr	r2, [r1, #8]
10004868:	4390      	bics	r0, r2
1000486a:	d1fb      	bne.n	10004864 <uart_init+0x24>
    return uart == uart1 ? 1 : 0;
1000486c:	4b16      	ldr	r3, [pc, #88]	; (100048c8 <uart_init+0x88>)
/// \end::uart_set_baudrate[]

void uart_set_translate_crlf(uart_inst_t *uart, bool crlf) {
#if PICO_UART_ENABLE_CRLF_SUPPORT
    uart_char_to_line_feed[uart_get_index(uart)] = crlf ? '\n' : 0x100;
1000486e:	4a17      	ldr	r2, [pc, #92]	; (100048cc <uart_init+0x8c>)
10004870:	18e3      	adds	r3, r4, r3
10004872:	4259      	negs	r1, r3
10004874:	414b      	adcs	r3, r1
10004876:	2180      	movs	r1, #128	; 0x80
10004878:	005b      	lsls	r3, r3, #1
1000487a:	0049      	lsls	r1, r1, #1
1000487c:	5299      	strh	r1, [r3, r2]
    uint baud = uart_set_baudrate(uart, baudrate);
1000487e:	0020      	movs	r0, r4
10004880:	0029      	movs	r1, r5
10004882:	f7ff ffaf 	bl	100047e4 <uart_set_baudrate>
    hw_xor_bits(addr, (*addr ^ values) & write_mask);
10004886:	2360      	movs	r3, #96	; 0x60
10004888:	6ae2      	ldr	r2, [r4, #44]	; 0x2c
    hw_write_masked(&uart_get_hw(uart)->lcr_h,
1000488a:	0021      	movs	r1, r4
1000488c:	4053      	eors	r3, r2
1000488e:	226e      	movs	r2, #110	; 0x6e
10004890:	4013      	ands	r3, r2
    *(io_rw_32 *) hw_xor_alias_untyped((volatile void *) addr) = mask;
10004892:	2280      	movs	r2, #128	; 0x80
10004894:	312c      	adds	r1, #44	; 0x2c
10004896:	0152      	lsls	r2, r2, #5
10004898:	430a      	orrs	r2, r1
1000489a:	6013      	str	r3, [r2, #0]
    uart_get_hw(uart)->cr = UART_UARTCR_UARTEN_BITS | UART_UARTCR_TXE_BITS | UART_UARTCR_RXE_BITS;
1000489c:	4b0c      	ldr	r3, [pc, #48]	; (100048d0 <uart_init+0x90>)
    *(io_rw_32 *) hw_set_alias_untyped((volatile void *) addr) = mask;
1000489e:	2210      	movs	r2, #16
100048a0:	6323      	str	r3, [r4, #48]	; 0x30
100048a2:	2380      	movs	r3, #128	; 0x80
100048a4:	019b      	lsls	r3, r3, #6
100048a6:	430b      	orrs	r3, r1
100048a8:	601a      	str	r2, [r3, #0]
    uart_get_hw(uart)->dmacr = UART_UARTDMACR_TXDMAE_BITS | UART_UARTDMACR_RXDMAE_BITS;
100048aa:	2303      	movs	r3, #3
100048ac:	64a3      	str	r3, [r4, #72]	; 0x48
}
100048ae:	bd70      	pop	{r4, r5, r6, pc}
    reset_block(uart_get_index(uart) ? RESETS_RESET_UART1_BITS : RESETS_RESET_UART0_BITS);
100048b0:	2380      	movs	r3, #128	; 0x80
100048b2:	041b      	lsls	r3, r3, #16
100048b4:	e7d1      	b.n	1000485a <uart_init+0x1a>
100048b6:	46c0      	nop			; (mov r8, r8)
100048b8:	40038000 	.word	0x40038000
100048bc:	4000e000 	.word	0x4000e000
100048c0:	4000c000 	.word	0x4000c000
100048c4:	4000f000 	.word	0x4000f000
100048c8:	bffc8000 	.word	0xbffc8000
100048cc:	20000294 	.word	0x20000294
100048d0:	00000301 	.word	0x00000301

100048d4 <k_sys_fatal_error_handler>:
/* LCOV_EXCL_STOP */

/* LCOV_EXCL_START */
__weak void k_sys_fatal_error_handler(unsigned int reason,
				      const z_arch_esf_t *esf)
{
100048d4:	b51f      	push	{r0, r1, r2, r3, r4, lr}
100048d6:	0004      	movs	r4, r0
		(void) arch_syscall_invoke0(K_SYSCALL_LOG_PANIC);
		return;
	}
#endif
	compiler_barrier();
	z_impl_log_panic();
100048d8:	f7fe fc14 	bl	10003104 <z_impl_log_panic>
	ARG_UNUSED(esf);

	LOG_PANIC();
	LOG_ERR("Halting system");
100048dc:	2000      	movs	r0, #0
100048de:	4b06      	ldr	r3, [pc, #24]	; (100048f8 <k_sys_fatal_error_handler+0x24>)
100048e0:	9001      	str	r0, [sp, #4]
100048e2:	9302      	str	r3, [sp, #8]
100048e4:	9000      	str	r0, [sp, #0]
100048e6:	0003      	movs	r3, r0
100048e8:	2201      	movs	r2, #1
100048ea:	4904      	ldr	r1, [pc, #16]	; (100048fc <k_sys_fatal_error_handler+0x28>)
100048ec:	f001 fb77 	bl	10005fde <z_log_msg_runtime_create.constprop.0>
	arch_system_halt(reason);
100048f0:	0020      	movs	r0, r4
100048f2:	f001 fb83 	bl	10005ffc <arch_system_halt>
100048f6:	46c0      	nop			; (mov r8, r8)
100048f8:	10006b1d 	.word	0x10006b1d
100048fc:	10006444 	.word	0x10006444

10004900 <z_fatal_error>:
	return 0;
#endif
}

void z_fatal_error(unsigned int reason, const z_arch_esf_t *esf)
{
10004900:	b5f0      	push	{r4, r5, r6, r7, lr}
10004902:	0006      	movs	r6, r0
10004904:	000f      	movs	r7, r1
10004906:	b089      	sub	sp, #36	; 0x24
	__asm__ volatile("mrs %0, PRIMASK;"
10004908:	f3ef 8310 	mrs	r3, PRIMASK
1000490c:	b672      	cpsid	i
1000490e:	9307      	str	r3, [sp, #28]
	return z_impl_z_current_get();
10004910:	f000 fc8e 	bl	10005230 <z_impl_z_current_get>
10004914:	4b26      	ldr	r3, [pc, #152]	; (100049b0 <z_fatal_error+0xb0>)
10004916:	0005      	movs	r5, r0
	switch (reason) {
10004918:	2e04      	cmp	r6, #4
1000491a:	d802      	bhi.n	10004922 <z_fatal_error+0x22>
1000491c:	4b25      	ldr	r3, [pc, #148]	; (100049b4 <z_fatal_error+0xb4>)
1000491e:	00b2      	lsls	r2, r6, #2
10004920:	58d3      	ldr	r3, [r2, r3]
			k_current_get() : NULL;

	/* twister looks for the "ZEPHYR FATAL ERROR" string, don't
	 * change it without also updating twister
	 */
	LOG_ERR(">>> ZEPHYR FATAL ERROR %d: %s on CPU %d", reason,
10004922:	2400      	movs	r4, #0
10004924:	4a24      	ldr	r2, [pc, #144]	; (100049b8 <z_fatal_error+0xb8>)
10004926:	9304      	str	r3, [sp, #16]
10004928:	4b24      	ldr	r3, [pc, #144]	; (100049bc <z_fatal_error+0xbc>)
1000492a:	9206      	str	r2, [sp, #24]
1000492c:	9302      	str	r3, [sp, #8]
1000492e:	2201      	movs	r2, #1
10004930:	0023      	movs	r3, r4
10004932:	0020      	movs	r0, r4
10004934:	9906      	ldr	r1, [sp, #24]
10004936:	9405      	str	r4, [sp, #20]
10004938:	9603      	str	r6, [sp, #12]
1000493a:	9401      	str	r4, [sp, #4]
1000493c:	9400      	str	r4, [sp, #0]
1000493e:	f001 fb4e 	bl	10005fde <z_log_msg_runtime_create.constprop.0>
	 * an IRQ or exception was being handled, or thread context.
	 *
	 * See #17656
	 */
#if defined(CONFIG_ARCH_HAS_NESTED_EXCEPTION_DETECTION)
	if ((esf != NULL) && arch_is_in_nested_exception(esf)) {
10004942:	42a7      	cmp	r7, r4
10004944:	d00d      	beq.n	10004962 <z_fatal_error+0x62>
 * @return true if execution state was in handler mode, before
 *              the current exception occurred, otherwise false.
 */
static ALWAYS_INLINE bool arch_is_in_nested_exception(const z_arch_esf_t *esf)
{
	return (esf->basic.xpsr & IPSR_ISR_Msk) ? (true) : (false);
10004946:	69fb      	ldr	r3, [r7, #28]
10004948:	05db      	lsls	r3, r3, #23
1000494a:	42a3      	cmp	r3, r4
1000494c:	d009      	beq.n	10004962 <z_fatal_error+0x62>
		LOG_ERR("Fault during interrupt handling\n");
1000494e:	4b1c      	ldr	r3, [pc, #112]	; (100049c0 <z_fatal_error+0xc0>)
10004950:	2201      	movs	r2, #1
10004952:	9302      	str	r3, [sp, #8]
10004954:	0020      	movs	r0, r4
10004956:	0023      	movs	r3, r4
10004958:	9906      	ldr	r1, [sp, #24]
1000495a:	9401      	str	r4, [sp, #4]
1000495c:	9400      	str	r4, [sp, #0]
1000495e:	f001 fb3e 	bl	10005fde <z_log_msg_runtime_create.constprop.0>
	const char *thread_name = (thread != NULL) ? k_thread_name_get(thread) : NULL;
10004962:	2d00      	cmp	r5, #0
10004964:	d007      	beq.n	10004976 <z_fatal_error+0x76>
10004966:	0028      	movs	r0, r5
10004968:	f001 fb54 	bl	10006014 <k_thread_name_get>
	if ((thread_name == NULL) || (thread_name[0] == '\0')) {
1000496c:	2800      	cmp	r0, #0
1000496e:	d002      	beq.n	10004976 <z_fatal_error+0x76>
10004970:	7803      	ldrb	r3, [r0, #0]
10004972:	2b00      	cmp	r3, #0
10004974:	d100      	bne.n	10004978 <z_fatal_error+0x78>
		thread_name = "unknown";
10004976:	4813      	ldr	r0, [pc, #76]	; (100049c4 <z_fatal_error+0xc4>)
	}
#endif

	LOG_ERR("Current thread: %p (%s)", thread,
10004978:	9004      	str	r0, [sp, #16]
1000497a:	2000      	movs	r0, #0
1000497c:	4b12      	ldr	r3, [pc, #72]	; (100049c8 <z_fatal_error+0xc8>)
1000497e:	2201      	movs	r2, #1
10004980:	9906      	ldr	r1, [sp, #24]
10004982:	9302      	str	r3, [sp, #8]
10004984:	9001      	str	r0, [sp, #4]
10004986:	0003      	movs	r3, r0
10004988:	9000      	str	r0, [sp, #0]
1000498a:	9503      	str	r5, [sp, #12]
1000498c:	f001 fb27 	bl	10005fde <z_log_msg_runtime_create.constprop.0>

#ifndef CONFIG_XTENSA
	coredump(reason, esf, thread);
#endif

	k_sys_fatal_error_handler(reason, esf);
10004990:	0039      	movs	r1, r7
10004992:	0030      	movs	r0, r6
10004994:	f7ff ff9e 	bl	100048d4 <k_sys_fatal_error_handler>
	if (key != 0U) {
10004998:	9b07      	ldr	r3, [sp, #28]
1000499a:	2b00      	cmp	r3, #0
1000499c:	d102      	bne.n	100049a4 <z_fatal_error+0xa4>
	__asm__ volatile(
1000499e:	b662      	cpsie	i
100049a0:	f3bf 8f6f 	isb	sy
	z_impl_k_thread_abort(thread);
100049a4:	0028      	movs	r0, r5
100049a6:	f7ff f85f 	bl	10003a68 <z_impl_k_thread_abort>
	arch_irq_unlock(key);

	if (IS_ENABLED(CONFIG_MULTITHREADING)) {
		k_thread_abort(thread);
	}
}
100049aa:	b009      	add	sp, #36	; 0x24
100049ac:	bdf0      	pop	{r4, r5, r6, r7, pc}
100049ae:	46c0      	nop			; (mov r8, r8)
100049b0:	10006b2c 	.word	0x10006b2c
100049b4:	100065ec 	.word	0x100065ec
100049b8:	10006444 	.word	0x10006444
100049bc:	10006b42 	.word	0x10006b42
100049c0:	10006b6a 	.word	0x10006b6a
100049c4:	10006b3a 	.word	0x10006b3a
100049c8:	10006b8b 	.word	0x10006b8b

100049cc <z_sys_init_run_level>:
 * off and the next one begins.
 *
 * @param level init level to run.
 */
static void z_sys_init_run_level(enum init_level level)
{
100049cc:	b5f7      	push	{r0, r1, r2, r4, r5, r6, r7, lr}
				if (rc > UINT8_MAX) {
					rc = UINT8_MAX;
				}
				dev->state->init_res = rc;
			}
			dev->state->initialized = true;
100049ce:	2701      	movs	r7, #1
	for (entry = levels[level]; entry < levels[level+1]; entry++) {
100049d0:	4e10      	ldr	r6, [pc, #64]	; (10004a14 <z_sys_init_run_level+0x48>)
100049d2:	0083      	lsls	r3, r0, #2
100049d4:	3001      	adds	r0, #1
100049d6:	599c      	ldr	r4, [r3, r6]
100049d8:	0083      	lsls	r3, r0, #2
100049da:	9301      	str	r3, [sp, #4]
100049dc:	9b01      	ldr	r3, [sp, #4]
100049de:	58f3      	ldr	r3, [r6, r3]
100049e0:	42a3      	cmp	r3, r4
100049e2:	d800      	bhi.n	100049e6 <z_sys_init_run_level+0x1a>
		}
	}
}
100049e4:	bdf7      	pop	{r0, r1, r2, r4, r5, r6, r7, pc}
		const struct device *dev = entry->dev;
100049e6:	6865      	ldr	r5, [r4, #4]
		int rc = entry->init(dev);
100049e8:	6823      	ldr	r3, [r4, #0]
100049ea:	0028      	movs	r0, r5
100049ec:	4798      	blx	r3
		if (dev != NULL) {
100049ee:	2d00      	cmp	r5, #0
100049f0:	d00d      	beq.n	10004a0e <z_sys_init_run_level+0x42>
			if (rc != 0) {
100049f2:	2800      	cmp	r0, #0
100049f4:	d007      	beq.n	10004a06 <z_sys_init_run_level+0x3a>
				if (rc < 0) {
100049f6:	17c2      	asrs	r2, r0, #31
100049f8:	1880      	adds	r0, r0, r2
				dev->state->init_res = rc;
100049fa:	68eb      	ldr	r3, [r5, #12]
				if (rc < 0) {
100049fc:	4050      	eors	r0, r2
				if (rc > UINT8_MAX) {
100049fe:	28ff      	cmp	r0, #255	; 0xff
10004a00:	dd00      	ble.n	10004a04 <z_sys_init_run_level+0x38>
10004a02:	20ff      	movs	r0, #255	; 0xff
				dev->state->init_res = rc;
10004a04:	7018      	strb	r0, [r3, #0]
			dev->state->initialized = true;
10004a06:	68ea      	ldr	r2, [r5, #12]
10004a08:	7853      	ldrb	r3, [r2, #1]
10004a0a:	433b      	orrs	r3, r7
10004a0c:	7053      	strb	r3, [r2, #1]
	for (entry = levels[level]; entry < levels[level+1]; entry++) {
10004a0e:	3408      	adds	r4, #8
10004a10:	e7e4      	b.n	100049dc <z_sys_init_run_level+0x10>
10004a12:	46c0      	nop			; (mov r8, r8)
10004a14:	10006600 	.word	0x10006600

10004a18 <bg_thread_main>:
 * This routine completes kernel initialization by invoking the remaining
 * init functions, then invokes application's main() routine.
 */
__boot_func
static void bg_thread_main(void *unused1, void *unused2, void *unused3)
{
10004a18:	b510      	push	{r4, lr}
	 * may perform memory management tasks (except for z_phys_map() which
	 * is allowed at any time)
	 */
	z_mem_manage_init();
#endif /* CONFIG_MMU */
	z_sys_post_kernel = true;
10004a1a:	2401      	movs	r4, #1
10004a1c:	4b09      	ldr	r3, [pc, #36]	; (10004a44 <bg_thread_main+0x2c>)

	z_sys_init_run_level(INIT_LEVEL_POST_KERNEL);
10004a1e:	2003      	movs	r0, #3
	z_sys_post_kernel = true;
10004a20:	701c      	strb	r4, [r3, #0]
	z_sys_init_run_level(INIT_LEVEL_POST_KERNEL);
10004a22:	f7ff ffd3 	bl	100049cc <z_sys_init_run_level>
#if CONFIG_STACK_POINTER_RANDOM
	z_stack_adjust_initialized = 1;
#endif
	boot_banner();
10004a26:	f000 fe5d 	bl	100056e4 <boot_banner>
	void z_cpp_init_static(void);
	z_cpp_init_static();
#endif

	/* Final init level before app starts */
	z_sys_init_run_level(INIT_LEVEL_APPLICATION);
10004a2a:	2004      	movs	r0, #4
10004a2c:	f7ff ffce 	bl	100049cc <z_sys_init_run_level>

	z_init_static_threads();
10004a30:	f000 f8d0 	bl	10004bd4 <z_init_static_threads>
	extern int main(void);
#else
	extern void main(void);
#endif

	(void)main();
10004a34:	f7fd fc68 	bl	10002308 <main>

	/* Mark nonessential since main() has no more work to do */
	z_main_thread.base.user_options &= ~K_ESSENTIAL;
10004a38:	4a03      	ldr	r2, [pc, #12]	; (10004a48 <bg_thread_main+0x30>)
10004a3a:	7b13      	ldrb	r3, [r2, #12]
10004a3c:	43a3      	bics	r3, r4
10004a3e:	7313      	strb	r3, [r2, #12]

#ifdef CONFIG_COVERAGE_DUMP
	/* Dump coverage data once the main() has exited. */
	gcov_coverage_dump();
#endif
} /* LCOV_EXCL_LINE ... because we just dumped final coverage data */
10004a40:	bd10      	pop	{r4, pc}
10004a42:	46c0      	nop			; (mov r8, r8)
10004a44:	2000029b 	.word	0x2000029b
10004a48:	20000158 	.word	0x20000158

10004a4c <z_bss_zero>:
{
10004a4c:	b510      	push	{r4, lr}
	z_early_memset(__bss_start, 0, __bss_end - __bss_start);
10004a4e:	4a03      	ldr	r2, [pc, #12]	; (10004a5c <z_bss_zero+0x10>)
10004a50:	4803      	ldr	r0, [pc, #12]	; (10004a60 <z_bss_zero+0x14>)
10004a52:	2100      	movs	r1, #0
10004a54:	1a12      	subs	r2, r2, r0
10004a56:	f001 fad5 	bl	10006004 <z_early_memset>
}
10004a5a:	bd10      	pop	{r4, pc}
10004a5c:	200002a0 	.word	0x200002a0
10004a60:	200000e8 	.word	0x200000e8

10004a64 <z_init_cpu>:
	thread->base.is_idle = 1U;
#endif
}

void z_init_cpu(int id)
{
10004a64:	b570      	push	{r4, r5, r6, lr}
	struct k_thread *thread = &z_idle_threads[i];
10004a66:	2670      	movs	r6, #112	; 0x70
	z_setup_new_thread(thread, stack,
10004a68:	2501      	movs	r5, #1
{
10004a6a:	0004      	movs	r4, r0
	struct k_thread *thread = &z_idle_threads[i];
10004a6c:	4346      	muls	r6, r0
	k_thread_stack_t *stack = z_idle_stacks[i];
10004a6e:	0201      	lsls	r1, r0, #8
10004a70:	4811      	ldr	r0, [pc, #68]	; (10004ab8 <z_init_cpu+0x54>)
	z_setup_new_thread(thread, stack,
10004a72:	2280      	movs	r2, #128	; 0x80
	k_thread_stack_t *stack = z_idle_stacks[i];
10004a74:	1809      	adds	r1, r1, r0
	z_setup_new_thread(thread, stack,
10004a76:	2000      	movs	r0, #0
{
10004a78:	b086      	sub	sp, #24
	z_setup_new_thread(thread, stack,
10004a7a:	9504      	str	r5, [sp, #16]
10004a7c:	350e      	adds	r5, #14
10004a7e:	9503      	str	r5, [sp, #12]
			  CONFIG_IDLE_STACK_SIZE, idle, &_kernel.cpus[i],
10004a80:	3505      	adds	r5, #5
10004a82:	4365      	muls	r5, r4
	struct k_thread *thread = &z_idle_threads[i];
10004a84:	4b0d      	ldr	r3, [pc, #52]	; (10004abc <z_init_cpu+0x58>)
	z_setup_new_thread(thread, stack,
10004a86:	9005      	str	r0, [sp, #20]
10004a88:	9002      	str	r0, [sp, #8]
10004a8a:	9001      	str	r0, [sp, #4]
			  CONFIG_IDLE_STACK_SIZE, idle, &_kernel.cpus[i],
10004a8c:	480c      	ldr	r0, [pc, #48]	; (10004ac0 <z_init_cpu+0x5c>)
	struct k_thread *thread = &z_idle_threads[i];
10004a8e:	18f6      	adds	r6, r6, r3
			  CONFIG_IDLE_STACK_SIZE, idle, &_kernel.cpus[i],
10004a90:	182d      	adds	r5, r5, r0
	z_setup_new_thread(thread, stack,
10004a92:	4b0c      	ldr	r3, [pc, #48]	; (10004ac4 <z_init_cpu+0x60>)
10004a94:	0030      	movs	r0, r6
10004a96:	9500      	str	r5, [sp, #0]
10004a98:	0052      	lsls	r2, r2, #1
10004a9a:	f000 f871 	bl	10004b80 <z_setup_new_thread>
	SYS_PORT_TRACING_FUNC(k_thread, sched_resume, thread);
}

static inline void z_mark_thread_as_started(struct k_thread *thread)
{
	thread->base.thread_state &= ~_THREAD_PRESTART;
10004a9e:	2204      	movs	r2, #4
10004aa0:	7b73      	ldrb	r3, [r6, #13]
	init_idle_thread(id);
	_kernel.cpus[id].idle_thread = &z_idle_threads[id];
	_kernel.cpus[id].id = id;
10004aa2:	742c      	strb	r4, [r5, #16]
10004aa4:	4393      	bics	r3, r2
10004aa6:	7373      	strb	r3, [r6, #13]
	_kernel.cpus[id].irq_stack =
		(Z_KERNEL_STACK_BUFFER(z_interrupt_stacks[id]) +
10004aa8:	3401      	adds	r4, #1
10004aaa:	4b07      	ldr	r3, [pc, #28]	; (10004ac8 <z_init_cpu+0x64>)
10004aac:	02e4      	lsls	r4, r4, #11
10004aae:	18e4      	adds	r4, r4, r3
	_kernel.cpus[id].idle_thread = &z_idle_threads[id];
10004ab0:	60ee      	str	r6, [r5, #12]
	_kernel.cpus[id].irq_stack =
10004ab2:	606c      	str	r4, [r5, #4]
		 K_KERNEL_STACK_SIZEOF(z_interrupt_stacks[id]));
#ifdef CONFIG_SCHED_THREAD_USAGE_ALL
	_kernel.cpus[id].usage.track_usage =
		CONFIG_SCHED_THREAD_USAGE_AUTO_ENABLE;
#endif
}
10004ab4:	b006      	add	sp, #24
10004ab6:	bd70      	pop	{r4, r5, r6, pc}
10004ab8:	20000aa0 	.word	0x20000aa0
10004abc:	200000e8 	.word	0x200000e8
10004ac0:	20000264 	.word	0x20000264
10004ac4:	10006019 	.word	0x10006019
10004ac8:	200002a0 	.word	0x200002a0

10004acc <z_cstart>:
 * @return Does not return
 */
__boot_func
FUNC_NO_STACK_PROTECTOR
FUNC_NORETURN void z_cstart(void)
{
10004acc:	b5f0      	push	{r4, r5, r6, r7, lr}
	/* gcov hook needed to get the coverage report.*/
	gcov_static_init();

	/* initialize early init calls */
	z_sys_init_run_level(INIT_LEVEL_EARLY);
10004ace:	2000      	movs	r0, #0
{
10004ad0:	b0a3      	sub	sp, #140	; 0x8c
	z_sys_init_run_level(INIT_LEVEL_EARLY);
10004ad2:	f7ff ff7b 	bl	100049cc <z_sys_init_run_level>
 * pointer) register, and switched to automatically when taking an exception.
 *
 */
static ALWAYS_INLINE void z_arm_interrupt_stack_setup(void)
{
	uint32_t msp =
10004ad6:	4b22      	ldr	r3, [pc, #136]	; (10004b60 <z_cstart+0x94>)
  \details Assigns the given value to the Main Stack Pointer (MSP).
  \param [in]    topOfMainStack  Main Stack Pointer value to set
 */
__STATIC_FORCEINLINE void __set_MSP(uint32_t topOfMainStack)
{
  __ASM volatile ("MSR msp, %0" : : "r" (topOfMainStack) : );
10004ad8:	f383 8808 	msr	MSP, r3
10004adc:	4921      	ldr	r1, [pc, #132]	; (10004b64 <z_cstart+0x98>)
10004ade:	4b22      	ldr	r3, [pc, #136]	; (10004b68 <z_cstart+0x9c>)
10004ae0:	6a0a      	ldr	r2, [r1, #32]
	dummy_thread->mem_domain_info.mem_domain = &k_mem_domain_default;
#endif
#if (CONFIG_HEAP_MEM_POOL_SIZE > 0)
	k_thread_system_pool_assign(dummy_thread);
#else
	dummy_thread->resource_pool = NULL;
10004ae2:	2500      	movs	r5, #0
10004ae4:	401a      	ands	r2, r3
10004ae6:	23e0      	movs	r3, #224	; 0xe0
10004ae8:	041b      	lsls	r3, r3, #16
10004aea:	4313      	orrs	r3, r2
10004aec:	620b      	str	r3, [r1, #32]

static ALWAYS_INLINE void arch_kernel_init(void)
{
	z_arm_interrupt_stack_setup();
	z_arm_exc_setup();
	z_arm_fault_init();
10004aee:	f000 ff5b 	bl	100059a8 <z_arm_fault_init>
	z_arm_cpu_idle_init();
10004af2:	f7fe fdad 	bl	10003650 <z_arm_cpu_idle_init>

	/* perform any architecture-specific initialization */
	arch_kernel_init();

	LOG_CORE_INIT();
10004af6:	f7fe faef 	bl	100030d8 <log_core_init>
	dummy_thread->base.user_options = K_ESSENTIAL;
10004afa:	2202      	movs	r2, #2

#ifdef CONFIG_TIMESLICE_PER_THREAD
	dummy_thread->base.slice_ticks = 0;
#endif

	_current_cpu->current = dummy_thread;
10004afc:	4e1b      	ldr	r6, [pc, #108]	; (10004b6c <z_cstart+0xa0>)
	dummy_thread->base.user_options = K_ESSENTIAL;
10004afe:	ab06      	add	r3, sp, #24
10004b00:	32ff      	adds	r2, #255	; 0xff
10004b02:	819a      	strh	r2, [r3, #12]
	_current_cpu->current = dummy_thread;
10004b04:	60b3      	str	r3, [r6, #8]
	dummy_thread->resource_pool = NULL;
10004b06:	951f      	str	r5, [sp, #124]	; 0x7c
	struct k_thread dummy_thread;

	z_dummy_thread_init(&dummy_thread);
#endif
	/* do any necessary initialization of static devices */
	z_device_state_init();
10004b08:	f001 fa5b 	bl	10005fc2 <z_device_state_init>

	/* perform basic hardware initialization */
	z_sys_init_run_level(INIT_LEVEL_PRE_KERNEL_1);
10004b0c:	2001      	movs	r0, #1
10004b0e:	f7ff ff5d 	bl	100049cc <z_sys_init_run_level>
	z_sys_init_run_level(INIT_LEVEL_PRE_KERNEL_2);
10004b12:	2002      	movs	r0, #2
10004b14:	f7ff ff5a 	bl	100049cc <z_sys_init_run_level>
	z_sched_init();
10004b18:	f000 fae2 	bl	100050e0 <z_sched_init>
	_kernel.ready_q.cache = &z_main_thread;
10004b1c:	4c14      	ldr	r4, [pc, #80]	; (10004b70 <z_cstart+0xa4>)
	stack_ptr = z_setup_new_thread(&z_main_thread, z_main_stack,
10004b1e:	4b15      	ldr	r3, [pc, #84]	; (10004b74 <z_cstart+0xa8>)
	_kernel.ready_q.cache = &z_main_thread;
10004b20:	6174      	str	r4, [r6, #20]
	stack_ptr = z_setup_new_thread(&z_main_thread, z_main_stack,
10004b22:	2280      	movs	r2, #128	; 0x80
10004b24:	9305      	str	r3, [sp, #20]
10004b26:	2301      	movs	r3, #1
10004b28:	4e13      	ldr	r6, [pc, #76]	; (10004b78 <z_cstart+0xac>)
10004b2a:	4914      	ldr	r1, [pc, #80]	; (10004b7c <z_cstart+0xb0>)
10004b2c:	9304      	str	r3, [sp, #16]
10004b2e:	00d2      	lsls	r2, r2, #3
10004b30:	0033      	movs	r3, r6
10004b32:	0020      	movs	r0, r4
10004b34:	9503      	str	r5, [sp, #12]
10004b36:	9502      	str	r5, [sp, #8]
10004b38:	9501      	str	r5, [sp, #4]
10004b3a:	9500      	str	r5, [sp, #0]
10004b3c:	f000 f820 	bl	10004b80 <z_setup_new_thread>
10004b40:	2204      	movs	r2, #4
10004b42:	0007      	movs	r7, r0
10004b44:	7b63      	ldrb	r3, [r4, #13]
	z_ready_thread(&z_main_thread);
10004b46:	0020      	movs	r0, r4
10004b48:	4393      	bics	r3, r2
10004b4a:	7363      	strb	r3, [r4, #13]
10004b4c:	f001 faa7 	bl	1000609e <z_ready_thread>
	z_init_cpu(0);
10004b50:	0028      	movs	r0, r5
10004b52:	f7ff ff87 	bl	10004a64 <z_init_cpu>
	arch_switch_to_main_thread(&z_main_thread, stack_ptr, bg_thread_main);
10004b56:	0032      	movs	r2, r6
10004b58:	0039      	movs	r1, r7
10004b5a:	0020      	movs	r0, r4
10004b5c:	f7fe fe94 	bl	10003888 <arch_switch_to_main_thread>
	CODE_UNREACHABLE; /* LCOV_EXCL_LINE */
10004b60:	20000aa0 	.word	0x20000aa0
10004b64:	e000ed00 	.word	0xe000ed00
10004b68:	ff00ffff 	.word	0xff00ffff
10004b6c:	20000264 	.word	0x20000264
10004b70:	20000158 	.word	0x20000158
10004b74:	10006bed 	.word	0x10006bed
10004b78:	10004a19 	.word	0x10004a19
10004b7c:	20000ba0 	.word	0x20000ba0

10004b80 <z_setup_new_thread>:
char *z_setup_new_thread(struct k_thread *new_thread,
			 k_thread_stack_t *stack, size_t stack_size,
			 k_thread_entry_t entry,
			 void *p1, void *p2, void *p3,
			 int prio, uint32_t options, const char *name)
{
10004b80:	b57f      	push	{r0, r1, r2, r3, r4, r5, r6, lr}
10004b82:	0004      	movs	r4, r0
	SYS_DLIST_FOR_EACH_CONTAINER(&((wq)->waitq), thread_ptr, \
				     base.qnode_dlist)

static inline void z_waitq_init(_wait_q_t *w)
{
	sys_dlist_init(&w->waitq);
10004b84:	3058      	adds	r0, #88	; 0x58
 * @param list the doubly-linked list
 */

static inline void sys_dlist_init(sys_dlist_t *list)
{
	list->head = (sys_dnode_t *)list;
10004b86:	65a0      	str	r0, [r4, #88]	; 0x58
	list->tail = (sys_dnode_t *)list;
10004b88:	65e0      	str	r0, [r4, #92]	; 0x5c
void z_init_thread_base(struct _thread_base *thread_base, int priority,
		       uint32_t initial_state, unsigned int options)
{
	/* k_q_node is initialized upon first insertion in a list */
	thread_base->pended_on = NULL;
	thread_base->user_options = (uint8_t)options;
10004b8a:	980c      	ldr	r0, [sp, #48]	; 0x30
	thread_base->pended_on = NULL;
10004b8c:	2600      	movs	r6, #0
	thread_base->user_options = (uint8_t)options;
10004b8e:	7320      	strb	r0, [r4, #12]
	thread_base->thread_state = (uint8_t)initial_state;
10004b90:	2004      	movs	r0, #4
10004b92:	7360      	strb	r0, [r4, #13]

	thread_base->prio = priority;
10004b94:	980b      	ldr	r0, [sp, #44]	; 0x2c
		stack_obj_size = Z_KERNEL_STACK_SIZE_ADJUST(stack_size);
10004b96:	3207      	adds	r2, #7
	thread_base->prio = priority;
10004b98:	73a0      	strb	r0, [r4, #14]
		stack_obj_size = Z_KERNEL_STACK_SIZE_ADJUST(stack_size);
10004b9a:	2007      	movs	r0, #7
10004b9c:	4382      	bics	r2, r0
	stack_ptr = (char *)stack + stack_obj_size;
10004b9e:	188d      	adds	r5, r1, r2
	arch_new_thread(new_thread, stack, stack_ptr, entry, p1, p2, p3);
10004ba0:	9a0a      	ldr	r2, [sp, #40]	; 0x28
	thread_base->pended_on = NULL;
10004ba2:	60a6      	str	r6, [r4, #8]

	thread_base->sched_locked = 0U;
10004ba4:	73e6      	strb	r6, [r4, #15]
 * @param node the node
 */

static inline void sys_dnode_init(sys_dnode_t *node)
{
	node->next = NULL;
10004ba6:	61a6      	str	r6, [r4, #24]
	node->prev = NULL;
10004ba8:	61e6      	str	r6, [r4, #28]
	arch_new_thread(new_thread, stack, stack_ptr, entry, p1, p2, p3);
10004baa:	9202      	str	r2, [sp, #8]
10004bac:	9a09      	ldr	r2, [sp, #36]	; 0x24
10004bae:	0020      	movs	r0, r4
10004bb0:	9201      	str	r2, [sp, #4]
10004bb2:	9a08      	ldr	r2, [sp, #32]
10004bb4:	9200      	str	r2, [sp, #0]
10004bb6:	002a      	movs	r2, r5
10004bb8:	f7fe fe50 	bl	1000385c <arch_new_thread>
	if (!_current) {
10004bbc:	4b04      	ldr	r3, [pc, #16]	; (10004bd0 <z_setup_new_thread+0x50>)
	new_thread->init_data = NULL;
10004bbe:	6566      	str	r6, [r4, #84]	; 0x54
	if (!_current) {
10004bc0:	689b      	ldr	r3, [r3, #8]
10004bc2:	42b3      	cmp	r3, r6
10004bc4:	d000      	beq.n	10004bc8 <z_setup_new_thread+0x48>
	new_thread->resource_pool = _current->resource_pool;
10004bc6:	6e5b      	ldr	r3, [r3, #100]	; 0x64
}
10004bc8:	0028      	movs	r0, r5
10004bca:	6663      	str	r3, [r4, #100]	; 0x64
10004bcc:	b004      	add	sp, #16
10004bce:	bd70      	pop	{r4, r5, r6, pc}
10004bd0:	20000264 	.word	0x20000264

10004bd4 <z_init_static_threads>:
{
10004bd4:	b570      	push	{r4, r5, r6, lr}
	_FOREACH_STATIC_THREAD(thread_data) {
10004bd6:	4c20      	ldr	r4, [pc, #128]	; (10004c58 <z_init_static_threads+0x84>)
{
10004bd8:	b086      	sub	sp, #24
10004bda:	0026      	movs	r6, r4
	_FOREACH_STATIC_THREAD(thread_data) {
10004bdc:	4d1f      	ldr	r5, [pc, #124]	; (10004c5c <z_init_static_threads+0x88>)
10004bde:	42ac      	cmp	r4, r5
10004be0:	d308      	bcc.n	10004bf4 <z_init_static_threads+0x20>
	k_sched_lock();
10004be2:	f000 fa57 	bl	10005094 <k_sched_lock>
	_FOREACH_STATIC_THREAD(thread_data) {
10004be6:	0034      	movs	r4, r6
10004be8:	42ac      	cmp	r4, r5
10004bea:	d319      	bcc.n	10004c20 <z_init_static_threads+0x4c>
	k_sched_unlock();
10004bec:	f000 fa62 	bl	100050b4 <k_sched_unlock>
}
10004bf0:	b006      	add	sp, #24
10004bf2:	bd70      	pop	{r4, r5, r6, pc}
		z_setup_new_thread(
10004bf4:	6aa3      	ldr	r3, [r4, #40]	; 0x28
10004bf6:	9305      	str	r3, [sp, #20]
10004bf8:	6a23      	ldr	r3, [r4, #32]
10004bfa:	9304      	str	r3, [sp, #16]
10004bfc:	69e3      	ldr	r3, [r4, #28]
10004bfe:	9303      	str	r3, [sp, #12]
10004c00:	69a3      	ldr	r3, [r4, #24]
10004c02:	9302      	str	r3, [sp, #8]
10004c04:	6963      	ldr	r3, [r4, #20]
10004c06:	9301      	str	r3, [sp, #4]
10004c08:	6923      	ldr	r3, [r4, #16]
10004c0a:	9300      	str	r3, [sp, #0]
10004c0c:	68e3      	ldr	r3, [r4, #12]
10004c0e:	68a2      	ldr	r2, [r4, #8]
10004c10:	6861      	ldr	r1, [r4, #4]
10004c12:	6820      	ldr	r0, [r4, #0]
10004c14:	f7ff ffb4 	bl	10004b80 <z_setup_new_thread>
		thread_data->init_thread->init_data = thread_data;
10004c18:	6823      	ldr	r3, [r4, #0]
10004c1a:	655c      	str	r4, [r3, #84]	; 0x54
	_FOREACH_STATIC_THREAD(thread_data) {
10004c1c:	342c      	adds	r4, #44	; 0x2c
10004c1e:	e7dd      	b.n	10004bdc <z_init_static_threads+0x8>
		if (thread_data->init_delay != K_TICKS_FOREVER) {
10004c20:	6a63      	ldr	r3, [r4, #36]	; 0x24
10004c22:	1c5a      	adds	r2, r3, #1
10004c24:	d00f      	beq.n	10004c46 <z_init_static_threads+0x72>
					    K_MSEC(thread_data->init_delay));
10004c26:	43d8      	mvns	r0, r3
10004c28:	17c0      	asrs	r0, r0, #31
10004c2a:	4018      	ands	r0, r3
		}
	} else if (mul_ratio) {
		if (result32) {
			return ((uint32_t)t) * (to_hz / from_hz);
		} else {
			return t * ((uint64_t)to_hz / from_hz);
10004c2c:	220a      	movs	r2, #10
10004c2e:	2300      	movs	r3, #0
10004c30:	17c1      	asrs	r1, r0, #31
10004c32:	f7fd fa89 	bl	10002148 <__aeabi_lmul>
			schedule_new_thread(thread_data->init_thread,
10004c36:	6826      	ldr	r6, [r4, #0]
10004c38:	000b      	movs	r3, r1
10004c3a:	0002      	movs	r2, r0
	if (K_TIMEOUT_EQ(delay, K_NO_WAIT)) {
10004c3c:	4301      	orrs	r1, r0
10004c3e:	d104      	bne.n	10004c4a <z_init_static_threads+0x76>
	z_sched_start(thread);
10004c40:	0030      	movs	r0, r6
10004c42:	f000 f9e1 	bl	10005008 <z_sched_start>
	_FOREACH_STATIC_THREAD(thread_data) {
10004c46:	342c      	adds	r4, #44	; 0x2c
10004c48:	e7ce      	b.n	10004be8 <z_init_static_threads+0x14>

extern void z_thread_timeout(struct _timeout *timeout);

static inline void z_add_thread_timeout(struct k_thread *thread, k_timeout_t ticks)
{
	z_add_timeout(&thread->base.timeout, z_thread_timeout, ticks);
10004c4a:	0030      	movs	r0, r6
10004c4c:	4904      	ldr	r1, [pc, #16]	; (10004c60 <z_init_static_threads+0x8c>)
10004c4e:	3018      	adds	r0, #24
10004c50:	f000 fbb4 	bl	100053bc <z_add_timeout>
10004c54:	e7f7      	b.n	10004c46 <z_init_static_threads+0x72>
10004c56:	46c0      	nop			; (mov r8, r8)
10004c58:	100063f0 	.word	0x100063f0
10004c5c:	100063f0 	.word	0x100063f0
10004c60:	10006113 	.word	0x10006113

10004c64 <z_impl_k_sem_give>:
	ARG_UNUSED(sem);
#endif
}

void z_impl_k_sem_give(struct k_sem *sem)
{
10004c64:	b570      	push	{r4, r5, r6, lr}
10004c66:	0004      	movs	r4, r0
	__asm__ volatile("mrs %0, PRIMASK;"
10004c68:	f3ef 8510 	mrs	r5, PRIMASK
10004c6c:	b672      	cpsid	i
	k_spinlock_key_t key = k_spin_lock(&lock);
	struct k_thread *thread;

	SYS_PORT_TRACING_OBJ_FUNC_ENTER(k_sem, give, sem);

	thread = z_unpend_first_thread(&sem->wait_q);
10004c6e:	f001 fa6b 	bl	10006148 <z_unpend_first_thread>

	if (thread != NULL) {
10004c72:	2800      	cmp	r0, #0
10004c74:	d008      	beq.n	10004c88 <z_impl_k_sem_give+0x24>
}

static ALWAYS_INLINE void
arch_thread_return_value_set(struct k_thread *thread, unsigned int value)
{
	thread->arch.swap_return_value = value;
10004c76:	2300      	movs	r3, #0
10004c78:	66c3      	str	r3, [r0, #108]	; 0x6c
		arch_thread_return_value_set(thread, 0);
		z_ready_thread(thread);
10004c7a:	f001 fa10 	bl	1000609e <z_ready_thread>
	} else {
		sem->count += (sem->count != sem->limit) ? 1U : 0U;
		handle_poll_events(sem);
	}

	z_reschedule(&lock, key);
10004c7e:	0029      	movs	r1, r5
10004c80:	4805      	ldr	r0, [pc, #20]	; (10004c98 <z_impl_k_sem_give+0x34>)
10004c82:	f000 f9ab 	bl	10004fdc <z_reschedule>

	SYS_PORT_TRACING_OBJ_FUNC_EXIT(k_sem, give, sem);
}
10004c86:	bd70      	pop	{r4, r5, r6, pc}
		sem->count += (sem->count != sem->limit) ? 1U : 0U;
10004c88:	68a2      	ldr	r2, [r4, #8]
10004c8a:	68e3      	ldr	r3, [r4, #12]
10004c8c:	1a9b      	subs	r3, r3, r2
10004c8e:	1e59      	subs	r1, r3, #1
10004c90:	418b      	sbcs	r3, r1
10004c92:	189b      	adds	r3, r3, r2
10004c94:	60a3      	str	r3, [r4, #8]
}
10004c96:	e7f2      	b.n	10004c7e <z_impl_k_sem_give+0x1a>
10004c98:	2000029c 	.word	0x2000029c

10004c9c <z_impl_k_sem_take>:
}
#include <syscalls/k_sem_give_mrsh.c>
#endif

int z_impl_k_sem_take(struct k_sem *sem, k_timeout_t timeout)
{
10004c9c:	b513      	push	{r0, r1, r4, lr}
10004c9e:	0004      	movs	r4, r0
10004ca0:	f3ef 8110 	mrs	r1, PRIMASK
10004ca4:	b672      	cpsid	i

	k_spinlock_key_t key = k_spin_lock(&lock);

	SYS_PORT_TRACING_OBJ_FUNC_ENTER(k_sem, take, sem, timeout);

	if (likely(sem->count > 0U)) {
10004ca6:	6880      	ldr	r0, [r0, #8]
10004ca8:	2800      	cmp	r0, #0
10004caa:	d008      	beq.n	10004cbe <z_impl_k_sem_take+0x22>
		sem->count--;
10004cac:	3801      	subs	r0, #1
10004cae:	60a0      	str	r0, [r4, #8]
	if (key != 0U) {
10004cb0:	2900      	cmp	r1, #0
10004cb2:	d102      	bne.n	10004cba <z_impl_k_sem_take+0x1e>
	__asm__ volatile(
10004cb4:	b662      	cpsie	i
10004cb6:	f3bf 8f6f 	isb	sy
		k_spin_unlock(&lock, key);
		ret = 0;
10004cba:	2000      	movs	r0, #0

out:
	SYS_PORT_TRACING_OBJ_FUNC_EXIT(k_sem, take, sem, timeout, ret);

	return ret;
}
10004cbc:	bd16      	pop	{r1, r2, r4, pc}
	if (K_TIMEOUT_EQ(timeout, K_NO_WAIT)) {
10004cbe:	0010      	movs	r0, r2
10004cc0:	4318      	orrs	r0, r3
10004cc2:	d107      	bne.n	10004cd4 <z_impl_k_sem_take+0x38>
	if (key != 0U) {
10004cc4:	2900      	cmp	r1, #0
10004cc6:	d102      	bne.n	10004cce <z_impl_k_sem_take+0x32>
	__asm__ volatile(
10004cc8:	b662      	cpsie	i
10004cca:	f3bf 8f6f 	isb	sy
		ret = -EBUSY;
10004cce:	2010      	movs	r0, #16
10004cd0:	4240      	negs	r0, r0
10004cd2:	e7f3      	b.n	10004cbc <z_impl_k_sem_take+0x20>
	ret = z_pend_curr(&lock, key, &sem->wait_q, timeout);
10004cd4:	9200      	str	r2, [sp, #0]
10004cd6:	9301      	str	r3, [sp, #4]
10004cd8:	0022      	movs	r2, r4
10004cda:	4802      	ldr	r0, [pc, #8]	; (10004ce4 <z_impl_k_sem_take+0x48>)
10004cdc:	f000 f966 	bl	10004fac <z_pend_curr>
	return ret;
10004ce0:	e7ec      	b.n	10004cbc <z_impl_k_sem_take+0x20>
10004ce2:	46c0      	nop			; (mov r8, r8)
10004ce4:	2000029c 	.word	0x2000029c

10004ce8 <sliceable>:
{
	bool ret = is_preempt(thread)
		&& slice_time(thread) != 0
		&& !z_is_prio_higher(thread->base.prio, slice_max_prio)
		&& !z_is_thread_prevented_from_running(thread)
		&& !z_is_idle_thread_object(thread);
10004ce8:	89c2      	ldrh	r2, [r0, #14]
{
10004cea:	0003      	movs	r3, r0
		&& !z_is_idle_thread_object(thread);
10004cec:	2000      	movs	r0, #0
10004cee:	2a7f      	cmp	r2, #127	; 0x7f
10004cf0:	d811      	bhi.n	10004d16 <sliceable+0x2e>
	int ret = slice_ticks;
10004cf2:	4a0a      	ldr	r2, [pc, #40]	; (10004d1c <sliceable+0x34>)
10004cf4:	6810      	ldr	r0, [r2, #0]
		&& slice_time(thread) != 0
10004cf6:	2800      	cmp	r0, #0
10004cf8:	d00d      	beq.n	10004d16 <sliceable+0x2e>
		&& !z_is_prio_higher(thread->base.prio, slice_max_prio)
10004cfa:	210e      	movs	r1, #14
10004cfc:	4a08      	ldr	r2, [pc, #32]	; (10004d20 <sliceable+0x38>)
10004cfe:	5659      	ldrsb	r1, [r3, r1]
10004d00:	6812      	ldr	r2, [r2, #0]
		&& !z_is_idle_thread_object(thread);
10004d02:	2000      	movs	r0, #0
		&& !z_is_prio_higher(thread->base.prio, slice_max_prio)
10004d04:	4291      	cmp	r1, r2
10004d06:	db06      	blt.n	10004d16 <sliceable+0x2e>
		&& !z_is_thread_prevented_from_running(thread)
10004d08:	7b5a      	ldrb	r2, [r3, #13]
10004d0a:	06d2      	lsls	r2, r2, #27
10004d0c:	d103      	bne.n	10004d16 <sliceable+0x2e>
		&& !z_is_idle_thread_object(thread);
10004d0e:	4805      	ldr	r0, [pc, #20]	; (10004d24 <sliceable+0x3c>)
10004d10:	1a18      	subs	r0, r3, r0
10004d12:	1e43      	subs	r3, r0, #1
10004d14:	4198      	sbcs	r0, r3

#ifdef CONFIG_TIMESLICE_PER_THREAD
	ret |= thread->base.slice_ticks != 0;
#endif

	return ret;
10004d16:	2301      	movs	r3, #1
10004d18:	4018      	ands	r0, r3
}
10004d1a:	4770      	bx	lr
10004d1c:	2000028c 	.word	0x2000028c
10004d20:	20000288 	.word	0x20000288
10004d24:	200000e8 	.word	0x200000e8

10004d28 <slice_timeout>:

static void slice_timeout(struct _timeout *t)
{
	int cpu = ARRAY_INDEX(slice_timeouts, t);

	slice_expired[cpu] = true;
10004d28:	2101      	movs	r1, #1
	int cpu = ARRAY_INDEX(slice_timeouts, t);
10004d2a:	4b04      	ldr	r3, [pc, #16]	; (10004d3c <slice_timeout+0x14>)
	slice_expired[cpu] = true;
10004d2c:	4a04      	ldr	r2, [pc, #16]	; (10004d40 <slice_timeout+0x18>)
	int cpu = ARRAY_INDEX(slice_timeouts, t);
10004d2e:	1ac0      	subs	r0, r0, r3
10004d30:	4b04      	ldr	r3, [pc, #16]	; (10004d44 <slice_timeout+0x1c>)
10004d32:	10c0      	asrs	r0, r0, #3
10004d34:	4343      	muls	r3, r0
	slice_expired[cpu] = true;
10004d36:	54d1      	strb	r1, [r2, r3]
	 * the specific core, but that's not part of the API yet.
	 */
	if (IS_ENABLED(CONFIG_SMP) && cpu != _current_cpu->id) {
		flag_ipi();
	}
}
10004d38:	4770      	bx	lr
10004d3a:	46c0      	nop			; (mov r8, r8)
10004d3c:	200001c8 	.word	0x200001c8
10004d40:	2000029c 	.word	0x2000029c
10004d44:	aaaaaaab 	.word	0xaaaaaaab

10004d48 <z_reset_time_slice>:

void z_reset_time_slice(struct k_thread *curr)
{
10004d48:	b570      	push	{r4, r5, r6, lr}
	int cpu = _current_cpu->id;

	z_abort_timeout(&slice_timeouts[cpu]);
10004d4a:	2418      	movs	r4, #24
	int cpu = _current_cpu->id;
10004d4c:	4b0c      	ldr	r3, [pc, #48]	; (10004d80 <z_reset_time_slice+0x38>)
{
10004d4e:	0005      	movs	r5, r0
	int cpu = _current_cpu->id;
10004d50:	7c1e      	ldrb	r6, [r3, #16]
	z_abort_timeout(&slice_timeouts[cpu]);
10004d52:	4b0c      	ldr	r3, [pc, #48]	; (10004d84 <z_reset_time_slice+0x3c>)
10004d54:	4374      	muls	r4, r6
10004d56:	18e4      	adds	r4, r4, r3
10004d58:	0020      	movs	r0, r4
10004d5a:	f001 fa23 	bl	100061a4 <z_abort_timeout>
	slice_expired[cpu] = false;
10004d5e:	2200      	movs	r2, #0
10004d60:	4b09      	ldr	r3, [pc, #36]	; (10004d88 <z_reset_time_slice+0x40>)
	if (sliceable(curr)) {
10004d62:	0028      	movs	r0, r5
	slice_expired[cpu] = false;
10004d64:	559a      	strb	r2, [r3, r6]
	if (sliceable(curr)) {
10004d66:	f7ff ffbf 	bl	10004ce8 <sliceable>
10004d6a:	2800      	cmp	r0, #0
10004d6c:	d007      	beq.n	10004d7e <z_reset_time_slice+0x36>
	int ret = slice_ticks;
10004d6e:	4b07      	ldr	r3, [pc, #28]	; (10004d8c <z_reset_time_slice+0x44>)
		z_add_timeout(&slice_timeouts[cpu], slice_timeout,
10004d70:	0020      	movs	r0, r4
			      K_TICKS(slice_time(curr) - 1));
10004d72:	681a      	ldr	r2, [r3, #0]
		z_add_timeout(&slice_timeouts[cpu], slice_timeout,
10004d74:	4906      	ldr	r1, [pc, #24]	; (10004d90 <z_reset_time_slice+0x48>)
			      K_TICKS(slice_time(curr) - 1));
10004d76:	3a01      	subs	r2, #1
10004d78:	17d3      	asrs	r3, r2, #31
		z_add_timeout(&slice_timeouts[cpu], slice_timeout,
10004d7a:	f000 fb1f 	bl	100053bc <z_add_timeout>
	}
}
10004d7e:	bd70      	pop	{r4, r5, r6, pc}
10004d80:	20000264 	.word	0x20000264
10004d84:	200001c8 	.word	0x200001c8
10004d88:	2000029c 	.word	0x2000029c
10004d8c:	2000028c 	.word	0x2000028c
10004d90:	10004d29 	.word	0x10004d29

10004d94 <update_cache>:
	}
#endif
}

static void update_cache(int preempt_ok)
{
10004d94:	b570      	push	{r4, r5, r6, lr}
 * @return true if empty, false otherwise
 */

static inline bool sys_dlist_is_empty(sys_dlist_t *list)
{
	return list->head == list;
10004d96:	4d0e      	ldr	r5, [pc, #56]	; (10004dd0 <update_cache+0x3c>)
 * @return a pointer to the head element, NULL if list is empty
 */

static inline sys_dnode_t *sys_dlist_peek_head(sys_dlist_t *list)
{
	return sys_dlist_is_empty(list) ? NULL : list->head;
10004d98:	4b0e      	ldr	r3, [pc, #56]	; (10004dd4 <update_cache+0x40>)
	return list->head == list;
10004d9a:	69ac      	ldr	r4, [r5, #24]
	return sys_dlist_is_empty(list) ? NULL : list->head;
10004d9c:	429c      	cmp	r4, r3
10004d9e:	d001      	beq.n	10004da4 <update_cache+0x10>
	return (thread != NULL) ? thread : _current_cpu->idle_thread;
10004da0:	2c00      	cmp	r4, #0
10004da2:	d100      	bne.n	10004da6 <update_cache+0x12>
10004da4:	68ec      	ldr	r4, [r5, #12]
	if (z_is_thread_prevented_from_running(_current)) {
10004da6:	68ab      	ldr	r3, [r5, #8]
	if (preempt_ok != 0) {
10004da8:	2800      	cmp	r0, #0
10004daa:	d108      	bne.n	10004dbe <update_cache+0x2a>
	if (z_is_thread_prevented_from_running(_current)) {
10004dac:	7b5a      	ldrb	r2, [r3, #13]
10004dae:	06d2      	lsls	r2, r2, #27
10004db0:	d105      	bne.n	10004dbe <update_cache+0x2a>
	if (IS_ENABLED(CONFIG_SWAP_NONATOMIC)
10004db2:	69a2      	ldr	r2, [r4, #24]
10004db4:	2a00      	cmp	r2, #0
10004db6:	d102      	bne.n	10004dbe <update_cache+0x2a>
	if (is_preempt(_current) || is_metairq(thread)) {
10004db8:	89da      	ldrh	r2, [r3, #14]
10004dba:	2a7f      	cmp	r2, #127	; 0x7f
10004dbc:	d805      	bhi.n	10004dca <update_cache+0x36>
#ifndef CONFIG_SMP
	struct k_thread *thread = next_up();

	if (should_preempt(thread, preempt_ok)) {
#ifdef CONFIG_TIMESLICING
		if (thread != _current) {
10004dbe:	429c      	cmp	r4, r3
10004dc0:	d002      	beq.n	10004dc8 <update_cache+0x34>
			z_reset_time_slice(thread);
10004dc2:	0020      	movs	r0, r4
10004dc4:	f7ff ffc0 	bl	10004d48 <z_reset_time_slice>
		}
#endif
		update_metairq_preempt(thread);
		_kernel.ready_q.cache = thread;
10004dc8:	0023      	movs	r3, r4
10004dca:	616b      	str	r3, [r5, #20]
	 * thread because if the thread gets preempted for whatever
	 * reason the scheduler will make the same decision anyway.
	 */
	_current_cpu->swap_ok = preempt_ok;
#endif
}
10004dcc:	bd70      	pop	{r4, r5, r6, pc}
10004dce:	46c0      	nop			; (mov r8, r8)
10004dd0:	20000264 	.word	0x20000264
10004dd4:	2000027c 	.word	0x2000027c

10004dd8 <move_thread_to_end_of_prio_q>:
	if (z_is_thread_queued(thread)) {
10004dd8:	220d      	movs	r2, #13
{
10004dda:	b570      	push	{r4, r5, r6, lr}
	if (z_is_thread_queued(thread)) {
10004ddc:	5682      	ldrsb	r2, [r0, r2]
{
10004dde:	0004      	movs	r4, r0
	return (thread->base.thread_state & state) != 0U;
10004de0:	7b43      	ldrb	r3, [r0, #13]
	if (z_is_thread_queued(thread)) {
10004de2:	2a00      	cmp	r2, #0
10004de4:	da04      	bge.n	10004df0 <move_thread_to_end_of_prio_q+0x18>
	thread->base.thread_state &= ~_THREAD_QUEUED;
10004de6:	227f      	movs	r2, #127	; 0x7f
10004de8:	4013      	ands	r3, r2
10004dea:	7343      	strb	r3, [r0, #13]

void z_priq_dumb_remove(sys_dlist_t *pq, struct k_thread *thread)
{
	__ASSERT_NO_MSG(!z_is_idle_thread_object(thread));

	sys_dlist_remove(&thread->base.qnode_dlist);
10004dec:	f001 f91b 	bl	10006026 <sys_dlist_remove>
	thread->base.thread_state |= _THREAD_QUEUED;
10004df0:	2380      	movs	r3, #128	; 0x80
10004df2:	7b62      	ldrb	r2, [r4, #13]
10004df4:	425b      	negs	r3, r3
10004df6:	4313      	orrs	r3, r2
	return list->head == list;
10004df8:	4a13      	ldr	r2, [pc, #76]	; (10004e48 <move_thread_to_end_of_prio_q+0x70>)
10004dfa:	7363      	strb	r3, [r4, #13]
10004dfc:	6993      	ldr	r3, [r2, #24]
	return sys_dlist_is_empty(list) ? NULL : list->head;
10004dfe:	4813      	ldr	r0, [pc, #76]	; (10004e4c <move_thread_to_end_of_prio_q+0x74>)
10004e00:	4283      	cmp	r3, r0
10004e02:	d100      	bne.n	10004e06 <move_thread_to_end_of_prio_q+0x2e>
10004e04:	2300      	movs	r3, #0
 */

static inline sys_dnode_t *sys_dlist_peek_next_no_check(sys_dlist_t *list,
							sys_dnode_t *node)
{
	return (node == list->tail) ? NULL : node->next;
10004e06:	69d1      	ldr	r1, [r2, #28]
	SYS_DLIST_FOR_EACH_CONTAINER(pq, t, base.qnode_dlist) {
10004e08:	2b00      	cmp	r3, #0
10004e0a:	d104      	bne.n	10004e16 <move_thread_to_end_of_prio_q+0x3e>

static inline void sys_dlist_append(sys_dlist_t *list, sys_dnode_t *node)
{
	sys_dnode_t *const tail = list->tail;

	node->next = list;
10004e0c:	6020      	str	r0, [r4, #0]
	node->prev = tail;
10004e0e:	6061      	str	r1, [r4, #4]

	tail->next = node;
10004e10:	600c      	str	r4, [r1, #0]
	list->tail = node;
10004e12:	61d4      	str	r4, [r2, #28]
}
10004e14:	e00c      	b.n	10004e30 <move_thread_to_end_of_prio_q+0x58>
	int32_t b1 = thread_1->base.prio;
10004e16:	250e      	movs	r5, #14
	int32_t b2 = thread_2->base.prio;
10004e18:	260e      	movs	r6, #14
	int32_t b1 = thread_1->base.prio;
10004e1a:	5765      	ldrsb	r5, [r4, r5]
	int32_t b2 = thread_2->base.prio;
10004e1c:	579e      	ldrsb	r6, [r3, r6]
	if (b1 != b2) {
10004e1e:	42b5      	cmp	r5, r6
10004e20:	d00d      	beq.n	10004e3e <move_thread_to_end_of_prio_q+0x66>
		if (z_sched_prio_cmp(thread, t) > 0) {
10004e22:	42ae      	cmp	r6, r5
10004e24:	dd0b      	ble.n	10004e3e <move_thread_to_end_of_prio_q+0x66>
 * @param successor the position before which "node" will be inserted
 * @param node the element to insert
 */
static inline void sys_dlist_insert(sys_dnode_t *successor, sys_dnode_t *node)
{
	sys_dnode_t *const prev = successor->prev;
10004e26:	6859      	ldr	r1, [r3, #4]

	node->prev = prev;
	node->next = successor;
10004e28:	6023      	str	r3, [r4, #0]
	node->prev = prev;
10004e2a:	6061      	str	r1, [r4, #4]
	prev->next = node;
10004e2c:	600c      	str	r4, [r1, #0]
	successor->prev = node;
10004e2e:	605c      	str	r4, [r3, #4]
	update_cache(thread == _current);
10004e30:	6890      	ldr	r0, [r2, #8]
10004e32:	1b00      	subs	r0, r0, r4
10004e34:	4243      	negs	r3, r0
10004e36:	4158      	adcs	r0, r3
10004e38:	f7ff ffac 	bl	10004d94 <update_cache>
}
10004e3c:	bd70      	pop	{r4, r5, r6, pc}
	return (node == list->tail) ? NULL : node->next;
10004e3e:	4299      	cmp	r1, r3
10004e40:	d0e4      	beq.n	10004e0c <move_thread_to_end_of_prio_q+0x34>
10004e42:	681b      	ldr	r3, [r3, #0]
10004e44:	e7e0      	b.n	10004e08 <move_thread_to_end_of_prio_q+0x30>
10004e46:	46c0      	nop			; (mov r8, r8)
10004e48:	20000264 	.word	0x20000264
10004e4c:	2000027c 	.word	0x2000027c

10004e50 <ready_thread>:
	if (!z_is_thread_queued(thread) && z_is_thread_ready(thread)) {
10004e50:	230d      	movs	r3, #13
{
10004e52:	b570      	push	{r4, r5, r6, lr}
	if (!z_is_thread_queued(thread) && z_is_thread_ready(thread)) {
10004e54:	56c3      	ldrsb	r3, [r0, r3]
10004e56:	7b41      	ldrb	r1, [r0, #13]
10004e58:	2b00      	cmp	r3, #0
10004e5a:	db26      	blt.n	10004eaa <ready_thread+0x5a>
	return !((z_is_thread_prevented_from_running(thread)) != 0U ||
10004e5c:	06cb      	lsls	r3, r1, #27
10004e5e:	d124      	bne.n	10004eaa <ready_thread+0x5a>
	return node->next != NULL;
10004e60:	6983      	ldr	r3, [r0, #24]
10004e62:	2b00      	cmp	r3, #0
10004e64:	d121      	bne.n	10004eaa <ready_thread+0x5a>
	thread->base.thread_state |= _THREAD_QUEUED;
10004e66:	2280      	movs	r2, #128	; 0x80
10004e68:	4252      	negs	r2, r2
10004e6a:	430a      	orrs	r2, r1
10004e6c:	7342      	strb	r2, [r0, #13]
	return list->head == list;
10004e6e:	4a11      	ldr	r2, [pc, #68]	; (10004eb4 <ready_thread+0x64>)
	return sys_dlist_is_empty(list) ? NULL : list->head;
10004e70:	4c11      	ldr	r4, [pc, #68]	; (10004eb8 <ready_thread+0x68>)
	return list->head == list;
10004e72:	6991      	ldr	r1, [r2, #24]
	return sys_dlist_is_empty(list) ? NULL : list->head;
10004e74:	42a1      	cmp	r1, r4
10004e76:	d000      	beq.n	10004e7a <ready_thread+0x2a>
10004e78:	000b      	movs	r3, r1
	return (node == list->tail) ? NULL : node->next;
10004e7a:	69d1      	ldr	r1, [r2, #28]
	SYS_DLIST_FOR_EACH_CONTAINER(pq, t, base.qnode_dlist) {
10004e7c:	2b00      	cmp	r3, #0
10004e7e:	d104      	bne.n	10004e8a <ready_thread+0x3a>
	node->next = list;
10004e80:	6004      	str	r4, [r0, #0]
	node->prev = tail;
10004e82:	6041      	str	r1, [r0, #4]
	tail->next = node;
10004e84:	6008      	str	r0, [r1, #0]
	list->tail = node;
10004e86:	61d0      	str	r0, [r2, #28]
}
10004e88:	e00c      	b.n	10004ea4 <ready_thread+0x54>
	int32_t b1 = thread_1->base.prio;
10004e8a:	250e      	movs	r5, #14
	int32_t b2 = thread_2->base.prio;
10004e8c:	260e      	movs	r6, #14
	int32_t b1 = thread_1->base.prio;
10004e8e:	5745      	ldrsb	r5, [r0, r5]
	int32_t b2 = thread_2->base.prio;
10004e90:	579e      	ldrsb	r6, [r3, r6]
	if (b1 != b2) {
10004e92:	42b5      	cmp	r5, r6
10004e94:	d00a      	beq.n	10004eac <ready_thread+0x5c>
		if (z_sched_prio_cmp(thread, t) > 0) {
10004e96:	42ae      	cmp	r6, r5
10004e98:	dd08      	ble.n	10004eac <ready_thread+0x5c>
	sys_dnode_t *const prev = successor->prev;
10004e9a:	685a      	ldr	r2, [r3, #4]
	node->next = successor;
10004e9c:	6003      	str	r3, [r0, #0]
	node->prev = prev;
10004e9e:	6042      	str	r2, [r0, #4]
	prev->next = node;
10004ea0:	6010      	str	r0, [r2, #0]
	successor->prev = node;
10004ea2:	6058      	str	r0, [r3, #4]
		update_cache(0);
10004ea4:	2000      	movs	r0, #0
10004ea6:	f7ff ff75 	bl	10004d94 <update_cache>
}
10004eaa:	bd70      	pop	{r4, r5, r6, pc}
	return (node == list->tail) ? NULL : node->next;
10004eac:	428b      	cmp	r3, r1
10004eae:	d0e7      	beq.n	10004e80 <ready_thread+0x30>
10004eb0:	681b      	ldr	r3, [r3, #0]
10004eb2:	e7e3      	b.n	10004e7c <ready_thread+0x2c>
10004eb4:	20000264 	.word	0x20000264
10004eb8:	2000027c 	.word	0x2000027c

10004ebc <unready_thread>:
	if (z_is_thread_queued(thread)) {
10004ebc:	220d      	movs	r2, #13
{
10004ebe:	b510      	push	{r4, lr}
	if (z_is_thread_queued(thread)) {
10004ec0:	5682      	ldrsb	r2, [r0, r2]
{
10004ec2:	0004      	movs	r4, r0
	return (thread->base.thread_state & state) != 0U;
10004ec4:	7b43      	ldrb	r3, [r0, #13]
	if (z_is_thread_queued(thread)) {
10004ec6:	2a00      	cmp	r2, #0
10004ec8:	da04      	bge.n	10004ed4 <unready_thread+0x18>
	thread->base.thread_state &= ~_THREAD_QUEUED;
10004eca:	227f      	movs	r2, #127	; 0x7f
10004ecc:	4013      	ands	r3, r2
10004ece:	7343      	strb	r3, [r0, #13]
	sys_dlist_remove(&thread->base.qnode_dlist);
10004ed0:	f001 f8a9 	bl	10006026 <sys_dlist_remove>
	update_cache(thread == _current);
10004ed4:	4b03      	ldr	r3, [pc, #12]	; (10004ee4 <unready_thread+0x28>)
10004ed6:	6898      	ldr	r0, [r3, #8]
10004ed8:	1b00      	subs	r0, r0, r4
10004eda:	4243      	negs	r3, r0
10004edc:	4158      	adcs	r0, r3
10004ede:	f7ff ff59 	bl	10004d94 <update_cache>
}
10004ee2:	bd10      	pop	{r4, pc}
10004ee4:	20000264 	.word	0x20000264

10004ee8 <pend_locked>:
{
10004ee8:	b570      	push	{r4, r5, r6, lr}
10004eea:	001d      	movs	r5, r3
10004eec:	0016      	movs	r6, r2
10004eee:	0004      	movs	r4, r0
	add_to_waitq_locked(thread, wait_q);
10004ef0:	f001 f8ac 	bl	1000604c <add_to_waitq_locked>
	add_thread_timeout(thread, timeout);
10004ef4:	002b      	movs	r3, r5
	if (!K_TIMEOUT_EQ(timeout, K_FOREVER)) {
10004ef6:	1c72      	adds	r2, r6, #1
10004ef8:	d101      	bne.n	10004efe <pend_locked+0x16>
10004efa:	3301      	adds	r3, #1
10004efc:	d006      	beq.n	10004f0c <pend_locked+0x24>
10004efe:	0020      	movs	r0, r4
10004f00:	0032      	movs	r2, r6
10004f02:	002b      	movs	r3, r5
10004f04:	4902      	ldr	r1, [pc, #8]	; (10004f10 <pend_locked+0x28>)
10004f06:	3018      	adds	r0, #24
10004f08:	f000 fa58 	bl	100053bc <z_add_timeout>
}
10004f0c:	bd70      	pop	{r4, r5, r6, pc}
10004f0e:	46c0      	nop			; (mov r8, r8)
10004f10:	10006113 	.word	0x10006113

10004f14 <k_sched_time_slice_set>:
{
10004f14:	b510      	push	{r4, lr}
	__asm__ volatile("mrs %0, PRIMASK;"
10004f16:	f3ef 8410 	mrs	r4, PRIMASK
10004f1a:	b672      	cpsid	i
			return ((uint32_t)t) * (to_hz / from_hz);
10004f1c:	230a      	movs	r3, #10
10004f1e:	4343      	muls	r3, r0
		if (IS_ENABLED(CONFIG_TICKLESS_KERNEL) && slice > 0) {
10004f20:	2800      	cmp	r0, #0
10004f22:	dd02      	ble.n	10004f2a <k_sched_time_slice_set+0x16>
			slice_ticks = MAX(2, slice_ticks);
10004f24:	2b02      	cmp	r3, #2
10004f26:	da00      	bge.n	10004f2a <k_sched_time_slice_set+0x16>
10004f28:	2302      	movs	r3, #2
		slice_ticks = k_ms_to_ticks_ceil32(slice);
10004f2a:	4a07      	ldr	r2, [pc, #28]	; (10004f48 <k_sched_time_slice_set+0x34>)
10004f2c:	6013      	str	r3, [r2, #0]
		slice_max_prio = prio;
10004f2e:	4b07      	ldr	r3, [pc, #28]	; (10004f4c <k_sched_time_slice_set+0x38>)
10004f30:	6019      	str	r1, [r3, #0]
		z_reset_time_slice(_current);
10004f32:	4b07      	ldr	r3, [pc, #28]	; (10004f50 <k_sched_time_slice_set+0x3c>)
10004f34:	6898      	ldr	r0, [r3, #8]
10004f36:	f7ff ff07 	bl	10004d48 <z_reset_time_slice>
	if (key != 0U) {
10004f3a:	2c00      	cmp	r4, #0
10004f3c:	d102      	bne.n	10004f44 <k_sched_time_slice_set+0x30>
	__asm__ volatile(
10004f3e:	b662      	cpsie	i
10004f40:	f3bf 8f6f 	isb	sy
}
10004f44:	bd10      	pop	{r4, pc}
10004f46:	46c0      	nop			; (mov r8, r8)
10004f48:	2000028c 	.word	0x2000028c
10004f4c:	20000288 	.word	0x20000288
10004f50:	20000264 	.word	0x20000264

10004f54 <z_time_slice>:
{
10004f54:	b570      	push	{r4, r5, r6, lr}
	__asm__ volatile("mrs %0, PRIMASK;"
10004f56:	f3ef 8510 	mrs	r5, PRIMASK
10004f5a:	b672      	cpsid	i
	struct k_thread *curr = _current;
10004f5c:	4a10      	ldr	r2, [pc, #64]	; (10004fa0 <z_time_slice+0x4c>)
	if (pending_current == curr) {
10004f5e:	4b11      	ldr	r3, [pc, #68]	; (10004fa4 <z_time_slice+0x50>)
	struct k_thread *curr = _current;
10004f60:	6894      	ldr	r4, [r2, #8]
	if (pending_current == curr) {
10004f62:	6818      	ldr	r0, [r3, #0]
10004f64:	42a0      	cmp	r0, r4
10004f66:	d107      	bne.n	10004f78 <z_time_slice+0x24>
		z_reset_time_slice(curr);
10004f68:	f7ff feee 	bl	10004d48 <z_reset_time_slice>
	if (key != 0U) {
10004f6c:	2d00      	cmp	r5, #0
10004f6e:	d102      	bne.n	10004f76 <z_time_slice+0x22>
	__asm__ volatile(
10004f70:	b662      	cpsie	i
10004f72:	f3bf 8f6f 	isb	sy
}
10004f76:	bd70      	pop	{r4, r5, r6, pc}
	pending_current = NULL;
10004f78:	2100      	movs	r1, #0
10004f7a:	6019      	str	r1, [r3, #0]
	if (slice_expired[_current_cpu->id] && sliceable(curr)) {
10004f7c:	7c12      	ldrb	r2, [r2, #16]
10004f7e:	4b0a      	ldr	r3, [pc, #40]	; (10004fa8 <z_time_slice+0x54>)
10004f80:	5c9b      	ldrb	r3, [r3, r2]
10004f82:	428b      	cmp	r3, r1
10004f84:	d0f2      	beq.n	10004f6c <z_time_slice+0x18>
10004f86:	0020      	movs	r0, r4
10004f88:	f7ff feae 	bl	10004ce8 <sliceable>
10004f8c:	2800      	cmp	r0, #0
10004f8e:	d0ed      	beq.n	10004f6c <z_time_slice+0x18>
		if (!z_is_thread_prevented_from_running(curr)) {
10004f90:	7b63      	ldrb	r3, [r4, #13]
10004f92:	06db      	lsls	r3, r3, #27
10004f94:	d102      	bne.n	10004f9c <z_time_slice+0x48>
			move_thread_to_end_of_prio_q(curr);
10004f96:	0020      	movs	r0, r4
10004f98:	f7ff ff1e 	bl	10004dd8 <move_thread_to_end_of_prio_q>
		z_reset_time_slice(curr);
10004f9c:	0020      	movs	r0, r4
10004f9e:	e7e3      	b.n	10004f68 <z_time_slice+0x14>
10004fa0:	20000264 	.word	0x20000264
10004fa4:	20000284 	.word	0x20000284
10004fa8:	2000029c 	.word	0x2000029c

10004fac <z_pend_curr>:
{
10004fac:	b510      	push	{r4, lr}
	pending_current = _current;
10004fae:	4809      	ldr	r0, [pc, #36]	; (10004fd4 <z_pend_curr+0x28>)
{
10004fb0:	000c      	movs	r4, r1
	pending_current = _current;
10004fb2:	4b09      	ldr	r3, [pc, #36]	; (10004fd8 <z_pend_curr+0x2c>)
{
10004fb4:	0011      	movs	r1, r2
	pending_current = _current;
10004fb6:	6882      	ldr	r2, [r0, #8]
10004fb8:	601a      	str	r2, [r3, #0]
	__asm__ volatile("mrs %0, PRIMASK;"
10004fba:	f3ef 8310 	mrs	r3, PRIMASK
10004fbe:	b672      	cpsid	i
	pend_locked(_current, wait_q, timeout);
10004fc0:	9a02      	ldr	r2, [sp, #8]
10004fc2:	9b03      	ldr	r3, [sp, #12]
10004fc4:	6880      	ldr	r0, [r0, #8]
10004fc6:	f7ff ff8f 	bl	10004ee8 <pend_locked>
	ret = arch_swap(key);
10004fca:	0020      	movs	r0, r4
10004fcc:	f7fe fbec 	bl	100037a8 <arch_swap>
}
10004fd0:	bd10      	pop	{r4, pc}
10004fd2:	46c0      	nop			; (mov r8, r8)
10004fd4:	20000264 	.word	0x20000264
10004fd8:	20000284 	.word	0x20000284

10004fdc <z_reschedule>:
{
10004fdc:	b510      	push	{r4, lr}
	return arch_irq_unlocked(key) && !arch_is_in_isr();
10004fde:	2900      	cmp	r1, #0
10004fe0:	d10a      	bne.n	10004ff8 <z_reschedule+0x1c>
  __ASM volatile ("MRS %0, ipsr" : "=r" (result) );
10004fe2:	f3ef 8005 	mrs	r0, IPSR
10004fe6:	2800      	cmp	r0, #0
10004fe8:	d107      	bne.n	10004ffa <z_reschedule+0x1e>
	return new_thread != _current;
10004fea:	4b06      	ldr	r3, [pc, #24]	; (10005004 <z_reschedule+0x28>)
	if (resched(key.key) && need_swap()) {
10004fec:	689a      	ldr	r2, [r3, #8]
10004fee:	695b      	ldr	r3, [r3, #20]
10004ff0:	429a      	cmp	r2, r3
10004ff2:	d002      	beq.n	10004ffa <z_reschedule+0x1e>
10004ff4:	f7fe fbd8 	bl	100037a8 <arch_swap>
}
10004ff8:	bd10      	pop	{r4, pc}
	__asm__ volatile(
10004ffa:	b662      	cpsie	i
10004ffc:	f3bf 8f6f 	isb	sy
10005000:	e7fa      	b.n	10004ff8 <z_reschedule+0x1c>
10005002:	46c0      	nop			; (mov r8, r8)
10005004:	20000264 	.word	0x20000264

10005008 <z_sched_start>:
{
10005008:	b510      	push	{r4, lr}
	__asm__ volatile("mrs %0, PRIMASK;"
1000500a:	f3ef 8410 	mrs	r4, PRIMASK
1000500e:	b672      	cpsid	i
	if (z_has_thread_started(thread)) {
10005010:	2204      	movs	r2, #4
	return (thread->base.thread_state & _THREAD_PRESTART) == 0U;
10005012:	7b43      	ldrb	r3, [r0, #13]
10005014:	4213      	tst	r3, r2
10005016:	d105      	bne.n	10005024 <z_sched_start+0x1c>
	if (key != 0U) {
10005018:	2c00      	cmp	r4, #0
1000501a:	d102      	bne.n	10005022 <z_sched_start+0x1a>
	__asm__ volatile(
1000501c:	b662      	cpsie	i
1000501e:	f3bf 8f6f 	isb	sy
}
10005022:	bd10      	pop	{r4, pc}
	thread->base.thread_state &= ~_THREAD_PRESTART;
10005024:	4393      	bics	r3, r2
10005026:	7343      	strb	r3, [r0, #13]
	ready_thread(thread);
10005028:	f7ff ff12 	bl	10004e50 <ready_thread>
	z_reschedule(&sched_spinlock, key);
1000502c:	0021      	movs	r1, r4
1000502e:	4802      	ldr	r0, [pc, #8]	; (10005038 <z_sched_start+0x30>)
10005030:	f7ff ffd4 	bl	10004fdc <z_reschedule>
10005034:	e7f5      	b.n	10005022 <z_sched_start+0x1a>
10005036:	46c0      	nop			; (mov r8, r8)
10005038:	2000029d 	.word	0x2000029d

1000503c <z_impl_k_thread_suspend>:
{
1000503c:	b570      	push	{r4, r5, r6, lr}
1000503e:	0004      	movs	r4, r0
}

static inline int z_abort_thread_timeout(struct k_thread *thread)
{
	return z_abort_timeout(&thread->base.timeout);
10005040:	3018      	adds	r0, #24
10005042:	f001 f8af 	bl	100061a4 <z_abort_timeout>
	__asm__ volatile("mrs %0, PRIMASK;"
10005046:	f3ef 8610 	mrs	r6, PRIMASK
1000504a:	b672      	cpsid	i
		if (z_is_thread_queued(thread)) {
1000504c:	220d      	movs	r2, #13
1000504e:	56a2      	ldrsb	r2, [r4, r2]
	return (thread->base.thread_state & state) != 0U;
10005050:	7b63      	ldrb	r3, [r4, #13]
10005052:	2a00      	cmp	r2, #0
10005054:	da05      	bge.n	10005062 <z_impl_k_thread_suspend+0x26>
	thread->base.thread_state &= ~_THREAD_QUEUED;
10005056:	227f      	movs	r2, #127	; 0x7f
10005058:	4013      	ands	r3, r2
	sys_dlist_remove(&thread->base.qnode_dlist);
1000505a:	0020      	movs	r0, r4
	thread->base.thread_state &= ~_THREAD_QUEUED;
1000505c:	7363      	strb	r3, [r4, #13]
	sys_dlist_remove(&thread->base.qnode_dlist);
1000505e:	f000 ffe2 	bl	10006026 <sys_dlist_remove>
	thread->base.thread_state |= _THREAD_SUSPENDED;
10005062:	2310      	movs	r3, #16
		update_cache(thread == _current);
10005064:	4d0a      	ldr	r5, [pc, #40]	; (10005090 <z_impl_k_thread_suspend+0x54>)
10005066:	7b62      	ldrb	r2, [r4, #13]
10005068:	68a8      	ldr	r0, [r5, #8]
1000506a:	4313      	orrs	r3, r2
1000506c:	1b00      	subs	r0, r0, r4
1000506e:	7363      	strb	r3, [r4, #13]
10005070:	4243      	negs	r3, r0
10005072:	4158      	adcs	r0, r3
10005074:	f7ff fe8e 	bl	10004d94 <update_cache>
	if (key != 0U) {
10005078:	2e00      	cmp	r6, #0
1000507a:	d102      	bne.n	10005082 <z_impl_k_thread_suspend+0x46>
	__asm__ volatile(
1000507c:	b662      	cpsie	i
1000507e:	f3bf 8f6f 	isb	sy
	if (thread == _current) {
10005082:	68ab      	ldr	r3, [r5, #8]
10005084:	42a3      	cmp	r3, r4
10005086:	d101      	bne.n	1000508c <z_impl_k_thread_suspend+0x50>
		z_reschedule_unlocked();
10005088:	f001 f885 	bl	10006196 <z_reschedule_unlocked>
}
1000508c:	bd70      	pop	{r4, r5, r6, pc}
1000508e:	46c0      	nop			; (mov r8, r8)
10005090:	20000264 	.word	0x20000264

10005094 <k_sched_lock>:
	__asm__ volatile("mrs %0, PRIMASK;"
10005094:	f3ef 8110 	mrs	r1, PRIMASK
10005098:	b672      	cpsid	i
static inline void z_sched_lock(void)
{
	__ASSERT(!arch_is_in_isr(), "");
	__ASSERT(_current->base.sched_locked != 1U, "");

	--_current->base.sched_locked;
1000509a:	4b05      	ldr	r3, [pc, #20]	; (100050b0 <k_sched_lock+0x1c>)
1000509c:	689a      	ldr	r2, [r3, #8]
1000509e:	7bd3      	ldrb	r3, [r2, #15]
100050a0:	3b01      	subs	r3, #1
100050a2:	73d3      	strb	r3, [r2, #15]
	if (key != 0U) {
100050a4:	2900      	cmp	r1, #0
100050a6:	d102      	bne.n	100050ae <k_sched_lock+0x1a>
	__asm__ volatile(
100050a8:	b662      	cpsie	i
100050aa:	f3bf 8f6f 	isb	sy
}
100050ae:	4770      	bx	lr
100050b0:	20000264 	.word	0x20000264

100050b4 <k_sched_unlock>:
{
100050b4:	b510      	push	{r4, lr}
	__asm__ volatile("mrs %0, PRIMASK;"
100050b6:	f3ef 8410 	mrs	r4, PRIMASK
100050ba:	b672      	cpsid	i
		++_current->base.sched_locked;
100050bc:	4b07      	ldr	r3, [pc, #28]	; (100050dc <k_sched_unlock+0x28>)
		update_cache(0);
100050be:	2000      	movs	r0, #0
		++_current->base.sched_locked;
100050c0:	689a      	ldr	r2, [r3, #8]
100050c2:	7bd3      	ldrb	r3, [r2, #15]
100050c4:	3301      	adds	r3, #1
100050c6:	73d3      	strb	r3, [r2, #15]
		update_cache(0);
100050c8:	f7ff fe64 	bl	10004d94 <update_cache>
	if (key != 0U) {
100050cc:	2c00      	cmp	r4, #0
100050ce:	d102      	bne.n	100050d6 <k_sched_unlock+0x22>
	__asm__ volatile(
100050d0:	b662      	cpsie	i
100050d2:	f3bf 8f6f 	isb	sy
	z_reschedule_unlocked();
100050d6:	f001 f85e 	bl	10006196 <z_reschedule_unlocked>
}
100050da:	bd10      	pop	{r4, pc}
100050dc:	20000264 	.word	0x20000264

100050e0 <z_sched_init>:
#else
	init_ready_q(&_kernel.ready_q);
#endif

#ifdef CONFIG_TIMESLICING
	k_sched_time_slice_set(CONFIG_TIMESLICE_SIZE,
100050e0:	2100      	movs	r1, #0
{
100050e2:	b510      	push	{r4, lr}
	list->head = (sys_dnode_t *)list;
100050e4:	4b03      	ldr	r3, [pc, #12]	; (100050f4 <z_sched_init+0x14>)
100050e6:	4a04      	ldr	r2, [pc, #16]	; (100050f8 <z_sched_init+0x18>)
	k_sched_time_slice_set(CONFIG_TIMESLICE_SIZE,
100050e8:	0008      	movs	r0, r1
100050ea:	619a      	str	r2, [r3, #24]
	list->tail = (sys_dnode_t *)list;
100050ec:	61da      	str	r2, [r3, #28]
100050ee:	f7ff ff11 	bl	10004f14 <k_sched_time_slice_set>
		CONFIG_TIMESLICE_PRIORITY);
#endif
}
100050f2:	bd10      	pop	{r4, pc}
100050f4:	20000264 	.word	0x20000264
100050f8:	2000027c 	.word	0x2000027c

100050fc <z_impl_k_yield>:
	return !(k_is_pre_kernel() || k_is_in_isr() ||
		 z_is_idle_thread_object(_current));
}

void z_impl_k_yield(void)
{
100050fc:	b5f8      	push	{r3, r4, r5, r6, r7, lr}
	__asm__ volatile("mrs %0, PRIMASK;"
100050fe:	f3ef 8510 	mrs	r5, PRIMASK
10005102:	b672      	cpsid	i
	thread->base.thread_state &= ~_THREAD_QUEUED;
10005104:	227f      	movs	r2, #127	; 0x7f

	k_spinlock_key_t key = k_spin_lock(&sched_spinlock);

	if (!IS_ENABLED(CONFIG_SMP) ||
	    z_is_thread_queued(_current)) {
		dequeue_thread(_current);
10005106:	4c19      	ldr	r4, [pc, #100]	; (1000516c <z_impl_k_yield+0x70>)
10005108:	68a0      	ldr	r0, [r4, #8]
	thread->base.thread_state &= ~_THREAD_QUEUED;
1000510a:	7b43      	ldrb	r3, [r0, #13]
1000510c:	4013      	ands	r3, r2
1000510e:	7343      	strb	r3, [r0, #13]
	sys_dlist_remove(&thread->base.qnode_dlist);
10005110:	f000 ff89 	bl	10006026 <sys_dlist_remove>
	thread->base.thread_state |= _THREAD_QUEUED;
10005114:	2280      	movs	r2, #128	; 0x80
	}
	queue_thread(_current);
10005116:	68a3      	ldr	r3, [r4, #8]
	thread->base.thread_state |= _THREAD_QUEUED;
10005118:	4252      	negs	r2, r2
1000511a:	7b59      	ldrb	r1, [r3, #13]
	return sys_dlist_is_empty(list) ? NULL : list->head;
1000511c:	4814      	ldr	r0, [pc, #80]	; (10005170 <z_impl_k_yield+0x74>)
1000511e:	430a      	orrs	r2, r1
10005120:	735a      	strb	r2, [r3, #13]
	return list->head == list;
10005122:	69a2      	ldr	r2, [r4, #24]
	return sys_dlist_is_empty(list) ? NULL : list->head;
10005124:	4282      	cmp	r2, r0
10005126:	d100      	bne.n	1000512a <z_impl_k_yield+0x2e>
10005128:	2200      	movs	r2, #0
	return (node == list->tail) ? NULL : node->next;
1000512a:	69e1      	ldr	r1, [r4, #28]
	SYS_DLIST_FOR_EACH_CONTAINER(pq, t, base.qnode_dlist) {
1000512c:	2a00      	cmp	r2, #0
1000512e:	d104      	bne.n	1000513a <z_impl_k_yield+0x3e>
	node->next = list;
10005130:	6018      	str	r0, [r3, #0]
	node->prev = tail;
10005132:	6059      	str	r1, [r3, #4]
	tail->next = node;
10005134:	600b      	str	r3, [r1, #0]
	list->tail = node;
10005136:	61e3      	str	r3, [r4, #28]
}
10005138:	e00c      	b.n	10005154 <z_impl_k_yield+0x58>
	int32_t b1 = thread_1->base.prio;
1000513a:	260e      	movs	r6, #14
	int32_t b2 = thread_2->base.prio;
1000513c:	270e      	movs	r7, #14
	int32_t b1 = thread_1->base.prio;
1000513e:	579e      	ldrsb	r6, [r3, r6]
	int32_t b2 = thread_2->base.prio;
10005140:	57d7      	ldrsb	r7, [r2, r7]
	if (b1 != b2) {
10005142:	42be      	cmp	r6, r7
10005144:	d00d      	beq.n	10005162 <z_impl_k_yield+0x66>
		if (z_sched_prio_cmp(thread, t) > 0) {
10005146:	42b7      	cmp	r7, r6
10005148:	dd0b      	ble.n	10005162 <z_impl_k_yield+0x66>
	sys_dnode_t *const prev = successor->prev;
1000514a:	6851      	ldr	r1, [r2, #4]
	node->next = successor;
1000514c:	601a      	str	r2, [r3, #0]
	node->prev = prev;
1000514e:	6059      	str	r1, [r3, #4]
	prev->next = node;
10005150:	600b      	str	r3, [r1, #0]
	successor->prev = node;
10005152:	6053      	str	r3, [r2, #4]
	update_cache(1);
10005154:	2001      	movs	r0, #1
10005156:	f7ff fe1d 	bl	10004d94 <update_cache>
1000515a:	0028      	movs	r0, r5
1000515c:	f7fe fb24 	bl	100037a8 <arch_swap>
	z_swap(&sched_spinlock, key);
}
10005160:	bdf8      	pop	{r3, r4, r5, r6, r7, pc}
	return (node == list->tail) ? NULL : node->next;
10005162:	428a      	cmp	r2, r1
10005164:	d0e4      	beq.n	10005130 <z_impl_k_yield+0x34>
10005166:	6812      	ldr	r2, [r2, #0]
10005168:	e7e0      	b.n	1000512c <z_impl_k_yield+0x30>
1000516a:	46c0      	nop			; (mov r8, r8)
1000516c:	20000264 	.word	0x20000264
10005170:	2000027c 	.word	0x2000027c

10005174 <z_tick_sleep>:
	__ASSERT(!arch_is_in_isr(), "");

	LOG_DBG("thread %p for %lu ticks", _current, (unsigned long)ticks);

	/* wait of 0 ms is treated as a 'yield' */
	if (ticks == 0) {
10005174:	0003      	movs	r3, r0
{
10005176:	b5f7      	push	{r0, r1, r2, r4, r5, r6, r7, lr}
	if (ticks == 0) {
10005178:	430b      	orrs	r3, r1
{
1000517a:	0004      	movs	r4, r0
1000517c:	000d      	movs	r5, r1
	if (ticks == 0) {
1000517e:	2b00      	cmp	r3, #0
10005180:	d103      	bne.n	1000518a <z_tick_sleep+0x16>
	z_impl_k_yield();
10005182:	f7ff ffbb 	bl	100050fc <z_impl_k_yield>
		k_yield();
		return 0;
10005186:	2000      	movs	r0, #0
		return ticks;
	}
#endif

	return 0;
}
10005188:	bdfe      	pop	{r1, r2, r3, r4, r5, r6, r7, pc}
	if (Z_TICK_ABS(ticks) <= 0) {
1000518a:	1c4b      	adds	r3, r1, #1
1000518c:	db2e      	blt.n	100051ec <z_tick_sleep+0x78>
1000518e:	1c4b      	adds	r3, r1, #1
10005190:	d101      	bne.n	10005196 <z_tick_sleep+0x22>
10005192:	1c83      	adds	r3, r0, #2
10005194:	d32a      	bcc.n	100051ec <z_tick_sleep+0x78>
		expected_wakeup_ticks = ticks + sys_clock_tick_get_32();
10005196:	f001 f818 	bl	100061ca <sys_clock_tick_get_32>
1000519a:	1827      	adds	r7, r4, r0
1000519c:	f3ef 8310 	mrs	r3, PRIMASK
100051a0:	b672      	cpsid	i
	pending_current = _current;
100051a2:	4e14      	ldr	r6, [pc, #80]	; (100051f4 <z_tick_sleep+0x80>)
100051a4:	9301      	str	r3, [sp, #4]
100051a6:	68b0      	ldr	r0, [r6, #8]
100051a8:	4b13      	ldr	r3, [pc, #76]	; (100051f8 <z_tick_sleep+0x84>)
100051aa:	6018      	str	r0, [r3, #0]
	unready_thread(_current);
100051ac:	f7ff fe86 	bl	10004ebc <unready_thread>
	z_add_thread_timeout(_current, timeout);
100051b0:	68b0      	ldr	r0, [r6, #8]
	z_add_timeout(&thread->base.timeout, z_thread_timeout, ticks);
100051b2:	0022      	movs	r2, r4
100051b4:	002b      	movs	r3, r5
100051b6:	4911      	ldr	r1, [pc, #68]	; (100051fc <z_tick_sleep+0x88>)
100051b8:	3018      	adds	r0, #24
100051ba:	f000 f8ff 	bl	100053bc <z_add_timeout>
	thread->base.thread_state |= _THREAD_SUSPENDED;
100051be:	2310      	movs	r3, #16
	z_mark_thread_as_suspended(_current);
100051c0:	68b2      	ldr	r2, [r6, #8]
100051c2:	9801      	ldr	r0, [sp, #4]
100051c4:	7b51      	ldrb	r1, [r2, #13]
100051c6:	430b      	orrs	r3, r1
100051c8:	7353      	strb	r3, [r2, #13]
100051ca:	f7fe faed 	bl	100037a8 <arch_swap>
	ticks = (k_ticks_t)expected_wakeup_ticks - sys_clock_tick_get_32();
100051ce:	f000 fffc 	bl	100061ca <sys_clock_tick_get_32>
100051d2:	2300      	movs	r3, #0
100051d4:	003a      	movs	r2, r7
100051d6:	0004      	movs	r4, r0
100051d8:	001d      	movs	r5, r3
100051da:	1b12      	subs	r2, r2, r4
100051dc:	41ab      	sbcs	r3, r5
	if (ticks > 0) {
100051de:	42ab      	cmp	r3, r5
100051e0:	dc02      	bgt.n	100051e8 <z_tick_sleep+0x74>
100051e2:	d1d0      	bne.n	10005186 <z_tick_sleep+0x12>
100051e4:	42aa      	cmp	r2, r5
100051e6:	d0ce      	beq.n	10005186 <z_tick_sleep+0x12>
		return ticks;
100051e8:	0010      	movs	r0, r2
100051ea:	e7cd      	b.n	10005188 <z_tick_sleep+0x14>
		expected_wakeup_ticks = Z_TICK_ABS(ticks);
100051ec:	2702      	movs	r7, #2
100051ee:	427f      	negs	r7, r7
100051f0:	1b3f      	subs	r7, r7, r4
100051f2:	e7d3      	b.n	1000519c <z_tick_sleep+0x28>
100051f4:	20000264 	.word	0x20000264
100051f8:	20000284 	.word	0x20000284
100051fc:	10006113 	.word	0x10006113

10005200 <z_impl_k_sleep>:

int32_t z_impl_k_sleep(k_timeout_t timeout)
{
10005200:	b510      	push	{r4, lr}
10005202:	000b      	movs	r3, r1
10005204:	000c      	movs	r4, r1
	__ASSERT(!arch_is_in_isr(), "");

	SYS_PORT_TRACING_FUNC_ENTER(k_thread, sleep, timeout);

	/* in case of K_FOREVER, we suspend */
	if (K_TIMEOUT_EQ(timeout, K_FOREVER)) {
10005206:	1c42      	adds	r2, r0, #1
10005208:	d107      	bne.n	1000521a <z_impl_k_sleep+0x1a>
1000520a:	3301      	adds	r3, #1
1000520c:	d105      	bne.n	1000521a <z_impl_k_sleep+0x1a>
		k_thread_suspend(_current);
1000520e:	4b07      	ldr	r3, [pc, #28]	; (1000522c <z_impl_k_sleep+0x2c>)
10005210:	6898      	ldr	r0, [r3, #8]
	z_impl_k_thread_suspend(thread);
10005212:	f7ff ff13 	bl	1000503c <z_impl_k_thread_suspend>

		SYS_PORT_TRACING_FUNC_EXIT(k_thread, sleep, timeout, (int32_t) K_TICKS_FOREVER);

		return (int32_t) K_TICKS_FOREVER;
10005216:	0020      	movs	r0, r4
	int32_t ret = k_ticks_to_ms_floor64(ticks);

	SYS_PORT_TRACING_FUNC_EXIT(k_thread, sleep, timeout, ret);

	return ret;
}
10005218:	bd10      	pop	{r4, pc}
	ticks = z_tick_sleep(ticks);
1000521a:	0021      	movs	r1, r4
1000521c:	f7ff ffaa 	bl	10005174 <z_tick_sleep>
			return t / ((uint64_t)from_hz / to_hz);
10005220:	220a      	movs	r2, #10
10005222:	2300      	movs	r3, #0
	int32_t ret = k_ticks_to_ms_floor64(ticks);
10005224:	17c1      	asrs	r1, r0, #31
10005226:	f7fb f8eb 	bl	10000400 <__aeabi_uldivmod>
	return ret;
1000522a:	e7f5      	b.n	10005218 <z_impl_k_sleep+0x18>
1000522c:	20000264 	.word	0x20000264

10005230 <z_impl_z_current_get>:
	 * local interrupts when reading it.
	 */
	unsigned int k = arch_irq_lock();
#endif

	k_tid_t ret = _current_cpu->current;
10005230:	4b01      	ldr	r3, [pc, #4]	; (10005238 <z_impl_z_current_get+0x8>)

#ifdef CONFIG_SMP
	arch_irq_unlock(k);
#endif
	return ret;
10005232:	6898      	ldr	r0, [r3, #8]
}
10005234:	4770      	bx	lr
10005236:	46c0      	nop			; (mov r8, r8)
10005238:	20000264 	.word	0x20000264

1000523c <z_thread_abort>:
#endif
	}
}

void z_thread_abort(struct k_thread *thread)
{
1000523c:	b570      	push	{r4, r5, r6, lr}
1000523e:	0004      	movs	r4, r0
10005240:	f3ef 8610 	mrs	r6, PRIMASK
10005244:	b672      	cpsid	i
	k_spinlock_key_t key = k_spin_lock(&sched_spinlock);

	if ((thread->base.user_options & K_ESSENTIAL) != 0) {
10005246:	7b03      	ldrb	r3, [r0, #12]
10005248:	07db      	lsls	r3, r3, #31
1000524a:	d508      	bpl.n	1000525e <z_thread_abort+0x22>
	if (key != 0U) {
1000524c:	2e00      	cmp	r6, #0
1000524e:	d102      	bne.n	10005256 <z_thread_abort+0x1a>
	__asm__ volatile(
10005250:	b662      	cpsie	i
10005252:	f3bf 8f6f 	isb	sy
		k_spin_unlock(&sched_spinlock, key);
		__ASSERT(false, "aborting essential thread %p", thread);
		k_panic();
10005256:	2004      	movs	r0, #4
10005258:	b662      	cpsie	i
1000525a:	df02      	svc	2
	if (thread == _current && !arch_is_in_isr()) {
		z_swap(&sched_spinlock, key);
		__ASSERT(false, "aborted _current back from dead");
	}
	k_spin_unlock(&sched_spinlock, key);
}
1000525c:	bd70      	pop	{r4, r5, r6, pc}
	if ((thread->base.thread_state & _THREAD_DEAD) != 0U) {
1000525e:	2308      	movs	r3, #8
10005260:	7b42      	ldrb	r2, [r0, #13]
10005262:	421a      	tst	r2, r3
10005264:	d005      	beq.n	10005272 <z_thread_abort+0x36>
	if (key != 0U) {
10005266:	2e00      	cmp	r6, #0
10005268:	d1f8      	bne.n	1000525c <z_thread_abort+0x20>
	__asm__ volatile(
1000526a:	b662      	cpsie	i
1000526c:	f3bf 8f6f 	isb	sy
10005270:	e7f4      	b.n	1000525c <z_thread_abort+0x20>
		thread->base.thread_state &= ~_THREAD_ABORTING;
10005272:	2120      	movs	r1, #32
10005274:	0010      	movs	r0, r2
10005276:	4388      	bics	r0, r1
10005278:	0001      	movs	r1, r0
1000527a:	4319      	orrs	r1, r3
		if (z_is_thread_queued(thread)) {
1000527c:	b248      	sxtb	r0, r1
1000527e:	2800      	cmp	r0, #0
10005280:	db20      	blt.n	100052c4 <z_thread_abort+0x88>
		thread->base.thread_state &= ~_THREAD_ABORTING;
10005282:	7361      	strb	r1, [r4, #13]
		if (thread->base.pended_on != NULL) {
10005284:	68a3      	ldr	r3, [r4, #8]
10005286:	2b00      	cmp	r3, #0
10005288:	d002      	beq.n	10005290 <z_thread_abort+0x54>
			unpend_thread_no_timeout(thread);
1000528a:	0020      	movs	r0, r4
1000528c:	f000 fed3 	bl	10006036 <unpend_thread_no_timeout>
	return z_abort_timeout(&thread->base.timeout);
10005290:	0020      	movs	r0, r4
10005292:	3018      	adds	r0, #24
10005294:	f000 ff86 	bl	100061a4 <z_abort_timeout>
}

static inline struct k_thread *z_waitq_head(_wait_q_t *w)
{
	return (struct k_thread *)sys_dlist_peek_head(&w->waitq);
10005298:	0023      	movs	r3, r4
	return list->head == list;
1000529a:	6da5      	ldr	r5, [r4, #88]	; 0x58
1000529c:	3358      	adds	r3, #88	; 0x58
	return sys_dlist_is_empty(list) ? NULL : list->head;
1000529e:	429d      	cmp	r5, r3
100052a0:	d001      	beq.n	100052a6 <z_thread_abort+0x6a>
	while ((thread = z_waitq_head(wait_q)) != NULL) {
100052a2:	2d00      	cmp	r5, #0
100052a4:	d116      	bne.n	100052d4 <z_thread_abort+0x98>
		update_cache(1);
100052a6:	2001      	movs	r0, #1
100052a8:	f7ff fd74 	bl	10004d94 <update_cache>
	if (thread == _current && !arch_is_in_isr()) {
100052ac:	4b10      	ldr	r3, [pc, #64]	; (100052f0 <z_thread_abort+0xb4>)
100052ae:	689b      	ldr	r3, [r3, #8]
100052b0:	42a3      	cmp	r3, r4
100052b2:	d1d8      	bne.n	10005266 <z_thread_abort+0x2a>
100052b4:	f3ef 8305 	mrs	r3, IPSR
100052b8:	2b00      	cmp	r3, #0
100052ba:	d1d4      	bne.n	10005266 <z_thread_abort+0x2a>
100052bc:	0030      	movs	r0, r6
100052be:	f7fe fa73 	bl	100037a8 <arch_swap>
	return ret;
100052c2:	e7d0      	b.n	10005266 <z_thread_abort+0x2a>
	thread->base.thread_state &= ~_THREAD_QUEUED;
100052c4:	215f      	movs	r1, #95	; 0x5f
100052c6:	400a      	ands	r2, r1
100052c8:	4313      	orrs	r3, r2
	sys_dlist_remove(&thread->base.qnode_dlist);
100052ca:	0020      	movs	r0, r4
	thread->base.thread_state &= ~_THREAD_QUEUED;
100052cc:	7363      	strb	r3, [r4, #13]
	sys_dlist_remove(&thread->base.qnode_dlist);
100052ce:	f000 feaa 	bl	10006026 <sys_dlist_remove>
}
100052d2:	e7d7      	b.n	10005284 <z_thread_abort+0x48>
		unpend_thread_no_timeout(thread);
100052d4:	0028      	movs	r0, r5
100052d6:	f000 feae 	bl	10006036 <unpend_thread_no_timeout>
100052da:	0028      	movs	r0, r5
100052dc:	3018      	adds	r0, #24
100052de:	f000 ff61 	bl	100061a4 <z_abort_timeout>
100052e2:	2300      	movs	r3, #0
		ready_thread(thread);
100052e4:	0028      	movs	r0, r5
100052e6:	66eb      	str	r3, [r5, #108]	; 0x6c
100052e8:	f7ff fdb2 	bl	10004e50 <ready_thread>
100052ec:	e7d4      	b.n	10005298 <z_thread_abort+0x5c>
100052ee:	46c0      	nop			; (mov r8, r8)
100052f0:	20000264 	.word	0x20000264

100052f4 <z_data_copy>:
 * @brief Copy the data section from ROM to RAM
 *
 * This routine copies the data section from ROM to RAM.
 */
void z_data_copy(void)
{
100052f4:	b510      	push	{r4, lr}
	z_early_memcpy(&__data_region_start, &__data_region_load_start,
		       __data_region_end - __data_region_start);
100052f6:	4806      	ldr	r0, [pc, #24]	; (10005310 <z_data_copy+0x1c>)
100052f8:	4a06      	ldr	r2, [pc, #24]	; (10005314 <z_data_copy+0x20>)
	z_early_memcpy(&__data_region_start, &__data_region_load_start,
100052fa:	4907      	ldr	r1, [pc, #28]	; (10005318 <z_data_copy+0x24>)
		       __data_region_end - __data_region_start);
100052fc:	1a12      	subs	r2, r2, r0
	z_early_memcpy(&__data_region_start, &__data_region_load_start,
100052fe:	f000 fe85 	bl	1000600c <z_early_memcpy>
#ifdef CONFIG_ARCH_HAS_RAMFUNC_SUPPORT
	z_early_memcpy(&__ramfunc_start, &__ramfunc_load_start,
10005302:	4a06      	ldr	r2, [pc, #24]	; (1000531c <z_data_copy+0x28>)
10005304:	4906      	ldr	r1, [pc, #24]	; (10005320 <z_data_copy+0x2c>)
10005306:	4807      	ldr	r0, [pc, #28]	; (10005324 <z_data_copy+0x30>)
10005308:	f000 fe80 	bl	1000600c <z_early_memcpy>
#else
	z_early_memcpy(&_app_smem_start, &_app_smem_rom_start,
		       _app_smem_end - _app_smem_start);
#endif /* CONFIG_STACK_CANARIES */
#endif /* CONFIG_USERSPACE */
}
1000530c:	bd10      	pop	{r4, pc}
1000530e:	46c0      	nop			; (mov r8, r8)
10005310:	20000000 	.word	0x20000000
10005314:	200000e8 	.word	0x200000e8
10005318:	10006c38 	.word	0x10006c38
1000531c:	00000000 	.word	0x00000000
10005320:	10006c38 	.word	0x10006c38
10005324:	20000000 	.word	0x20000000

10005328 <elapsed>:
	sys_dlist_remove(&t->node);
}

static int32_t elapsed(void)
{
	return announce_remaining == 0 ? sys_clock_elapsed() : 0U;
10005328:	2000      	movs	r0, #0
{
1000532a:	b510      	push	{r4, lr}
	return announce_remaining == 0 ? sys_clock_elapsed() : 0U;
1000532c:	4b03      	ldr	r3, [pc, #12]	; (1000533c <elapsed+0x14>)
1000532e:	681b      	ldr	r3, [r3, #0]
10005330:	4283      	cmp	r3, r0
10005332:	d101      	bne.n	10005338 <elapsed+0x10>
10005334:	f7ff f844 	bl	100043c0 <sys_clock_elapsed>
}
10005338:	bd10      	pop	{r4, pc}
1000533a:	46c0      	nop			; (mov r8, r8)
1000533c:	20000290 	.word	0x20000290

10005340 <next_timeout>:

static int32_t next_timeout(void)
{
10005340:	b570      	push	{r4, r5, r6, lr}
	return list->head == list;
10005342:	4b0e      	ldr	r3, [pc, #56]	; (1000537c <next_timeout+0x3c>)
10005344:	681e      	ldr	r6, [r3, #0]
	return sys_dlist_is_empty(list) ? NULL : list->head;
10005346:	429e      	cmp	r6, r3
10005348:	d103      	bne.n	10005352 <next_timeout+0x12>
	struct _timeout *to = first();
	int32_t ticks_elapsed = elapsed();
1000534a:	f7ff ffed 	bl	10005328 <elapsed>
	int32_t ret;

	if ((to == NULL) ||
	    ((int64_t)(to->dticks - ticks_elapsed) > (int64_t)INT_MAX)) {
		ret = MAX_WAIT;
1000534e:	480c      	ldr	r0, [pc, #48]	; (10005380 <next_timeout+0x40>)
	} else {
		ret = MAX(0, to->dticks - ticks_elapsed);
	}

	return ret;
}
10005350:	bd70      	pop	{r4, r5, r6, pc}
	int32_t ticks_elapsed = elapsed();
10005352:	f7ff ffe9 	bl	10005328 <elapsed>
	if ((to == NULL) ||
10005356:	2e00      	cmp	r6, #0
10005358:	d0f9      	beq.n	1000534e <next_timeout+0xe>
	    ((int64_t)(to->dticks - ticks_elapsed) > (int64_t)INT_MAX)) {
1000535a:	6932      	ldr	r2, [r6, #16]
1000535c:	6973      	ldr	r3, [r6, #20]
1000535e:	0004      	movs	r4, r0
10005360:	17c5      	asrs	r5, r0, #31
10005362:	1b12      	subs	r2, r2, r4
10005364:	41ab      	sbcs	r3, r5
	if ((to == NULL) ||
10005366:	2b00      	cmp	r3, #0
10005368:	dcf1      	bgt.n	1000534e <next_timeout+0xe>
1000536a:	d103      	bne.n	10005374 <next_timeout+0x34>
1000536c:	2180      	movs	r1, #128	; 0x80
1000536e:	0609      	lsls	r1, r1, #24
10005370:	428a      	cmp	r2, r1
10005372:	d2ec      	bcs.n	1000534e <next_timeout+0xe>
		ret = MAX(0, to->dticks - ticks_elapsed);
10005374:	43d8      	mvns	r0, r3
10005376:	17c0      	asrs	r0, r0, #31
10005378:	4010      	ands	r0, r2
	return ret;
1000537a:	e7e9      	b.n	10005350 <next_timeout+0x10>
1000537c:	200000d0 	.word	0x200000d0
10005380:	7fffffff 	.word	0x7fffffff

10005384 <remove_timeout>:
{
10005384:	b530      	push	{r4, r5, lr}
	return (node != NULL) ? sys_dlist_peek_next_no_check(list, node) : NULL;
10005386:	2800      	cmp	r0, #0
10005388:	d00e      	beq.n	100053a8 <remove_timeout+0x24>
	return (node == list->tail) ? NULL : node->next;
1000538a:	4b0b      	ldr	r3, [pc, #44]	; (100053b8 <remove_timeout+0x34>)
1000538c:	685b      	ldr	r3, [r3, #4]
1000538e:	4298      	cmp	r0, r3
10005390:	d00a      	beq.n	100053a8 <remove_timeout+0x24>
10005392:	6801      	ldr	r1, [r0, #0]
	if (next(t) != NULL) {
10005394:	2900      	cmp	r1, #0
10005396:	d007      	beq.n	100053a8 <remove_timeout+0x24>
		next(t)->dticks += t->dticks;
10005398:	690a      	ldr	r2, [r1, #16]
1000539a:	694b      	ldr	r3, [r1, #20]
1000539c:	6904      	ldr	r4, [r0, #16]
1000539e:	6945      	ldr	r5, [r0, #20]
100053a0:	1912      	adds	r2, r2, r4
100053a2:	416b      	adcs	r3, r5
100053a4:	610a      	str	r2, [r1, #16]
100053a6:	614b      	str	r3, [r1, #20]
 */

static inline void sys_dlist_remove(sys_dnode_t *node)
{
	sys_dnode_t *const prev = node->prev;
	sys_dnode_t *const next = node->next;
100053a8:	6803      	ldr	r3, [r0, #0]
	sys_dnode_t *const prev = node->prev;
100053aa:	6842      	ldr	r2, [r0, #4]

	prev->next = next;
100053ac:	6013      	str	r3, [r2, #0]
	next->prev = prev;
100053ae:	605a      	str	r2, [r3, #4]
	node->next = NULL;
100053b0:	2300      	movs	r3, #0
100053b2:	6003      	str	r3, [r0, #0]
	node->prev = NULL;
100053b4:	6043      	str	r3, [r0, #4]
}
100053b6:	bd30      	pop	{r4, r5, pc}
100053b8:	200000d0 	.word	0x200000d0

100053bc <z_add_timeout>:

void z_add_timeout(struct _timeout *to, _timeout_func_t fn,
		   k_timeout_t timeout)
{
100053bc:	b5f7      	push	{r0, r1, r2, r4, r5, r6, r7, lr}
100053be:	0004      	movs	r4, r0
100053c0:	0016      	movs	r6, r2
100053c2:	001f      	movs	r7, r3
	if (K_TIMEOUT_EQ(timeout, K_FOREVER)) {
100053c4:	1c53      	adds	r3, r2, #1
100053c6:	d101      	bne.n	100053cc <z_add_timeout+0x10>
100053c8:	1c7b      	adds	r3, r7, #1
100053ca:	d057      	beq.n	1000547c <z_add_timeout+0xc0>
#ifdef CONFIG_KERNEL_COHERENCE
	__ASSERT_NO_MSG(arch_mem_coherent(to));
#endif

	__ASSERT(!sys_dnode_is_linked(&to->node), "");
	to->fn = fn;
100053cc:	60a1      	str	r1, [r4, #8]
	__asm__ volatile("mrs %0, PRIMASK;"
100053ce:	f3ef 8310 	mrs	r3, PRIMASK
100053d2:	b672      	cpsid	i
100053d4:	9301      	str	r3, [sp, #4]

	LOCKED(&timeout_lock) {
		struct _timeout *t;

		if (IS_ENABLED(CONFIG_TIMEOUT_64BIT) &&
100053d6:	2f00      	cmp	r7, #0
100053d8:	da23      	bge.n	10005422 <z_add_timeout+0x66>
100053da:	1c7b      	adds	r3, r7, #1
100053dc:	d101      	bne.n	100053e2 <z_add_timeout+0x26>
100053de:	1cb3      	adds	r3, r6, #2
100053e0:	d81f      	bhi.n	10005422 <z_add_timeout+0x66>
		    Z_TICK_ABS(timeout.ticks) >= 0) {
			k_ticks_t ticks = Z_TICK_ABS(timeout.ticks) - curr_tick;
100053e2:	4b2b      	ldr	r3, [pc, #172]	; (10005490 <z_add_timeout+0xd4>)
100053e4:	6818      	ldr	r0, [r3, #0]
100053e6:	6859      	ldr	r1, [r3, #4]
100053e8:	2202      	movs	r2, #2
100053ea:	4252      	negs	r2, r2
100053ec:	17d3      	asrs	r3, r2, #31
100053ee:	1a12      	subs	r2, r2, r0
100053f0:	418b      	sbcs	r3, r1
100053f2:	1b92      	subs	r2, r2, r6
100053f4:	41bb      	sbcs	r3, r7

			to->dticks = MAX(1, ticks);
100053f6:	2b00      	cmp	r3, #0
100053f8:	dc04      	bgt.n	10005404 <z_add_timeout+0x48>
100053fa:	d101      	bne.n	10005400 <z_add_timeout+0x44>
100053fc:	2a00      	cmp	r2, #0
100053fe:	d101      	bne.n	10005404 <z_add_timeout+0x48>
10005400:	2201      	movs	r2, #1
10005402:	2300      	movs	r3, #0
	return list->head == list;
10005404:	4f23      	ldr	r7, [pc, #140]	; (10005494 <z_add_timeout+0xd8>)
10005406:	6122      	str	r2, [r4, #16]
10005408:	6163      	str	r3, [r4, #20]
1000540a:	683d      	ldr	r5, [r7, #0]
	return sys_dlist_is_empty(list) ? NULL : list->head;
1000540c:	42bd      	cmp	r5, r7
1000540e:	d100      	bne.n	10005412 <z_add_timeout+0x56>
10005410:	2500      	movs	r5, #0
	return (node == list->tail) ? NULL : node->next;
10005412:	687e      	ldr	r6, [r7, #4]
		} else {
			to->dticks = timeout.ticks + 1 + elapsed();
		}

		for (t = first(); t != NULL; t = next(t)) {
10005414:	2d00      	cmp	r5, #0
10005416:	d10f      	bne.n	10005438 <z_add_timeout+0x7c>
	node->next = list;
10005418:	6027      	str	r7, [r4, #0]
	node->prev = tail;
1000541a:	6066      	str	r6, [r4, #4]
	tail->next = node;
1000541c:	6034      	str	r4, [r6, #0]
	list->tail = node;
1000541e:	607c      	str	r4, [r7, #4]
}
10005420:	e01c      	b.n	1000545c <z_add_timeout+0xa0>
			to->dticks = timeout.ticks + 1 + elapsed();
10005422:	f7ff ff81 	bl	10005328 <elapsed>
10005426:	2201      	movs	r2, #1
10005428:	2300      	movs	r3, #0
1000542a:	1992      	adds	r2, r2, r6
1000542c:	417b      	adcs	r3, r7
1000542e:	0006      	movs	r6, r0
10005430:	17c7      	asrs	r7, r0, #31
10005432:	1992      	adds	r2, r2, r6
10005434:	417b      	adcs	r3, r7
10005436:	e7e5      	b.n	10005404 <z_add_timeout+0x48>
			if (t->dticks > to->dticks) {
10005438:	6928      	ldr	r0, [r5, #16]
1000543a:	6969      	ldr	r1, [r5, #20]
1000543c:	6922      	ldr	r2, [r4, #16]
1000543e:	6963      	ldr	r3, [r4, #20]
10005440:	4299      	cmp	r1, r3
10005442:	dc02      	bgt.n	1000544a <z_add_timeout+0x8e>
10005444:	d11b      	bne.n	1000547e <z_add_timeout+0xc2>
10005446:	4290      	cmp	r0, r2
10005448:	d919      	bls.n	1000547e <z_add_timeout+0xc2>
				t->dticks -= to->dticks;
1000544a:	1a80      	subs	r0, r0, r2
1000544c:	4199      	sbcs	r1, r3
	sys_dnode_t *const prev = successor->prev;
1000544e:	686b      	ldr	r3, [r5, #4]
10005450:	6128      	str	r0, [r5, #16]
10005452:	6169      	str	r1, [r5, #20]
	node->prev = prev;
10005454:	6063      	str	r3, [r4, #4]
	node->next = successor;
10005456:	6025      	str	r5, [r4, #0]
	prev->next = node;
10005458:	601c      	str	r4, [r3, #0]
	successor->prev = node;
1000545a:	606c      	str	r4, [r5, #4]
	return list->head == list;
1000545c:	683b      	ldr	r3, [r7, #0]
	return sys_dlist_is_empty(list) ? NULL : list->head;
1000545e:	42bb      	cmp	r3, r7
10005460:	d006      	beq.n	10005470 <z_add_timeout+0xb4>

		if (t == NULL) {
			sys_dlist_append(&timeout_list, &to->node);
		}

		if (to == first()) {
10005462:	429c      	cmp	r4, r3
10005464:	d104      	bne.n	10005470 <z_add_timeout+0xb4>
			sys_clock_set_timeout(next_timeout(), false);
10005466:	f7ff ff6b 	bl	10005340 <next_timeout>
1000546a:	2100      	movs	r1, #0
1000546c:	f7fe ff30 	bl	100042d0 <sys_clock_set_timeout>
	if (key != 0U) {
10005470:	9b01      	ldr	r3, [sp, #4]
10005472:	2b00      	cmp	r3, #0
10005474:	d102      	bne.n	1000547c <z_add_timeout+0xc0>
	__asm__ volatile(
10005476:	b662      	cpsie	i
10005478:	f3bf 8f6f 	isb	sy
		}
	}
}
1000547c:	bdf7      	pop	{r0, r1, r2, r4, r5, r6, r7, pc}
			to->dticks -= t->dticks;
1000547e:	1a12      	subs	r2, r2, r0
10005480:	418b      	sbcs	r3, r1
10005482:	6122      	str	r2, [r4, #16]
10005484:	6163      	str	r3, [r4, #20]
	return (node == list->tail) ? NULL : node->next;
10005486:	42b5      	cmp	r5, r6
10005488:	d0c6      	beq.n	10005418 <z_add_timeout+0x5c>
1000548a:	682d      	ldr	r5, [r5, #0]
1000548c:	e7c2      	b.n	10005414 <z_add_timeout+0x58>
1000548e:	46c0      	nop			; (mov r8, r8)
10005490:	200001e0 	.word	0x200001e0
10005494:	200000d0 	.word	0x200000d0

10005498 <sys_clock_announce>:
	}
	return ret;
}

void sys_clock_announce(int32_t ticks)
{
10005498:	b5f0      	push	{r4, r5, r6, r7, lr}
1000549a:	b085      	sub	sp, #20
	__asm__ volatile("mrs %0, PRIMASK;"
1000549c:	f3ef 8310 	mrs	r3, PRIMASK
100054a0:	b672      	cpsid	i

	/* Note that we need to use the underlying arch-specific lock
	 * implementation.  The "irq_lock()" API in SMP context is
	 * actually a wrapper for a global spinlock!
	 */
	k.key = arch_irq_lock();
100054a2:	9302      	str	r3, [sp, #8]
		announce_remaining += ticks;
		k_spin_unlock(&timeout_lock, key);
		return;
	}

	announce_remaining = ticks;
100054a4:	4b30      	ldr	r3, [pc, #192]	; (10005568 <sys_clock_announce+0xd0>)
100054a6:	6018      	str	r0, [r3, #0]
	return list->head == list;
100054a8:	4b30      	ldr	r3, [pc, #192]	; (1000556c <sys_clock_announce+0xd4>)
100054aa:	681c      	ldr	r4, [r3, #0]
	return sys_dlist_is_empty(list) ? NULL : list->head;
100054ac:	429c      	cmp	r4, r3
100054ae:	d100      	bne.n	100054b2 <sys_clock_announce+0x1a>
100054b0:	2400      	movs	r4, #0
	for (t = first();
	     (t != NULL) && (t->dticks <= announce_remaining);
	     t = first()) {
		int dt = t->dticks;

		curr_tick += dt;
100054b2:	4b2f      	ldr	r3, [pc, #188]	; (10005570 <sys_clock_announce+0xd8>)
	     (t != NULL) && (t->dticks <= announce_remaining);
100054b4:	4d2c      	ldr	r5, [pc, #176]	; (10005568 <sys_clock_announce+0xd0>)
		curr_tick += dt;
100054b6:	9303      	str	r3, [sp, #12]
100054b8:	6818      	ldr	r0, [r3, #0]
100054ba:	6859      	ldr	r1, [r3, #4]
	     (t != NULL) && (t->dticks <= announce_remaining);
100054bc:	682b      	ldr	r3, [r5, #0]
100054be:	469c      	mov	ip, r3
100054c0:	2c00      	cmp	r4, #0
100054c2:	d039      	beq.n	10005538 <sys_clock_announce+0xa0>
100054c4:	6962      	ldr	r2, [r4, #20]
100054c6:	6926      	ldr	r6, [r4, #16]
100054c8:	17db      	asrs	r3, r3, #31
100054ca:	429a      	cmp	r2, r3
100054cc:	dc02      	bgt.n	100054d4 <sys_clock_announce+0x3c>
100054ce:	d10a      	bne.n	100054e6 <sys_clock_announce+0x4e>
100054d0:	4566      	cmp	r6, ip
100054d2:	d908      	bls.n	100054e6 <sys_clock_announce+0x4e>
		key = k_spin_lock(&timeout_lock);
		announce_remaining -= dt;
	}

	if (t != NULL) {
		t->dticks -= announce_remaining;
100054d4:	001f      	movs	r7, r3
100054d6:	6922      	ldr	r2, [r4, #16]
100054d8:	6963      	ldr	r3, [r4, #20]
100054da:	4666      	mov	r6, ip
100054dc:	1b92      	subs	r2, r2, r6
100054de:	41bb      	sbcs	r3, r7
100054e0:	6122      	str	r2, [r4, #16]
100054e2:	6163      	str	r3, [r4, #20]
100054e4:	e028      	b.n	10005538 <sys_clock_announce+0xa0>
		curr_tick += dt;
100054e6:	17f3      	asrs	r3, r6, #31
100054e8:	9600      	str	r6, [sp, #0]
100054ea:	9301      	str	r3, [sp, #4]
100054ec:	9a00      	ldr	r2, [sp, #0]
100054ee:	9b01      	ldr	r3, [sp, #4]
100054f0:	1880      	adds	r0, r0, r2
100054f2:	4159      	adcs	r1, r3
		t->dticks = 0;
100054f4:	2300      	movs	r3, #0
100054f6:	2200      	movs	r2, #0
		curr_tick += dt;
100054f8:	4f1d      	ldr	r7, [pc, #116]	; (10005570 <sys_clock_announce+0xd8>)
		t->dticks = 0;
100054fa:	6122      	str	r2, [r4, #16]
100054fc:	6163      	str	r3, [r4, #20]
		curr_tick += dt;
100054fe:	6038      	str	r0, [r7, #0]
10005500:	6079      	str	r1, [r7, #4]
		remove_timeout(t);
10005502:	0020      	movs	r0, r4
10005504:	f7ff ff3e 	bl	10005384 <remove_timeout>
	if (key != 0U) {
10005508:	9b02      	ldr	r3, [sp, #8]
1000550a:	2b00      	cmp	r3, #0
1000550c:	d102      	bne.n	10005514 <sys_clock_announce+0x7c>
	__asm__ volatile(
1000550e:	b662      	cpsie	i
10005510:	f3bf 8f6f 	isb	sy
		t->fn(t);
10005514:	0020      	movs	r0, r4
10005516:	68a3      	ldr	r3, [r4, #8]
10005518:	4798      	blx	r3
	__asm__ volatile("mrs %0, PRIMASK;"
1000551a:	f3ef 8310 	mrs	r3, PRIMASK
1000551e:	b672      	cpsid	i
10005520:	9302      	str	r3, [sp, #8]
		announce_remaining -= dt;
10005522:	4b11      	ldr	r3, [pc, #68]	; (10005568 <sys_clock_announce+0xd0>)
10005524:	681a      	ldr	r2, [r3, #0]
10005526:	1b92      	subs	r2, r2, r6
10005528:	601a      	str	r2, [r3, #0]
	return list->head == list;
1000552a:	4b10      	ldr	r3, [pc, #64]	; (1000556c <sys_clock_announce+0xd4>)
1000552c:	4694      	mov	ip, r2
1000552e:	681c      	ldr	r4, [r3, #0]
	return sys_dlist_is_empty(list) ? NULL : list->head;
10005530:	429c      	cmp	r4, r3
10005532:	d1be      	bne.n	100054b2 <sys_clock_announce+0x1a>
		curr_tick += dt;
10005534:	6838      	ldr	r0, [r7, #0]
10005536:	6879      	ldr	r1, [r7, #4]
	}

	curr_tick += announce_remaining;
10005538:	4662      	mov	r2, ip
1000553a:	17d3      	asrs	r3, r2, #31
1000553c:	1812      	adds	r2, r2, r0
1000553e:	414b      	adcs	r3, r1
	announce_remaining = 0;
10005540:	2400      	movs	r4, #0
	curr_tick += announce_remaining;
10005542:	9903      	ldr	r1, [sp, #12]
	announce_remaining = 0;
10005544:	602c      	str	r4, [r5, #0]
	curr_tick += announce_remaining;
10005546:	600a      	str	r2, [r1, #0]
10005548:	604b      	str	r3, [r1, #4]

	sys_clock_set_timeout(next_timeout(), false);
1000554a:	f7ff fef9 	bl	10005340 <next_timeout>
1000554e:	0021      	movs	r1, r4
10005550:	f7fe febe 	bl	100042d0 <sys_clock_set_timeout>
	if (key != 0U) {
10005554:	9b02      	ldr	r3, [sp, #8]
10005556:	42a3      	cmp	r3, r4
10005558:	d102      	bne.n	10005560 <sys_clock_announce+0xc8>
	__asm__ volatile(
1000555a:	b662      	cpsie	i
1000555c:	f3bf 8f6f 	isb	sy

	k_spin_unlock(&timeout_lock, key);

#ifdef CONFIG_TIMESLICING
	z_time_slice();
10005560:	f7ff fcf8 	bl	10004f54 <z_time_slice>
#endif
}
10005564:	b005      	add	sp, #20
10005566:	bdf0      	pop	{r4, r5, r6, r7, pc}
10005568:	20000290 	.word	0x20000290
1000556c:	200000d0 	.word	0x200000d0
10005570:	200001e0 	.word	0x200001e0

10005574 <sys_clock_tick_get>:

int64_t sys_clock_tick_get(void)
{
10005574:	b510      	push	{r4, lr}
	__asm__ volatile("mrs %0, PRIMASK;"
10005576:	f3ef 8410 	mrs	r4, PRIMASK
1000557a:	b672      	cpsid	i
	uint64_t t = 0U;

	LOCKED(&timeout_lock) {
		t = curr_tick + elapsed();
1000557c:	f7ff fed4 	bl	10005328 <elapsed>
10005580:	0002      	movs	r2, r0
10005582:	4906      	ldr	r1, [pc, #24]	; (1000559c <sys_clock_tick_get+0x28>)
10005584:	17c3      	asrs	r3, r0, #31
10005586:	6808      	ldr	r0, [r1, #0]
10005588:	6849      	ldr	r1, [r1, #4]
1000558a:	1880      	adds	r0, r0, r2
1000558c:	4159      	adcs	r1, r3
	if (key != 0U) {
1000558e:	2c00      	cmp	r4, #0
10005590:	d102      	bne.n	10005598 <sys_clock_tick_get+0x24>
	__asm__ volatile(
10005592:	b662      	cpsie	i
10005594:	f3bf 8f6f 	isb	sy
	}
	return t;
}
10005598:	bd10      	pop	{r4, pc}
1000559a:	46c0      	nop			; (mov r8, r8)
1000559c:	200001e0 	.word	0x200001e0

100055a0 <z_timer_expiration_handler>:
 * @brief Handle expiration of a kernel timer object.
 *
 * @param t  Timeout used by the timer.
 */
void z_timer_expiration_handler(struct _timeout *t)
{
100055a0:	b5f7      	push	{r0, r1, r2, r4, r5, r6, r7, lr}
100055a2:	0004      	movs	r4, r0
	__asm__ volatile("mrs %0, PRIMASK;"
100055a4:	f3ef 8510 	mrs	r5, PRIMASK
100055a8:	b672      	cpsid	i
	 * interrupt. Then, the timeout structure for this timer will turn out
	 * to be linked to the timeout list. And in such case, since the timer
	 * was restarted, its expiration handler should not be executed then,
	 * so the function exits immediately.
	 */
	if (sys_dnode_is_linked(&t->node)) {
100055aa:	6803      	ldr	r3, [r0, #0]
100055ac:	9501      	str	r5, [sp, #4]
100055ae:	2b00      	cmp	r3, #0
100055b0:	d005      	beq.n	100055be <z_timer_expiration_handler+0x1e>
	if (key != 0U) {
100055b2:	2d00      	cmp	r5, #0
100055b4:	d152      	bne.n	1000565c <z_timer_expiration_handler+0xbc>
	__asm__ volatile(
100055b6:	b662      	cpsie	i
100055b8:	f3bf 8f6f 	isb	sy
100055bc:	e04e      	b.n	1000565c <z_timer_expiration_handler+0xbc>

	/*
	 * if the timer is periodic, start it again; don't add _TICK_ALIGN
	 * since we're already aligned to a tick boundary
	 */
	if (!K_TIMEOUT_EQ(timer->period, K_NO_WAIT) &&
100055be:	6a82      	ldr	r2, [r0, #40]	; 0x28
100055c0:	6ac3      	ldr	r3, [r0, #44]	; 0x2c
100055c2:	2100      	movs	r1, #0
100055c4:	2001      	movs	r0, #1
100055c6:	1880      	adds	r0, r0, r2
100055c8:	4159      	adcs	r1, r3
100055ca:	2900      	cmp	r1, #0
100055cc:	d101      	bne.n	100055d2 <z_timer_expiration_handler+0x32>
100055ce:	2801      	cmp	r0, #1
100055d0:	d929      	bls.n	10005626 <z_timer_expiration_handler+0x86>
	    !K_TIMEOUT_EQ(timer->period, K_FOREVER)) {
		k_timeout_t next = timer->period;

		/* see note about z_add_timeout() in z_impl_k_timer_start() */
		next.ticks = MAX(next.ticks - 1, 0);
100055d2:	2b00      	cmp	r3, #0
100055d4:	dc04      	bgt.n	100055e0 <z_timer_expiration_handler+0x40>
100055d6:	d101      	bne.n	100055dc <z_timer_expiration_handler+0x3c>
100055d8:	2a00      	cmp	r2, #0
100055da:	d101      	bne.n	100055e0 <z_timer_expiration_handler+0x40>
100055dc:	2201      	movs	r2, #1
100055de:	2300      	movs	r3, #0
100055e0:	2601      	movs	r6, #1
100055e2:	4276      	negs	r6, r6
100055e4:	17f7      	asrs	r7, r6, #31
100055e6:	18b6      	adds	r6, r6, r2
100055e8:	415f      	adcs	r7, r3
	return z_impl_k_uptime_ticks();
100055ea:	f000 fdf2 	bl	100061d2 <z_impl_k_uptime_ticks>
		 * we "should" have run.  Requires absolute timeouts.
		 * (Note offset by one: we're nominally at the
		 * beginning of a tick, so need to defeat the "round
		 * down" behavior on timeout addition).
		 */
		next = K_TIMEOUT_ABS_TICKS(k_uptime_ticks() + 1 + next.ticks);
100055ee:	2201      	movs	r2, #1
100055f0:	2300      	movs	r3, #0
100055f2:	1880      	adds	r0, r0, r2
100055f4:	4159      	adcs	r1, r3
100055f6:	1980      	adds	r0, r0, r6
100055f8:	4179      	adcs	r1, r7
100055fa:	2900      	cmp	r1, #0
100055fc:	dc02      	bgt.n	10005604 <z_timer_expiration_handler+0x64>
100055fe:	d12e      	bne.n	1000565e <z_timer_expiration_handler+0xbe>
10005600:	2800      	cmp	r0, #0
10005602:	d02c      	beq.n	1000565e <z_timer_expiration_handler+0xbe>
10005604:	f000 fde5 	bl	100061d2 <z_impl_k_uptime_ticks>
10005608:	2201      	movs	r2, #1
1000560a:	2300      	movs	r3, #0
1000560c:	1880      	adds	r0, r0, r2
1000560e:	4159      	adcs	r1, r3
10005610:	2202      	movs	r2, #2
10005612:	4252      	negs	r2, r2
10005614:	17d3      	asrs	r3, r2, #31
10005616:	1980      	adds	r0, r0, r6
10005618:	4179      	adcs	r1, r7
1000561a:	1a12      	subs	r2, r2, r0
1000561c:	418b      	sbcs	r3, r1
#endif
		z_add_timeout(&timer->timeout, z_timer_expiration_handler,
1000561e:	0020      	movs	r0, r4
10005620:	4918      	ldr	r1, [pc, #96]	; (10005684 <z_timer_expiration_handler+0xe4>)
10005622:	f7ff fecb 	bl	100053bc <z_add_timeout>
			      next);
	}

	/* update timer's status */
	timer->status += 1U;
10005626:	6b23      	ldr	r3, [r4, #48]	; 0x30
10005628:	3301      	adds	r3, #1
1000562a:	6323      	str	r3, [r4, #48]	; 0x30

	/* invoke timer expiry function */
	if (timer->expiry_fn != NULL) {
1000562c:	6a23      	ldr	r3, [r4, #32]
1000562e:	2b00      	cmp	r3, #0
10005630:	d00b      	beq.n	1000564a <z_timer_expiration_handler+0xaa>
	if (key != 0U) {
10005632:	2d00      	cmp	r5, #0
10005634:	d102      	bne.n	1000563c <z_timer_expiration_handler+0x9c>
	__asm__ volatile(
10005636:	b662      	cpsie	i
10005638:	f3bf 8f6f 	isb	sy
		/* Unlock for user handler. */
		k_spin_unlock(&lock, key);
		timer->expiry_fn(timer);
1000563c:	0020      	movs	r0, r4
1000563e:	6a23      	ldr	r3, [r4, #32]
10005640:	4798      	blx	r3
	__asm__ volatile("mrs %0, PRIMASK;"
10005642:	f3ef 8310 	mrs	r3, PRIMASK
10005646:	b672      	cpsid	i
10005648:	9301      	str	r3, [sp, #4]
	return list->head == list;
1000564a:	69a5      	ldr	r5, [r4, #24]
1000564c:	3418      	adds	r4, #24
	return sys_dlist_is_empty(list) ? NULL : list->head;
1000564e:	42a5      	cmp	r5, r4
10005650:	d001      	beq.n	10005656 <z_timer_expiration_handler+0xb6>
		return;
	}

	thread = z_waitq_head(&timer->wait_q);

	if (thread == NULL) {
10005652:	2d00      	cmp	r5, #0
10005654:	d107      	bne.n	10005666 <z_timer_expiration_handler+0xc6>
	if (key != 0U) {
10005656:	9b01      	ldr	r3, [sp, #4]
10005658:	2b00      	cmp	r3, #0
1000565a:	d0ac      	beq.n	100055b6 <z_timer_expiration_handler+0x16>
	arch_thread_return_value_set(thread, 0);

	k_spin_unlock(&lock, key);

	z_ready_thread(thread);
}
1000565c:	bdf7      	pop	{r0, r1, r2, r4, r5, r6, r7, pc}
		next = K_TIMEOUT_ABS_TICKS(k_uptime_ticks() + 1 + next.ticks);
1000565e:	2202      	movs	r2, #2
10005660:	4252      	negs	r2, r2
10005662:	17d3      	asrs	r3, r2, #31
10005664:	e7db      	b.n	1000561e <z_timer_expiration_handler+0x7e>
	z_unpend_thread_no_timeout(thread);
10005666:	0028      	movs	r0, r5
10005668:	f000 fd25 	bl	100060b6 <z_unpend_thread_no_timeout>
1000566c:	2300      	movs	r3, #0
1000566e:	66eb      	str	r3, [r5, #108]	; 0x6c
10005670:	9b01      	ldr	r3, [sp, #4]
10005672:	2b00      	cmp	r3, #0
10005674:	d102      	bne.n	1000567c <z_timer_expiration_handler+0xdc>
	__asm__ volatile(
10005676:	b662      	cpsie	i
10005678:	f3bf 8f6f 	isb	sy
	z_ready_thread(thread);
1000567c:	0028      	movs	r0, r5
1000567e:	f000 fd0e 	bl	1000609e <z_ready_thread>
10005682:	e7eb      	b.n	1000565c <z_timer_expiration_handler+0xbc>
10005684:	100055a1 	.word	0x100055a1

10005688 <z_impl_k_timer_start>:
}


void z_impl_k_timer_start(struct k_timer *timer, k_timeout_t duration,
			  k_timeout_t period)
{
10005688:	b570      	push	{r4, r5, r6, lr}
1000568a:	0006      	movs	r6, r0
1000568c:	0014      	movs	r4, r2
1000568e:	001d      	movs	r5, r3
	SYS_PORT_TRACING_OBJ_FUNC(k_timer, start, timer, duration, period);

	if (K_TIMEOUT_EQ(duration, K_FOREVER)) {
10005690:	1c51      	adds	r1, r2, #1
10005692:	d101      	bne.n	10005698 <z_impl_k_timer_start+0x10>
10005694:	1c59      	adds	r1, r3, #1
10005696:	d022      	beq.n	100056de <z_impl_k_timer_start+0x56>
	 * for backwards compatibility.  This is unfortunate
	 * (i.e. k_timer_start() doesn't treat its initial sleep
	 * argument the same way k_sleep() does), but historical.  The
	 * timer_api test relies on this behavior.
	 */
	if (Z_TICK_ABS(duration.ticks) < 0) {
10005698:	2b00      	cmp	r3, #0
1000569a:	da03      	bge.n	100056a4 <z_impl_k_timer_start+0x1c>
1000569c:	1c59      	adds	r1, r3, #1
1000569e:	d10f      	bne.n	100056c0 <z_impl_k_timer_start+0x38>
100056a0:	1c91      	adds	r1, r2, #2
100056a2:	d90d      	bls.n	100056c0 <z_impl_k_timer_start+0x38>
		duration.ticks = MAX(duration.ticks - 1, 0);
100056a4:	0014      	movs	r4, r2
100056a6:	1e1d      	subs	r5, r3, #0
100056a8:	dc05      	bgt.n	100056b6 <z_impl_k_timer_start+0x2e>
100056aa:	2b00      	cmp	r3, #0
100056ac:	d101      	bne.n	100056b2 <z_impl_k_timer_start+0x2a>
100056ae:	2a00      	cmp	r2, #0
100056b0:	d101      	bne.n	100056b6 <z_impl_k_timer_start+0x2e>
100056b2:	2401      	movs	r4, #1
100056b4:	2500      	movs	r5, #0
100056b6:	2201      	movs	r2, #1
100056b8:	4252      	negs	r2, r2
100056ba:	17d3      	asrs	r3, r2, #31
100056bc:	18a4      	adds	r4, r4, r2
100056be:	415d      	adcs	r5, r3
	}

	(void)z_abort_timeout(&timer->timeout);
100056c0:	0030      	movs	r0, r6
100056c2:	f000 fd6f 	bl	100061a4 <z_abort_timeout>
	timer->period = period;
100056c6:	9a04      	ldr	r2, [sp, #16]
100056c8:	9b05      	ldr	r3, [sp, #20]
100056ca:	62b2      	str	r2, [r6, #40]	; 0x28
100056cc:	62f3      	str	r3, [r6, #44]	; 0x2c
	timer->status = 0U;
100056ce:	2300      	movs	r3, #0

	z_add_timeout(&timer->timeout, z_timer_expiration_handler,
100056d0:	0022      	movs	r2, r4
	timer->status = 0U;
100056d2:	6333      	str	r3, [r6, #48]	; 0x30
	z_add_timeout(&timer->timeout, z_timer_expiration_handler,
100056d4:	0030      	movs	r0, r6
100056d6:	002b      	movs	r3, r5
100056d8:	4901      	ldr	r1, [pc, #4]	; (100056e0 <z_impl_k_timer_start+0x58>)
100056da:	f7ff fe6f 	bl	100053bc <z_add_timeout>
		     duration);
}
100056de:	bd70      	pop	{r4, r5, r6, pc}
100056e0:	100055a1 	.word	0x100055a1

100056e4 <boot_banner>:
#else
#define BANNER_VERSION KERNEL_VERSION_STRING
#endif

void boot_banner(void)
{
100056e4:	b510      	push	{r4, lr}
	printk("***** delaying boot " DELAY_STR "ms (per build configuration) *****\n");
	k_busy_wait(CONFIG_BOOT_DELAY * USEC_PER_MSEC);
#endif /* defined(CONFIG_BOOT_DELAY) && (CONFIG_BOOT_DELAY > 0) */

#if CONFIG_BOOT_BANNER
	printk("*** Booting Zephyr OS build " BANNER_VERSION BANNER_POSTFIX " ***\n");
100056e6:	4802      	ldr	r0, [pc, #8]	; (100056f0 <boot_banner+0xc>)
100056e8:	f000 f83b 	bl	10005762 <printk>
#endif /* CONFIG_BOOT_BANNER */
}
100056ec:	bd10      	pop	{r4, pc}
100056ee:	46c0      	nop			; (mov r8, r8)
100056f0:	10006bf5 	.word	0x10006bf5

100056f4 <_OffsetAbsSyms>:

#include <gen_offset.h>

#include "offsets_aarch32.c"

GEN_ABS_SYM_END
100056f4:	4770      	bx	lr

100056f6 <cbpprintf_external>:
}

int cbpprintf_external(cbprintf_cb out,
		       cbvprintf_external_formatter_func formatter,
		       void *ctx, void *packaged)
{
100056f6:	b5f0      	push	{r4, r5, r6, r7, lr}
100056f8:	b085      	sub	sp, #20
100056fa:	000d      	movs	r5, r1
100056fc:	1e1c      	subs	r4, r3, #0
100056fe:	9002      	str	r0, [sp, #8]
10005700:	9203      	str	r2, [sp, #12]
	uint8_t *buf = packaged;
	struct cbprintf_package_hdr_ext *hdr = packaged;
	char *s, **ps;
	unsigned int i, args_size, s_nbr, ros_nbr, rws_nbr, s_idx;

	if (buf == NULL) {
10005702:	d029      	beq.n	10005758 <cbpprintf_external+0x62>
	s = (char *)(buf + args_size + ros_nbr + 2 * rws_nbr);

	/*
	 * Patch in string pointers.
	 */
	for (i = 0; i < s_nbr; i++) {
10005704:	2600      	movs	r6, #0
	s_nbr     = hdr->hdr.desc.str_cnt;
10005706:	785b      	ldrb	r3, [r3, #1]
10005708:	9301      	str	r3, [sp, #4]
	rws_nbr   = hdr->hdr.desc.rw_str_cnt;
1000570a:	78e0      	ldrb	r0, [r4, #3]
	args_size = hdr->hdr.desc.len * sizeof(int);
1000570c:	7823      	ldrb	r3, [r4, #0]
	s = (char *)(buf + args_size + ros_nbr + 2 * rws_nbr);
1000570e:	0040      	lsls	r0, r0, #1
	args_size = hdr->hdr.desc.len * sizeof(int);
10005710:	009b      	lsls	r3, r3, #2
	s = (char *)(buf + args_size + ros_nbr + 2 * rws_nbr);
10005712:	18c0      	adds	r0, r0, r3
	ros_nbr   = hdr->hdr.desc.ro_str_cnt;
10005714:	78a3      	ldrb	r3, [r4, #2]
	s = (char *)(buf + args_size + ros_nbr + 2 * rws_nbr);
10005716:	18c0      	adds	r0, r0, r3
10005718:	1820      	adds	r0, r4, r0
	for (i = 0; i < s_nbr; i++) {
1000571a:	9b01      	ldr	r3, [sp, #4]
1000571c:	429e      	cmp	r6, r3
1000571e:	d310      	bcc.n	10005742 <cbpprintf_external+0x4c>

	/* Skip past the header */
	buf += sizeof(*hdr);

	/* Turn this into a va_list and  print it */
	return cbprintf_via_va_list(out, formatter, ctx, hdr->fmt, buf);
10005720:	7962      	ldrb	r2, [r4, #5]
10005722:	7923      	ldrb	r3, [r4, #4]
10005724:	0212      	lsls	r2, r2, #8
10005726:	431a      	orrs	r2, r3
10005728:	79a3      	ldrb	r3, [r4, #6]
	return formatter(out, ctx, fmt, u.ap);
1000572a:	9903      	ldr	r1, [sp, #12]
	return cbprintf_via_va_list(out, formatter, ctx, hdr->fmt, buf);
1000572c:	041b      	lsls	r3, r3, #16
1000572e:	4313      	orrs	r3, r2
10005730:	79e2      	ldrb	r2, [r4, #7]
	return formatter(out, ctx, fmt, u.ap);
10005732:	9802      	ldr	r0, [sp, #8]
	return cbprintf_via_va_list(out, formatter, ctx, hdr->fmt, buf);
10005734:	0612      	lsls	r2, r2, #24
10005736:	431a      	orrs	r2, r3
	buf += sizeof(*hdr);
10005738:	0023      	movs	r3, r4
1000573a:	3308      	adds	r3, #8
	return formatter(out, ctx, fmt, u.ap);
1000573c:	47a8      	blx	r5
}
1000573e:	b005      	add	sp, #20
10005740:	bdf0      	pop	{r4, r5, r6, r7, pc}
		s_idx = *(uint8_t *)s++;
10005742:	7803      	ldrb	r3, [r0, #0]
10005744:	1c47      	adds	r7, r0, #1
		*ps = s;
10005746:	009b      	lsls	r3, r3, #2
		s += strlen(s) + 1;
10005748:	0038      	movs	r0, r7
		*ps = s;
1000574a:	511f      	str	r7, [r3, r4]
		s += strlen(s) + 1;
1000574c:	f000 f92d 	bl	100059aa <strlen>
10005750:	3001      	adds	r0, #1
10005752:	1838      	adds	r0, r7, r0
	for (i = 0; i < s_nbr; i++) {
10005754:	3601      	adds	r6, #1
10005756:	e7e0      	b.n	1000571a <cbpprintf_external+0x24>
		return -EINVAL;
10005758:	2016      	movs	r0, #22
1000575a:	4240      	negs	r0, r0
1000575c:	e7ef      	b.n	1000573e <cbpprintf_external+0x48>

1000575e <arch_printk_char_out>:
}
1000575e:	2000      	movs	r0, #0
10005760:	4770      	bx	lr

10005762 <printk>:
 *
 * @param fmt formatted string to output
 */

void printk(const char *fmt, ...)
{
10005762:	b40f      	push	{r0, r1, r2, r3}
10005764:	b507      	push	{r0, r1, r2, lr}
10005766:	a904      	add	r1, sp, #16
10005768:	c901      	ldmia	r1!, {r0}
	va_list ap;

	va_start(ap, fmt);
1000576a:	9101      	str	r1, [sp, #4]
		z_log_vprintk(fmt, ap);
1000576c:	f000 f888 	bl	10005880 <z_log_vprintk>

	vprintk(fmt, ap);

	va_end(ap);
}
10005770:	b003      	add	sp, #12
10005772:	bc08      	pop	{r3}
10005774:	b004      	add	sp, #16
10005776:	4718      	bx	r3

10005778 <z_thread_entry>:
 * This routine does not return, and is marked as such so the compiler won't
 * generate preamble code that is only used by functions that actually return.
 */
FUNC_NORETURN void z_thread_entry(k_thread_entry_t entry,
				 void *p1, void *p2, void *p3)
{
10005778:	b510      	push	{r4, lr}
1000577a:	0004      	movs	r4, r0
1000577c:	0008      	movs	r0, r1
1000577e:	0011      	movs	r1, r2
10005780:	001a      	movs	r2, r3
#ifdef CONFIG_THREAD_LOCAL_STORAGE
	z_tls_current = z_current_get();
#endif
	entry(p1, p2, p3);
10005782:	47a0      	blx	r4
	return z_impl_z_current_get();
10005784:	f7ff fd54 	bl	10005230 <z_impl_z_current_get>
	z_impl_k_thread_abort(thread);
10005788:	f7fe f96e 	bl	10003a68 <z_impl_k_thread_abort>

1000578c <encode_uint>:
{
1000578c:	b5f0      	push	{r4, r5, r6, r7, lr}
1000578e:	b085      	sub	sp, #20
10005790:	9001      	str	r0, [sp, #4]
10005792:	9303      	str	r3, [sp, #12]
	bool upcase = isupper((int)conv->specifier);
10005794:	78d3      	ldrb	r3, [r2, #3]
{
10005796:	0015      	movs	r5, r2
	return (int)(((unsigned)(a)-(unsigned)'A') < 26U);
10005798:	001a      	movs	r2, r3
1000579a:	3a41      	subs	r2, #65	; 0x41
1000579c:	000f      	movs	r7, r1
	switch (specifier) {
1000579e:	2408      	movs	r4, #8
100057a0:	9202      	str	r2, [sp, #8]
100057a2:	2b6f      	cmp	r3, #111	; 0x6f
100057a4:	d00a      	beq.n	100057bc <encode_uint+0x30>
100057a6:	d804      	bhi.n	100057b2 <encode_uint+0x26>
		return 16;
100057a8:	1924      	adds	r4, r4, r4
	switch (specifier) {
100057aa:	2b58      	cmp	r3, #88	; 0x58
100057ac:	d006      	beq.n	100057bc <encode_uint+0x30>
		return 10;
100057ae:	3c06      	subs	r4, #6
100057b0:	e004      	b.n	100057bc <encode_uint+0x30>
	switch (specifier) {
100057b2:	2208      	movs	r2, #8
		return 16;
100057b4:	2410      	movs	r4, #16
	switch (specifier) {
100057b6:	4393      	bics	r3, r2
100057b8:	2b70      	cmp	r3, #112	; 0x70
100057ba:	d1f8      	bne.n	100057ae <encode_uint+0x22>
	char *bp = bps + (bpe - bps);
100057bc:	9e0a      	ldr	r6, [sp, #40]	; 0x28
		unsigned int lsv = (unsigned int)(value % radix);
100057be:	0022      	movs	r2, r4
100057c0:	2300      	movs	r3, #0
100057c2:	0039      	movs	r1, r7
100057c4:	9801      	ldr	r0, [sp, #4]
100057c6:	f7fa fe1b 	bl	10000400 <__aeabi_uldivmod>
		*--bp = (lsv <= 9) ? ('0' + lsv)
100057ca:	0013      	movs	r3, r2
100057cc:	468c      	mov	ip, r1
100057ce:	b2d2      	uxtb	r2, r2
100057d0:	2b09      	cmp	r3, #9
100057d2:	d81a      	bhi.n	1000580a <encode_uint+0x7e>
100057d4:	3230      	adds	r2, #48	; 0x30
100057d6:	b2d3      	uxtb	r3, r2
100057d8:	3e01      	subs	r6, #1
100057da:	7033      	strb	r3, [r6, #0]
	} while ((value != 0) && (bps < bp));
100057dc:	2300      	movs	r3, #0
100057de:	42bb      	cmp	r3, r7
100057e0:	d102      	bne.n	100057e8 <encode_uint+0x5c>
100057e2:	9b01      	ldr	r3, [sp, #4]
100057e4:	429c      	cmp	r4, r3
100057e6:	d802      	bhi.n	100057ee <encode_uint+0x62>
100057e8:	9b03      	ldr	r3, [sp, #12]
100057ea:	429e      	cmp	r6, r3
100057ec:	d80a      	bhi.n	10005804 <encode_uint+0x78>
	if (conv->flag_hash) {
100057ee:	782b      	ldrb	r3, [r5, #0]
100057f0:	069b      	lsls	r3, r3, #26
100057f2:	d504      	bpl.n	100057fe <encode_uint+0x72>
		if (radix == 8) {
100057f4:	2c08      	cmp	r4, #8
100057f6:	d110      	bne.n	1000581a <encode_uint+0x8e>
			conv->altform_0 = true;
100057f8:	78ab      	ldrb	r3, [r5, #2]
100057fa:	4323      	orrs	r3, r4
100057fc:	70ab      	strb	r3, [r5, #2]
}
100057fe:	0030      	movs	r0, r6
10005800:	b005      	add	sp, #20
10005802:	bdf0      	pop	{r4, r5, r6, r7, pc}
		value /= radix;
10005804:	4667      	mov	r7, ip
10005806:	9001      	str	r0, [sp, #4]
10005808:	e7d9      	b.n	100057be <encode_uint+0x32>
		*--bp = (lsv <= 9) ? ('0' + lsv)
1000580a:	0013      	movs	r3, r2
1000580c:	9902      	ldr	r1, [sp, #8]
1000580e:	3357      	adds	r3, #87	; 0x57
10005810:	b2db      	uxtb	r3, r3
10005812:	2919      	cmp	r1, #25
10005814:	d8e0      	bhi.n	100057d8 <encode_uint+0x4c>
10005816:	3237      	adds	r2, #55	; 0x37
10005818:	e7dd      	b.n	100057d6 <encode_uint+0x4a>
		} else if (radix == 16) {
1000581a:	2c10      	cmp	r4, #16
1000581c:	d1ef      	bne.n	100057fe <encode_uint+0x72>
			conv->altform_0c = true;
1000581e:	78ab      	ldrb	r3, [r5, #2]
10005820:	431c      	orrs	r4, r3
10005822:	70ac      	strb	r4, [r5, #2]
	return bp;
10005824:	e7eb      	b.n	100057fe <encode_uint+0x72>

10005826 <outs>:
{
10005826:	b5f7      	push	{r0, r1, r2, r4, r5, r6, r7, lr}
10005828:	0007      	movs	r7, r0
1000582a:	0015      	movs	r5, r2
1000582c:	001e      	movs	r6, r3
	while ((sp < ep) || ((ep == NULL) && *sp)) {
1000582e:	0014      	movs	r4, r2
{
10005830:	9101      	str	r1, [sp, #4]
	while ((sp < ep) || ((ep == NULL) && *sp)) {
10005832:	42a6      	cmp	r6, r4
10005834:	d806      	bhi.n	10005844 <outs+0x1e>
10005836:	2e00      	cmp	r6, #0
10005838:	d001      	beq.n	1000583e <outs+0x18>
	return (int)count;
1000583a:	1b60      	subs	r0, r4, r5
1000583c:	e008      	b.n	10005850 <outs+0x2a>
	while ((sp < ep) || ((ep == NULL) && *sp)) {
1000583e:	7823      	ldrb	r3, [r4, #0]
10005840:	2b00      	cmp	r3, #0
10005842:	d0fa      	beq.n	1000583a <outs+0x14>
		int rc = out((int)*sp++, ctx);
10005844:	7820      	ldrb	r0, [r4, #0]
10005846:	9901      	ldr	r1, [sp, #4]
10005848:	47b8      	blx	r7
		if (rc < 0) {
1000584a:	3401      	adds	r4, #1
1000584c:	2800      	cmp	r0, #0
1000584e:	daf0      	bge.n	10005832 <outs+0xc>
}
10005850:	bdfe      	pop	{r1, r2, r3, r4, r5, r6, r7, pc}

10005852 <_ConfigAbsSyms>:
GEN_ABSOLUTE_SYM_KCONFIG(CONFIG_BUILD_OUTPUT_UF2_FAMILY_ID, 1);
GEN_ABSOLUTE_SYM_KCONFIG(CONFIG_WARN_DEPRECATED, 1);
GEN_ABSOLUTE_SYM_KCONFIG(CONFIG_ENFORCE_ZEPHYR_STDINT, 1);
GEN_ABSOLUTE_SYM_KCONFIG(CONFIG_COMPAT_INCLUDES, 1);

GEN_ABS_SYM_END
10005852:	4770      	bx	lr

10005854 <dummy_timestamp>:
}
10005854:	2000      	movs	r0, #0
10005856:	4770      	bx	lr

10005858 <default_lf_get_timestamp>:
{
10005858:	b510      	push	{r4, lr}
	return z_impl_k_uptime_ticks();
1000585a:	f000 fcba 	bl	100061d2 <z_impl_k_uptime_ticks>
1000585e:	220a      	movs	r2, #10
10005860:	2300      	movs	r3, #0
10005862:	f7fa fdcd 	bl	10000400 <__aeabi_uldivmod>
}
10005866:	bd10      	pop	{r4, pc}

10005868 <atomic_inc>:
__syscall atomic_val_t atomic_add(atomic_t *target, atomic_val_t value);

__syscall atomic_val_t atomic_sub(atomic_t *target, atomic_val_t value);

static inline atomic_val_t atomic_inc(atomic_t *target)
{
10005868:	b510      	push	{r4, lr}
	return z_impl_atomic_add(target, value);
1000586a:	2101      	movs	r1, #1
1000586c:	f000 fcce 	bl	1000620c <z_impl_atomic_add>
	return atomic_add(target, 1);

}
10005870:	bd10      	pop	{r4, pc}

10005872 <enable_logger>:
				COND_CODE_1(CONFIG_LOG_PROCESS_THREAD,
					K_MSEC(CONFIG_LOG_PROCESS_THREAD_STARTUP_DELAY_MS),
					K_NO_WAIT));
		k_thread_name_set(&logging_thread, "logging");
	} else {
		(void)z_log_init(false, false);
10005872:	2100      	movs	r1, #0
{
10005874:	b510      	push	{r4, lr}
		(void)z_log_init(false, false);
10005876:	0008      	movs	r0, r1
10005878:	f7fd fbb0 	bl	10002fdc <z_log_init.isra.0>
	}

	return 0;
}
1000587c:	2000      	movs	r0, #0
1000587e:	bd10      	pop	{r4, pc}

10005880 <z_log_vprintk>:
{
10005880:	b51f      	push	{r0, r1, r2, r3, r4, lr}
10005882:	9002      	str	r0, [sp, #8]
10005884:	2000      	movs	r0, #0
10005886:	9103      	str	r1, [sp, #12]
10005888:	0003      	movs	r3, r0
1000588a:	0002      	movs	r2, r0
1000588c:	0001      	movs	r1, r0
1000588e:	9001      	str	r0, [sp, #4]
10005890:	9000      	str	r0, [sp, #0]
10005892:	f7fd fca5 	bl	100031e0 <z_impl_z_log_msg_runtime_vcreate>
}
10005896:	b005      	add	sp, #20
10005898:	bd00      	pop	{pc}

1000589a <z_log_notify_backend_enabled>:
}
1000589a:	4770      	bx	lr

1000589c <z_log_get_tag>:
}
1000589c:	2000      	movs	r0, #0
1000589e:	4770      	bx	lr

100058a0 <z_log_msg_finalize>:
{
100058a0:	b570      	push	{r4, r5, r6, lr}
100058a2:	000e      	movs	r6, r1
100058a4:	0004      	movs	r4, r0
100058a6:	0015      	movs	r5, r2
100058a8:	0019      	movs	r1, r3
	if (!msg) {
100058aa:	2800      	cmp	r0, #0
100058ac:	d102      	bne.n	100058b4 <z_log_msg_finalize+0x14>
		z_log_dropped(false);
100058ae:	f7fd fc49 	bl	10003144 <z_log_dropped>
}
100058b2:	bd70      	pop	{r4, r5, r6, pc}
	if (data) {
100058b4:	2b00      	cmp	r3, #0
100058b6:	d006      	beq.n	100058c6 <z_log_msg_finalize+0x26>
		uint8_t *d = msg->data + desc.package_len;
100058b8:	032b      	lsls	r3, r5, #12
100058ba:	0d5b      	lsrs	r3, r3, #21
100058bc:	3010      	adds	r0, #16
		memcpy(d, data, desc.data_len);
100058be:	0d12      	lsrs	r2, r2, #20
		uint8_t *d = msg->data + desc.package_len;
100058c0:	18c0      	adds	r0, r0, r3
		memcpy(d, data, desc.data_len);
100058c2:	f000 f884 	bl	100059ce <memcpy>
	z_log_msg_commit(msg);
100058c6:	0020      	movs	r0, r4
	msg->hdr.desc = desc;
100058c8:	6025      	str	r5, [r4, #0]
	msg->hdr.source = source;
100058ca:	6066      	str	r6, [r4, #4]
	z_log_msg_commit(msg);
100058cc:	f7fd fc4a 	bl	10003164 <z_log_msg_commit>
100058d0:	e7ef      	b.n	100058b2 <z_log_msg_finalize+0x12>

100058d2 <out_func>:
{
100058d2:	b513      	push	{r0, r1, r4, lr}
		char x = (char)c;
100058d4:	466b      	mov	r3, sp
		out_ctx->func((uint8_t *)&x, 1, out_ctx->control_block->ctx);
100058d6:	684a      	ldr	r2, [r1, #4]
		char x = (char)c;
100058d8:	71d8      	strb	r0, [r3, #7]
100058da:	3307      	adds	r3, #7
		out_ctx->func((uint8_t *)&x, 1, out_ctx->control_block->ctx);
100058dc:	680c      	ldr	r4, [r1, #0]
100058de:	0018      	movs	r0, r3
100058e0:	2101      	movs	r1, #1
100058e2:	6852      	ldr	r2, [r2, #4]
100058e4:	47a0      	blx	r4
}
100058e6:	2000      	movs	r0, #0
100058e8:	bd16      	pop	{r1, r2, r4, pc}

100058ea <cr_out_func>:
{
100058ea:	b570      	push	{r4, r5, r6, lr}
100058ec:	0004      	movs	r4, r0
100058ee:	000d      	movs	r5, r1
	if (c == '\n') {
100058f0:	280a      	cmp	r0, #10
100058f2:	d102      	bne.n	100058fa <cr_out_func+0x10>
		out_func((int)'\r', ctx);
100058f4:	200d      	movs	r0, #13
100058f6:	f7ff ffec 	bl	100058d2 <out_func>
	out_func(c, ctx);
100058fa:	0029      	movs	r1, r5
100058fc:	0020      	movs	r0, r4
100058fe:	f7ff ffe8 	bl	100058d2 <out_func>
}
10005902:	2000      	movs	r0, #0
10005904:	bd70      	pop	{r4, r5, r6, pc}

10005906 <buffer_write>:
{
10005906:	b5f8      	push	{r3, r4, r5, r6, r7, lr}
10005908:	0006      	movs	r6, r0
1000590a:	000d      	movs	r5, r1
1000590c:	0014      	movs	r4, r2
1000590e:	001f      	movs	r7, r3
		processed = outf(buf, len, ctx);
10005910:	0021      	movs	r1, r4
10005912:	0028      	movs	r0, r5
10005914:	003a      	movs	r2, r7
10005916:	47b0      	blx	r6
		len -= processed;
10005918:	1a24      	subs	r4, r4, r0
		buf += processed;
1000591a:	182d      	adds	r5, r5, r0
	} while (len != 0);
1000591c:	2c00      	cmp	r4, #0
1000591e:	d1f7      	bne.n	10005910 <buffer_write+0xa>
}
10005920:	bdf8      	pop	{r3, r4, r5, r6, r7, pc}

10005922 <cbvprintf>:
{
10005922:	b513      	push	{r0, r1, r4, lr}
	return z_cbvprintf_impl(out, ctx, format, ap, 0);
10005924:	2400      	movs	r4, #0
10005926:	9400      	str	r4, [sp, #0]
10005928:	f7fc ffc4 	bl	100028b4 <z_cbvprintf_impl>
}
1000592c:	bd16      	pop	{r1, r2, r4, pc}

1000592e <log_output_flush>:
{
1000592e:	b510      	push	{r4, lr}
		     output->control_block->offset,
10005930:	6842      	ldr	r2, [r0, #4]
{
10005932:	0004      	movs	r4, r0
	buffer_write(output->func, output->buf,
10005934:	ca0c      	ldmia	r2, {r2, r3}
10005936:	6881      	ldr	r1, [r0, #8]
10005938:	6800      	ldr	r0, [r0, #0]
1000593a:	f7ff ffe4 	bl	10005906 <buffer_write>
	output->control_block->offset = 0;
1000593e:	2200      	movs	r2, #0
10005940:	6863      	ldr	r3, [r4, #4]
10005942:	601a      	str	r2, [r3, #0]
}
10005944:	bd10      	pop	{r4, pc}

10005946 <log_backend_uart_init>:
}
10005946:	4770      	bx	lr

10005948 <z_log_msg_runtime_create.constprop.0>:
static inline void z_log_msg_runtime_create(uint8_t domain_id,
10005948:	b57f      	push	{r0, r1, r2, r3, r4, r5, r6, lr}
	va_start(ap, fmt);
1000594a:	ab0b      	add	r3, sp, #44	; 0x2c
1000594c:	9305      	str	r3, [sp, #20]
1000594e:	2000      	movs	r0, #0
10005950:	9303      	str	r3, [sp, #12]
10005952:	9b0a      	ldr	r3, [sp, #40]	; 0x28
10005954:	2201      	movs	r2, #1
10005956:	9302      	str	r3, [sp, #8]
10005958:	9001      	str	r0, [sp, #4]
1000595a:	0003      	movs	r3, r0
1000595c:	9000      	str	r0, [sp, #0]
1000595e:	f7fd fc3f 	bl	100031e0 <z_impl_z_log_msg_runtime_vcreate>
}
10005962:	b007      	add	sp, #28
10005964:	bd00      	pop	{pc}

10005966 <z_do_kernel_oops>:
 *
 * @param esf exception frame
 * @param callee_regs Callee-saved registers (R4-R11)
 */
void z_do_kernel_oops(const z_arch_esf_t *esf, _callee_saved_t *callee_regs)
{
10005966:	b510      	push	{r4, lr}
10005968:	0001      	movs	r1, r0
	}

#endif /* CONFIG_USERSPACE */

#if !defined(CONFIG_EXTRA_EXCEPTION_INFO)
	z_arm_fatal_error(reason, esf);
1000596a:	6800      	ldr	r0, [r0, #0]
1000596c:	f7fd fe7e 	bl	1000366c <z_arm_fatal_error>
	esf_copy.extra_info = (struct __extra_esf_info) { 0 };
#endif /* CONFIG_ARMV7_M_ARMV8_M_MAINLINE */

	z_arm_fatal_error(reason, &esf_copy);
#endif /* CONFIG_EXTRA_EXCEPTION_INFO */
}
10005970:	bd10      	pop	{r4, pc}

10005972 <z_irq_spurious>:
 * Installed in all _sw_isr_table slots at boot time. Throws an error if
 * called.
 *
 */
void z_irq_spurious(const void *unused)
{
10005972:	b510      	push	{r4, lr}
	ARG_UNUSED(unused);

	z_arm_fatal_error(K_ERR_SPURIOUS_IRQ, NULL);
10005974:	2100      	movs	r1, #0
10005976:	2001      	movs	r0, #1
10005978:	f7fd fe78 	bl	1000366c <z_arm_fatal_error>
}
1000597c:	bd10      	pop	{r4, pc}

1000597e <z_arm_nmi>:
 * Simply call what is installed in 'static void(*handler)(void)'.
 *
 */

void z_arm_nmi(void)
{
1000597e:	b510      	push	{r4, lr}
	handler();
10005980:	f7fd fefa 	bl	10003778 <z_SysNmiOnReset>
	z_arm_int_exit();
10005984:	f7fd ffa4 	bl	100038d0 <z_arm_exc_exit>
}
10005988:	bd10      	pop	{r4, pc}

1000598a <z_log_msg_runtime_create.constprop.0>:
static inline void z_log_msg_runtime_create(uint8_t domain_id,
1000598a:	b57f      	push	{r0, r1, r2, r3, r4, r5, r6, lr}
	va_start(ap, fmt);
1000598c:	ab0b      	add	r3, sp, #44	; 0x2c
1000598e:	9305      	str	r3, [sp, #20]
10005990:	2000      	movs	r0, #0
10005992:	9303      	str	r3, [sp, #12]
10005994:	9b0a      	ldr	r3, [sp, #40]	; 0x28
10005996:	2201      	movs	r2, #1
10005998:	9302      	str	r3, [sp, #8]
1000599a:	9001      	str	r0, [sp, #4]
1000599c:	0003      	movs	r3, r0
1000599e:	9000      	str	r0, [sp, #0]
100059a0:	f7fd fc1e 	bl	100031e0 <z_impl_z_log_msg_runtime_vcreate>
}
100059a4:	b007      	add	sp, #28
100059a6:	bd00      	pop	{pc}

100059a8 <z_arm_fault_init>:
	SCB->CCR |= SCB_CCR_STKOFHFNMIGN_Msk;
#endif /* CONFIG_BUILTIN_STACK_GUARD */
#ifdef CONFIG_TRAP_UNALIGNED_ACCESS
	SCB->CCR |= SCB_CCR_UNALIGN_TRP_Msk;
#endif /* CONFIG_TRAP_UNALIGNED_ACCESS */
}
100059a8:	4770      	bx	lr

100059aa <strlen>:
 *
 * @return number of bytes in string <s>
 */

size_t strlen(const char *s)
{
100059aa:	0003      	movs	r3, r0
	size_t n = 0;
100059ac:	2000      	movs	r0, #0

	while (*s != '\0') {
100059ae:	5c1a      	ldrb	r2, [r3, r0]
100059b0:	2a00      	cmp	r2, #0
100059b2:	d100      	bne.n	100059b6 <strlen+0xc>
		s++;
		n++;
	}

	return n;
}
100059b4:	4770      	bx	lr
		n++;
100059b6:	3001      	adds	r0, #1
100059b8:	e7f9      	b.n	100059ae <strlen+0x4>

100059ba <strnlen>:
 *
 * @return number of bytes in fixed-size string <s>
 */

size_t strnlen(const char *s, size_t maxlen)
{
100059ba:	0003      	movs	r3, r0
	size_t n = 0;
100059bc:	2000      	movs	r0, #0

	while (*s != '\0' && n < maxlen) {
100059be:	5c1a      	ldrb	r2, [r3, r0]
100059c0:	2a00      	cmp	r2, #0
100059c2:	d001      	beq.n	100059c8 <strnlen+0xe>
100059c4:	4288      	cmp	r0, r1
100059c6:	d100      	bne.n	100059ca <strnlen+0x10>
		s++;
		n++;
	}

	return n;
}
100059c8:	4770      	bx	lr
		n++;
100059ca:	3001      	adds	r0, #1
100059cc:	e7f7      	b.n	100059be <strnlen+0x4>

100059ce <memcpy>:
	}
#endif

	/* do byte-sized copying until finished */

	while (n > 0) {
100059ce:	2300      	movs	r3, #0
{
100059d0:	b510      	push	{r4, lr}
	while (n > 0) {
100059d2:	429a      	cmp	r2, r3
100059d4:	d100      	bne.n	100059d8 <memcpy+0xa>
		*(d_byte++) = *(s_byte++);
		n--;
	}

	return d;
}
100059d6:	bd10      	pop	{r4, pc}
		*(d_byte++) = *(s_byte++);
100059d8:	5ccc      	ldrb	r4, [r1, r3]
100059da:	54c4      	strb	r4, [r0, r3]
		n--;
100059dc:	3301      	adds	r3, #1
100059de:	e7f8      	b.n	100059d2 <memcpy+0x4>

100059e0 <memset>:
void *memset(void *buf, int c, size_t n)
{
	/* do byte-sized initialization until word-aligned or finished */

	unsigned char *d_byte = (unsigned char *)buf;
	unsigned char c_byte = (unsigned char)c;
100059e0:	0003      	movs	r3, r0
100059e2:	b2c9      	uxtb	r1, r1
	/* do byte-sized initialization until finished */

	d_byte = (unsigned char *)d_word;
#endif

	while (n > 0) {
100059e4:	1882      	adds	r2, r0, r2
100059e6:	4293      	cmp	r3, r2
100059e8:	d100      	bne.n	100059ec <memset+0xc>
		*(d_byte++) = c_byte;
		n--;
	}

	return buf;
}
100059ea:	4770      	bx	lr
		*(d_byte++) = c_byte;
100059ec:	7019      	strb	r1, [r3, #0]
		n--;
100059ee:	3301      	adds	r3, #1
100059f0:	e7f9      	b.n	100059e6 <memset+0x6>

100059f2 <_stdout_hook_default>:
	return EOF;
100059f2:	2001      	movs	r0, #1
}
100059f4:	4240      	negs	r0, r0
100059f6:	4770      	bx	lr

100059f8 <adc_rpi_configure_func_0>:
			      &adc_rpi_data_##idx,				   \
			      &adc_rpi_config_##idx, POST_KERNEL,		   \
			      CONFIG_ADC_INIT_PRIORITY,				   \
			      &adc_rpi_api_##idx)

DT_INST_FOREACH_STATUS_OKAY(ADC_RPI_INIT);
100059f8:	b510      	push	{r4, lr}
100059fa:	2200      	movs	r2, #0
100059fc:	2103      	movs	r1, #3
100059fe:	2016      	movs	r0, #22
10005a00:	f7fd fe90 	bl	10003724 <z_arm_irq_priority_set>
10005a04:	2016      	movs	r0, #22
10005a06:	f7fd fe81 	bl	1000370c <arch_irq_enable>
10005a0a:	bd10      	pop	{r4, pc}

10005a0c <z_log_msg_runtime_create.constprop.0>:
static inline void z_log_msg_runtime_create(uint8_t domain_id,
10005a0c:	b57f      	push	{r0, r1, r2, r3, r4, r5, r6, lr}
	va_start(ap, fmt);
10005a0e:	ab0b      	add	r3, sp, #44	; 0x2c
10005a10:	9305      	str	r3, [sp, #20]
10005a12:	2000      	movs	r0, #0
10005a14:	9303      	str	r3, [sp, #12]
10005a16:	9b0a      	ldr	r3, [sp, #40]	; 0x28
10005a18:	2201      	movs	r2, #1
10005a1a:	9302      	str	r3, [sp, #8]
10005a1c:	9001      	str	r0, [sp, #4]
10005a1e:	0003      	movs	r3, r0
10005a20:	9000      	str	r0, [sp, #0]
10005a22:	f7fd fbdd 	bl	100031e0 <z_impl_z_log_msg_runtime_vcreate>
}
10005a26:	b007      	add	sp, #28
10005a28:	bd00      	pop	{pc}

10005a2a <adc_context_on_timer_expired>:
{
10005a2a:	b510      	push	{r4, lr}
10005a2c:	0004      	movs	r4, r0
	if (atomic_inc(&ctx->sampling_requested) == 0) {
10005a2e:	3c08      	subs	r4, #8
10005a30:	2101      	movs	r1, #1
10005a32:	0020      	movs	r0, r4
10005a34:	f000 fbea 	bl	1000620c <z_impl_atomic_add>
10005a38:	2800      	cmp	r0, #0
10005a3a:	d103      	bne.n	10005a44 <adc_context_on_timer_expired+0x1a>
		adc_context_start_sampling(ctx);
10005a3c:	0020      	movs	r0, r4
10005a3e:	f7fe f8ef 	bl	10003c20 <adc_context_start_sampling>
}
10005a42:	bd10      	pop	{r4, pc}
		ctx->status = -EBUSY;
10005a44:	2310      	movs	r3, #16
10005a46:	425b      	negs	r3, r3
10005a48:	6623      	str	r3, [r4, #96]	; 0x60
}
10005a4a:	e7fa      	b.n	10005a42 <adc_context_on_timer_expired+0x18>

10005a4c <gpio_rpi_port_get_raw>:
 *  \ingroup hardware_gpio
 *
 * \return Bitmask of raw GPIO values, as bits 0-29
 */
static inline uint32_t gpio_get_all(void) {
    return sio_hw->gpio_in;
10005a4c:	23d0      	movs	r3, #208	; 0xd0
10005a4e:	061b      	lsls	r3, r3, #24
10005a50:	685b      	ldr	r3, [r3, #4]
}
10005a52:	2000      	movs	r0, #0
	*value = gpio_get_all();
10005a54:	600b      	str	r3, [r1, #0]
}
10005a56:	4770      	bx	lr

10005a58 <gpio_rpi_port_set_bits_raw>:
{
10005a58:	000a      	movs	r2, r1
10005a5a:	b510      	push	{r4, lr}
	struct gpio_rpi_data *data = port->data;
10005a5c:	6903      	ldr	r3, [r0, #16]
	gpio_set_mask(pins & ~data->single_ended_mask);
10005a5e:	0010      	movs	r0, r2
10005a60:	6919      	ldr	r1, [r3, #16]
10005a62:	4388      	bics	r0, r1
10005a64:	0001      	movs	r1, r0
 *  \ingroup hardware_gpio
 *
 * \param mask Bitmask of GPIO values to set, as bits 0-29
 */
static inline void gpio_set_mask(uint32_t mask) {
    sio_hw->gpio_set = mask;
10005a66:	20d0      	movs	r0, #208	; 0xd0
10005a68:	0600      	lsls	r0, r0, #24
10005a6a:	6141      	str	r1, [r0, #20]
	gpio_set_dir_in_masked(pins & data->single_ended_mask & data->open_drain_mask);
10005a6c:	691c      	ldr	r4, [r3, #16]
10005a6e:	6959      	ldr	r1, [r3, #20]
10005a70:	4021      	ands	r1, r4
10005a72:	4011      	ands	r1, r2
 *  \ingroup hardware_gpio
 *
 * \param mask Bitmask of GPIO to set to input, as bits 0-29
 */
static inline void gpio_set_dir_in_masked(uint32_t mask) {
    sio_hw->gpio_oe_clr = mask;
10005a74:	6281      	str	r1, [r0, #40]	; 0x28
	gpio_set_dir_out_masked(pins & data->single_ended_mask & ~data->open_drain_mask);
10005a76:	6919      	ldr	r1, [r3, #16]
10005a78:	695b      	ldr	r3, [r3, #20]
10005a7a:	4011      	ands	r1, r2
10005a7c:	4399      	bics	r1, r3
    sio_hw->gpio_oe_set = mask;
10005a7e:	6241      	str	r1, [r0, #36]	; 0x24
}
10005a80:	2000      	movs	r0, #0
10005a82:	bd10      	pop	{r4, pc}

10005a84 <gpio_rpi_port_clear_bits_raw>:
{
10005a84:	000a      	movs	r2, r1
10005a86:	b510      	push	{r4, lr}
	struct gpio_rpi_data *data = port->data;
10005a88:	6903      	ldr	r3, [r0, #16]
	gpio_clr_mask(pins & ~data->single_ended_mask);
10005a8a:	0010      	movs	r0, r2
10005a8c:	6919      	ldr	r1, [r3, #16]
10005a8e:	4388      	bics	r0, r1
10005a90:	0001      	movs	r1, r0
    sio_hw->gpio_clr = mask;
10005a92:	20d0      	movs	r0, #208	; 0xd0
10005a94:	0600      	lsls	r0, r0, #24
10005a96:	6181      	str	r1, [r0, #24]
	gpio_set_dir_out_masked(pins & data->single_ended_mask & data->open_drain_mask);
10005a98:	691c      	ldr	r4, [r3, #16]
10005a9a:	6959      	ldr	r1, [r3, #20]
10005a9c:	4021      	ands	r1, r4
10005a9e:	4011      	ands	r1, r2
    sio_hw->gpio_oe_set = mask;
10005aa0:	6241      	str	r1, [r0, #36]	; 0x24
	gpio_set_dir_in_masked(pins & data->single_ended_mask & ~data->open_drain_mask);
10005aa2:	6919      	ldr	r1, [r3, #16]
10005aa4:	695b      	ldr	r3, [r3, #20]
10005aa6:	4011      	ands	r1, r2
10005aa8:	4399      	bics	r1, r3
    sio_hw->gpio_oe_clr = mask;
10005aaa:	6281      	str	r1, [r0, #40]	; 0x28
}
10005aac:	2000      	movs	r0, #0
10005aae:	bd10      	pop	{r4, pc}

10005ab0 <gpio_rpi_port_toggle_bits>:
	struct gpio_rpi_data *data = port->data;
10005ab0:	6903      	ldr	r3, [r0, #16]
	gpio_xor_mask(pins & ~data->single_ended_mask);
10005ab2:	0008      	movs	r0, r1
10005ab4:	691a      	ldr	r2, [r3, #16]
10005ab6:	4390      	bics	r0, r2
    sio_hw->gpio_togl = mask;
10005ab8:	22d0      	movs	r2, #208	; 0xd0
10005aba:	0612      	lsls	r2, r2, #24
10005abc:	61d0      	str	r0, [r2, #28]
	sio_hw->gpio_oe_togl = (pins & data->single_ended_mask);
10005abe:	691b      	ldr	r3, [r3, #16]
}
10005ac0:	2000      	movs	r0, #0
	sio_hw->gpio_oe_togl = (pins & data->single_ended_mask);
10005ac2:	400b      	ands	r3, r1
10005ac4:	62d3      	str	r3, [r2, #44]	; 0x2c
}
10005ac6:	4770      	bx	lr

10005ac8 <gpio_rpi_manage_callback>:
{
10005ac8:	b510      	push	{r4, lr}
	struct gpio_rpi_data *data = dev->data;
10005aca:	6903      	ldr	r3, [r0, #16]
 *
 * @return A pointer on the first node of the list (or NULL if none)
 */
static inline sys_snode_t *sys_slist_peek_head(sys_slist_t *list)
{
	return list->head;
10005acc:	6858      	ldr	r0, [r3, #4]
	if (!sys_slist_is_empty(callbacks)) {
10005ace:	2800      	cmp	r0, #0
10005ad0:	d021      	beq.n	10005b16 <gpio_rpi_manage_callback+0x4e>
 */
static inline bool sys_slist_find_and_remove(sys_slist_t *list,
					     sys_snode_t *node);

/** @} */
Z_GENLIST_FIND_AND_REMOVE(slist, snode)
10005ad2:	4288      	cmp	r0, r1
10005ad4:	d11b      	bne.n	10005b0e <gpio_rpi_manage_callback+0x46>
	return node->next;
10005ad6:	6808      	ldr	r0, [r1, #0]
Z_GENLIST_REMOVE(slist, snode)
10005ad8:	689c      	ldr	r4, [r3, #8]
	list->head = node;
10005ada:	6058      	str	r0, [r3, #4]
Z_GENLIST_REMOVE(slist, snode)
10005adc:	42a1      	cmp	r1, r4
10005ade:	d100      	bne.n	10005ae2 <gpio_rpi_manage_callback+0x1a>
	list->tail = node;
10005ae0:	6098      	str	r0, [r3, #8]
	parent->next = child;
10005ae2:	2000      	movs	r0, #0
10005ae4:	6008      	str	r0, [r1, #0]
	if (set) {
10005ae6:	4282      	cmp	r2, r0
10005ae8:	d006      	beq.n	10005af8 <gpio_rpi_manage_callback+0x30>
	return list->head;
10005aea:	685a      	ldr	r2, [r3, #4]
	parent->next = child;
10005aec:	600a      	str	r2, [r1, #0]
Z_GENLIST_PREPEND(slist, snode)
10005aee:	689a      	ldr	r2, [r3, #8]
	list->head = node;
10005af0:	6059      	str	r1, [r3, #4]
Z_GENLIST_PREPEND(slist, snode)
10005af2:	2a00      	cmp	r2, #0
10005af4:	d100      	bne.n	10005af8 <gpio_rpi_manage_callback+0x30>
	list->tail = node;
10005af6:	6099      	str	r1, [r3, #8]
	return 0;
10005af8:	2000      	movs	r0, #0
	return gpio_manage_callback(&data->callbacks, callback, set);
10005afa:	e010      	b.n	10005b1e <gpio_rpi_manage_callback+0x56>
Z_GENLIST_FIND_AND_REMOVE(slist, snode)
10005afc:	4281      	cmp	r1, r0
10005afe:	d106      	bne.n	10005b0e <gpio_rpi_manage_callback+0x46>
	return node->next;
10005b00:	6808      	ldr	r0, [r1, #0]
	parent->next = child;
10005b02:	6020      	str	r0, [r4, #0]
Z_GENLIST_REMOVE(slist, snode)
10005b04:	6898      	ldr	r0, [r3, #8]
10005b06:	4281      	cmp	r1, r0
10005b08:	d1eb      	bne.n	10005ae2 <gpio_rpi_manage_callback+0x1a>
	list->tail = node;
10005b0a:	609c      	str	r4, [r3, #8]
}
10005b0c:	e7e9      	b.n	10005ae2 <gpio_rpi_manage_callback+0x1a>
	return node->next;
10005b0e:	0004      	movs	r4, r0
10005b10:	6800      	ldr	r0, [r0, #0]
Z_GENLIST_FIND_AND_REMOVE(slist, snode)
10005b12:	2800      	cmp	r0, #0
10005b14:	d1f2      	bne.n	10005afc <gpio_rpi_manage_callback+0x34>
			if (!set) {
10005b16:	2a00      	cmp	r2, #0
10005b18:	d1e7      	bne.n	10005aea <gpio_rpi_manage_callback+0x22>
				return -EINVAL;
10005b1a:	2016      	movs	r0, #22
10005b1c:	4240      	negs	r0, r0
}
10005b1e:	bd10      	pop	{r4, pc}

10005b20 <gpio_rpi_bank_init>:

static int gpio_rpi_bank_init(const struct device *dev)
{
10005b20:	b510      	push	{r4, lr}
	const struct gpio_rpi_config *config = dev->config;

	config->bank_config_func();
10005b22:	6843      	ldr	r3, [r0, #4]
10005b24:	685b      	ldr	r3, [r3, #4]
10005b26:	4798      	blx	r3
	return 0;
}
10005b28:	2000      	movs	r0, #0
10005b2a:	bd10      	pop	{r4, pc}

10005b2c <gpio_rpi_pin_interrupt_configure>:
{
10005b2c:	b5f7      	push	{r0, r1, r2, r4, r5, r6, r7, lr}
10005b2e:	000d      	movs	r5, r1
	struct gpio_rpi_data *data = dev->data;
10005b30:	6907      	ldr	r7, [r0, #16]
{
10005b32:	0016      	movs	r6, r2
	gpio_set_irq_enabled(pin, ALL_EVENTS, false);
10005b34:	210f      	movs	r1, #15
10005b36:	2200      	movs	r2, #0
10005b38:	0028      	movs	r0, r5
{
10005b3a:	001c      	movs	r4, r3
	gpio_set_irq_enabled(pin, ALL_EVENTS, false);
10005b3c:	f7fe fe22 	bl	10004784 <gpio_set_irq_enabled>
	WRITE_BIT(data->int_enabled_mask, pin, mode != GPIO_INT_DISABLE);
10005b40:	2201      	movs	r2, #1
10005b42:	0013      	movs	r3, r2
10005b44:	40ab      	lsls	r3, r5
10005b46:	9301      	str	r3, [sp, #4]
	if (mode != GPIO_INT_DISABLE) {
10005b48:	2380      	movs	r3, #128	; 0x80
10005b4a:	039b      	lsls	r3, r3, #14
10005b4c:	429e      	cmp	r6, r3
10005b4e:	d105      	bne.n	10005b5c <gpio_rpi_pin_interrupt_configure+0x30>
	WRITE_BIT(data->int_enabled_mask, pin, mode != GPIO_INT_DISABLE);
10005b50:	68fb      	ldr	r3, [r7, #12]
10005b52:	9a01      	ldr	r2, [sp, #4]
10005b54:	4393      	bics	r3, r2
}
10005b56:	2000      	movs	r0, #0
	WRITE_BIT(data->int_enabled_mask, pin, mode != GPIO_INT_DISABLE);
10005b58:	60fb      	str	r3, [r7, #12]
}
10005b5a:	bdfe      	pop	{r1, r2, r3, r4, r5, r6, r7, pc}
			if (trig & GPIO_INT_HIGH_1) {
10005b5c:	2380      	movs	r3, #128	; 0x80
			if (trig & GPIO_INT_LOW_0) {
10005b5e:	0e61      	lsrs	r1, r4, #25
			if (trig & GPIO_INT_HIGH_1) {
10005b60:	04db      	lsls	r3, r3, #19
10005b62:	4023      	ands	r3, r4
			if (trig & GPIO_INT_LOW_0) {
10005b64:	4011      	ands	r1, r2
		if (mode & GPIO_INT_EDGE) {
10005b66:	01f6      	lsls	r6, r6, #7
10005b68:	d50d      	bpl.n	10005b86 <gpio_rpi_pin_interrupt_configure+0x5a>
			if (trig & GPIO_INT_LOW_0) {
10005b6a:	0089      	lsls	r1, r1, #2
			if (trig & GPIO_INT_HIGH_1) {
10005b6c:	2b00      	cmp	r3, #0
10005b6e:	d001      	beq.n	10005b74 <gpio_rpi_pin_interrupt_configure+0x48>
				events |= GPIO_IRQ_EDGE_RISE;
10005b70:	2308      	movs	r3, #8
				events |= GPIO_IRQ_LEVEL_HIGH;
10005b72:	4319      	orrs	r1, r3
		gpio_set_irq_enabled(pin, events, true);
10005b74:	2201      	movs	r2, #1
10005b76:	0028      	movs	r0, r5
10005b78:	f7fe fe04 	bl	10004784 <gpio_set_irq_enabled>
	WRITE_BIT(data->int_enabled_mask, pin, mode != GPIO_INT_DISABLE);
10005b7c:	68fb      	ldr	r3, [r7, #12]
10005b7e:	9a01      	ldr	r2, [sp, #4]
10005b80:	431a      	orrs	r2, r3
10005b82:	0013      	movs	r3, r2
10005b84:	e7e7      	b.n	10005b56 <gpio_rpi_pin_interrupt_configure+0x2a>
			if (trig & GPIO_INT_HIGH_1) {
10005b86:	2b00      	cmp	r3, #0
10005b88:	d0f4      	beq.n	10005b74 <gpio_rpi_pin_interrupt_configure+0x48>
				events |= GPIO_IRQ_LEVEL_HIGH;
10005b8a:	2302      	movs	r3, #2
10005b8c:	e7f1      	b.n	10005b72 <gpio_rpi_pin_interrupt_configure+0x46>

10005b8e <bank_0_config_func>:
				&gpio_rpi_##idx##_data,				\
				&gpio_rpi_##idx##_config,			\
				POST_KERNEL, CONFIG_GPIO_INIT_PRIORITY,		\
				&gpio_rpi_driver_api);

DT_INST_FOREACH_STATUS_OKAY(GPIO_RPI_INIT)
10005b8e:	b510      	push	{r4, lr}
10005b90:	2200      	movs	r2, #0
10005b92:	2103      	movs	r1, #3
10005b94:	200d      	movs	r0, #13
10005b96:	f7fd fdc5 	bl	10003724 <z_arm_irq_priority_set>
10005b9a:	200d      	movs	r0, #13
10005b9c:	f7fd fdb6 	bl	1000370c <arch_irq_enable>
10005ba0:	bd10      	pop	{r4, pc}

10005ba2 <gpio_rpi_port_set_masked_raw>:
{
10005ba2:	b530      	push	{r4, r5, lr}
	struct gpio_rpi_data *data = port->data;
10005ba4:	6904      	ldr	r4, [r0, #16]
    sio_hw->gpio_togl = (sio_hw->gpio_out ^ value) & mask;
10005ba6:	20d0      	movs	r0, #208	; 0xd0
10005ba8:	0600      	lsls	r0, r0, #24
10005baa:	6903      	ldr	r3, [r0, #16]
	gpio_put_masked(mask & ~data->single_ended_mask, value);
10005bac:	6925      	ldr	r5, [r4, #16]
10005bae:	4053      	eors	r3, r2
10005bb0:	400b      	ands	r3, r1
10005bb2:	43ab      	bics	r3, r5
 * corresponding bit in "value", leaving other pins unchanged.
 * E.g. gpio_set_dir_masked(0x3, 0x2); -> set pin 0 to input, pin 1 to output,
 * simultaneously.
 */
static inline void gpio_set_dir_masked(uint32_t mask, uint32_t value) {
    sio_hw->gpio_oe_togl = (sio_hw->gpio_oe ^ value) & mask;
10005bb4:	000d      	movs	r5, r1
    sio_hw->gpio_togl = (sio_hw->gpio_out ^ value) & mask;
10005bb6:	61c3      	str	r3, [r0, #28]
    sio_hw->gpio_oe_togl = (sio_hw->gpio_oe ^ value) & mask;
10005bb8:	6a03      	ldr	r3, [r0, #32]
10005bba:	4053      	eors	r3, r2
10005bbc:	439d      	bics	r5, r3
10005bbe:	002b      	movs	r3, r5
10005bc0:	6925      	ldr	r5, [r4, #16]
10005bc2:	401d      	ands	r5, r3
10005bc4:	6963      	ldr	r3, [r4, #20]
10005bc6:	402b      	ands	r3, r5
10005bc8:	62c3      	str	r3, [r0, #44]	; 0x2c
10005bca:	6a03      	ldr	r3, [r0, #32]
10005bcc:	405a      	eors	r2, r3
10005bce:	400a      	ands	r2, r1
10005bd0:	6921      	ldr	r1, [r4, #16]
	gpio_set_dir_masked(mask & data->single_ended_mask & ~data->open_drain_mask, value);
10005bd2:	6963      	ldr	r3, [r4, #20]
10005bd4:	4011      	ands	r1, r2
10005bd6:	4399      	bics	r1, r3
10005bd8:	62c1      	str	r1, [r0, #44]	; 0x2c
}
10005bda:	2000      	movs	r0, #0
10005bdc:	bd30      	pop	{r4, r5, pc}

10005bde <gpio_rpi_configure>:
{
10005bde:	b5f8      	push	{r3, r4, r5, r6, r7, lr}
10005be0:	0015      	movs	r5, r2
10005be2:	000f      	movs	r7, r1
	gpio_set_pulls(pin,
10005be4:	2401      	movs	r4, #1
10005be6:	0952      	lsrs	r2, r2, #5
10005be8:	0929      	lsrs	r1, r5, #4
	struct gpio_rpi_data *data = dev->data;
10005bea:	6906      	ldr	r6, [r0, #16]
	gpio_set_pulls(pin,
10005bec:	4021      	ands	r1, r4
10005bee:	0038      	movs	r0, r7
10005bf0:	4022      	ands	r2, r4
10005bf2:	f7fe fd7d 	bl	100046f0 <gpio_set_pulls>
	gpio_set_function(pin, GPIO_FUNC_SIO);
10005bf6:	2105      	movs	r1, #5
10005bf8:	0038      	movs	r0, r7
10005bfa:	f7fe fd63 	bl	100046c4 <gpio_set_function>
	if (flags & GPIO_OUTPUT) {
10005bfe:	03ab      	lsls	r3, r5, #14
10005c00:	d525      	bpl.n	10005c4e <gpio_rpi_configure+0x70>
			data->single_ended_mask |= BIT(pin);
10005c02:	40bc      	lsls	r4, r7
10005c04:	6932      	ldr	r2, [r6, #16]
		if (flags & GPIO_SINGLE_ENDED) {
10005c06:	07a9      	lsls	r1, r5, #30
10005c08:	d515      	bpl.n	10005c36 <gpio_rpi_configure+0x58>
			data->single_ended_mask |= BIT(pin);
10005c0a:	4322      	orrs	r2, r4
10005c0c:	6132      	str	r2, [r6, #16]
			if (flags & GPIO_LINE_OPEN_DRAIN) {
10005c0e:	22d0      	movs	r2, #208	; 0xd0
				data->open_drain_mask |= BIT(pin);
10005c10:	6971      	ldr	r1, [r6, #20]
10005c12:	0612      	lsls	r2, r2, #24
			if (flags & GPIO_LINE_OPEN_DRAIN) {
10005c14:	0768      	lsls	r0, r5, #29
10005c16:	d507      	bpl.n	10005c28 <gpio_rpi_configure+0x4a>
				data->open_drain_mask |= BIT(pin);
10005c18:	4321      	orrs	r1, r4
10005c1a:	6171      	str	r1, [r6, #20]
    sio_hw->gpio_clr = mask;
10005c1c:	6194      	str	r4, [r2, #24]
 * \param gpio GPIO number
 * \param out true for out, false for in
 */
static inline void gpio_set_dir(uint gpio, bool out) {
    uint32_t mask = 1ul << gpio;
    if (out)
10005c1e:	036d      	lsls	r5, r5, #13
10005c20:	d507      	bpl.n	10005c32 <gpio_rpi_configure+0x54>
    sio_hw->gpio_oe_set = mask;
10005c22:	6254      	str	r4, [r2, #36]	; 0x24
}
10005c24:	2000      	movs	r0, #0
10005c26:	bdf8      	pop	{r3, r4, r5, r6, r7, pc}
				data->open_drain_mask &= ~(BIT(pin));
10005c28:	43a1      	bics	r1, r4
10005c2a:	6171      	str	r1, [r6, #20]
    sio_hw->gpio_set = mask;
10005c2c:	6154      	str	r4, [r2, #20]
    if (out)
10005c2e:	032d      	lsls	r5, r5, #12
10005c30:	d4f7      	bmi.n	10005c22 <gpio_rpi_configure+0x44>
    sio_hw->gpio_oe_clr = mask;
10005c32:	6294      	str	r4, [r2, #40]	; 0x28
}
10005c34:	e7f6      	b.n	10005c24 <gpio_rpi_configure+0x46>
			data->single_ended_mask &= ~(BIT(pin));
10005c36:	43a2      	bics	r2, r4
10005c38:	6132      	str	r2, [r6, #16]
			if (flags & GPIO_OUTPUT_INIT_HIGH) {
10005c3a:	22d0      	movs	r2, #208	; 0xd0
10005c3c:	0612      	lsls	r2, r2, #24
10005c3e:	0329      	lsls	r1, r5, #12
10005c40:	d501      	bpl.n	10005c46 <gpio_rpi_configure+0x68>
    sio_hw->gpio_set = mask;
10005c42:	6154      	str	r4, [r2, #20]
}
10005c44:	e7ed      	b.n	10005c22 <gpio_rpi_configure+0x44>
			} else if (flags & GPIO_OUTPUT_INIT_LOW) {
10005c46:	036d      	lsls	r5, r5, #13
10005c48:	d5eb      	bpl.n	10005c22 <gpio_rpi_configure+0x44>
    sio_hw->gpio_clr = mask;
10005c4a:	6194      	str	r4, [r2, #24]
}
10005c4c:	e7e9      	b.n	10005c22 <gpio_rpi_configure+0x44>
	} else if (flags & GPIO_INPUT) {
10005c4e:	03ed      	lsls	r5, r5, #15
10005c50:	d5e8      	bpl.n	10005c24 <gpio_rpi_configure+0x46>
    sio_hw->gpio_oe_clr = mask;
10005c52:	22d0      	movs	r2, #208	; 0xd0
    uint32_t mask = 1ul << gpio;
10005c54:	40bc      	lsls	r4, r7
    sio_hw->gpio_oe_clr = mask;
10005c56:	0612      	lsls	r2, r2, #24
10005c58:	e7eb      	b.n	10005c32 <gpio_rpi_configure+0x54>

10005c5a <pinctrl_lookup_state>:

#include <zephyr/drivers/pinctrl.h>

int pinctrl_lookup_state(const struct pinctrl_dev_config *config, uint8_t id,
			 const struct pinctrl_state **state)
{
10005c5a:	b530      	push	{r4, r5, lr}
	*state = &config->states[0];
10005c5c:	6803      	ldr	r3, [r0, #0]
10005c5e:	6013      	str	r3, [r2, #0]
	while (*state < &config->states[config->state_cnt]) {
10005c60:	7905      	ldrb	r5, [r0, #4]
10005c62:	6804      	ldr	r4, [r0, #0]
10005c64:	00ed      	lsls	r5, r5, #3
10005c66:	1964      	adds	r4, r4, r5
10005c68:	42a3      	cmp	r3, r4
10005c6a:	d302      	bcc.n	10005c72 <pinctrl_lookup_state+0x18>
		}

		(*state)++;
	}

	return -ENOENT;
10005c6c:	2002      	movs	r0, #2
10005c6e:	4240      	negs	r0, r0
}
10005c70:	bd30      	pop	{r4, r5, pc}
		if (id == (*state)->id) {
10005c72:	795c      	ldrb	r4, [r3, #5]
10005c74:	428c      	cmp	r4, r1
10005c76:	d001      	beq.n	10005c7c <pinctrl_lookup_state+0x22>
		(*state)++;
10005c78:	3308      	adds	r3, #8
10005c7a:	e7f0      	b.n	10005c5e <pinctrl_lookup_state+0x4>
			return 0;
10005c7c:	2000      	movs	r0, #0
10005c7e:	e7f7      	b.n	10005c70 <pinctrl_lookup_state+0x16>

10005c80 <pinctrl_configure_pins>:
	gpio_set_input_enabled(pin->pin_num, pin->input_enable);
}

int pinctrl_configure_pins(const pinctrl_soc_pin_t *pins, uint8_t pin_cnt,
			   uintptr_t reg)
{
10005c80:	b5f8      	push	{r3, r4, r5, r6, r7, lr}
10005c82:	0004      	movs	r4, r0
				GPIO_SLEW_RATE_FAST : GPIO_SLEW_RATE_SLOW));
10005c84:	2601      	movs	r6, #1
10005c86:	008d      	lsls	r5, r1, #2
10005c88:	1945      	adds	r5, r0, r5
	ARG_UNUSED(reg);

	for (uint8_t i = 0U; i < pin_cnt; i++) {
10005c8a:	42ac      	cmp	r4, r5
10005c8c:	d101      	bne.n	10005c92 <pinctrl_configure_pins+0x12>
		pinctrl_configure_pin(pins++);
	}

	return 0;
}
10005c8e:	2000      	movs	r0, #0
10005c90:	bdf8      	pop	{r3, r4, r5, r6, r7, pc}
	gpio_init(pin->pin_num);
10005c92:	7820      	ldrb	r0, [r4, #0]
		pinctrl_configure_pin(pins++);
10005c94:	1d27      	adds	r7, r4, #4
	gpio_init(pin->pin_num);
10005c96:	06c0      	lsls	r0, r0, #27
10005c98:	0ec0      	lsrs	r0, r0, #27
10005c9a:	f000 f987 	bl	10005fac <gpio_init>
	gpio_set_function(pin->pin_num, pin->alt_func);
10005c9e:	8821      	ldrh	r1, [r4, #0]
10005ca0:	7820      	ldrb	r0, [r4, #0]
10005ca2:	05c9      	lsls	r1, r1, #23
10005ca4:	06c0      	lsls	r0, r0, #27
10005ca6:	0f09      	lsrs	r1, r1, #28
10005ca8:	0ec0      	lsrs	r0, r0, #27
10005caa:	f7fe fd0b 	bl	100046c4 <gpio_set_function>
	gpio_set_pulls(pin->pin_num, pin->pullup, pin->pulldown);
10005cae:	7861      	ldrb	r1, [r4, #1]
10005cb0:	7820      	ldrb	r0, [r4, #0]
10005cb2:	09ca      	lsrs	r2, r1, #7
10005cb4:	06c0      	lsls	r0, r0, #27
10005cb6:	0649      	lsls	r1, r1, #25
10005cb8:	0fc9      	lsrs	r1, r1, #31
10005cba:	0ec0      	lsrs	r0, r0, #27
10005cbc:	f7fe fd18 	bl	100046f0 <gpio_set_pulls>
	gpio_set_drive_strength(pin->pin_num, pin->drive_strength);
10005cc0:	7861      	ldrb	r1, [r4, #1]
10005cc2:	7820      	ldrb	r0, [r4, #0]
10005cc4:	06c9      	lsls	r1, r1, #27
10005cc6:	06c0      	lsls	r0, r0, #27
10005cc8:	0f09      	lsrs	r1, r1, #28
10005cca:	0ec0      	lsrs	r0, r0, #27
10005ccc:	f7fe fd3e 	bl	1000474c <gpio_set_drive_strength>
				GPIO_SLEW_RATE_FAST : GPIO_SLEW_RATE_SLOW));
10005cd0:	7861      	ldrb	r1, [r4, #1]
	gpio_set_slew_rate(pin->pin_num, (pin->slew_rate ?
10005cd2:	7820      	ldrb	r0, [r4, #0]
				GPIO_SLEW_RATE_FAST : GPIO_SLEW_RATE_SLOW));
10005cd4:	0949      	lsrs	r1, r1, #5
	gpio_set_slew_rate(pin->pin_num, (pin->slew_rate ?
10005cd6:	06c0      	lsls	r0, r0, #27
10005cd8:	4031      	ands	r1, r6
10005cda:	0ec0      	lsrs	r0, r0, #27
10005cdc:	f7fe fd28 	bl	10004730 <gpio_set_slew_rate>
	gpio_set_input_hysteresis_enabled(pin->pin_num, pin->schmitt_enable);
10005ce0:	78a1      	ldrb	r1, [r4, #2]
10005ce2:	7820      	ldrb	r0, [r4, #0]
10005ce4:	0789      	lsls	r1, r1, #30
10005ce6:	06c0      	lsls	r0, r0, #27
10005ce8:	0fc9      	lsrs	r1, r1, #31
10005cea:	0ec0      	lsrs	r0, r0, #27
10005cec:	f7fe fd12 	bl	10004714 <gpio_set_input_hysteresis_enabled>
	gpio_set_input_enabled(pin->pin_num, pin->input_enable);
10005cf0:	78a1      	ldrb	r1, [r4, #2]
10005cf2:	7820      	ldrb	r0, [r4, #0]
10005cf4:	07c9      	lsls	r1, r1, #31
10005cf6:	06c0      	lsls	r0, r0, #27
10005cf8:	0fc9      	lsrs	r1, r1, #31
10005cfa:	0ec0      	lsrs	r0, r0, #27
10005cfc:	f7fe fd64 	bl	100047c8 <gpio_set_input_enabled>
		pinctrl_configure_pin(pins++);
10005d00:	003c      	movs	r4, r7
10005d02:	e7c2      	b.n	10005c8a <pinctrl_configure_pins+0xa>

10005d04 <reset_rpi_init>:
static int reset_rpi_init(const struct device *dev)
{
	DEVICE_MMIO_MAP(dev, K_MEM_CACHE_NONE);

	return 0;
}
10005d04:	2000      	movs	r0, #0
10005d06:	4770      	bx	lr

10005d08 <reset_rpi_read_register.isra.0>:
	uint32_t base_address = config->base_address;
10005d08:	6883      	ldr	r3, [r0, #8]
	switch (config->reg_width) {
10005d0a:	7900      	ldrb	r0, [r0, #4]
10005d0c:	2802      	cmp	r0, #2
10005d0e:	d009      	beq.n	10005d24 <reset_rpi_read_register.isra.0+0x1c>
10005d10:	2804      	cmp	r0, #4
10005d12:	d00b      	beq.n	10005d2c <reset_rpi_read_register.isra.0+0x24>
10005d14:	2801      	cmp	r0, #1
10005d16:	d10c      	bne.n	10005d32 <reset_rpi_read_register.isra.0+0x2a>
		*value = sys_read8(base_address + offset);
10005d18:	18c9      	adds	r1, r1, r3
extern "C" {
#endif

static ALWAYS_INLINE uint8_t sys_read8(mem_addr_t addr)
{
	return *(volatile uint8_t *)addr;
10005d1a:	780b      	ldrb	r3, [r1, #0]
10005d1c:	b2db      	uxtb	r3, r3
	return 0;
10005d1e:	2000      	movs	r0, #0
		*value = sys_read16(base_address + offset);
10005d20:	6013      	str	r3, [r2, #0]
}
10005d22:	4770      	bx	lr
		*value = sys_read16(base_address + offset);
10005d24:	18c9      	adds	r1, r1, r3
	*(volatile uint8_t *)addr = data;
}

static ALWAYS_INLINE uint16_t sys_read16(mem_addr_t addr)
{
	return *(volatile uint16_t *)addr;
10005d26:	880b      	ldrh	r3, [r1, #0]
10005d28:	b29b      	uxth	r3, r3
		break;
10005d2a:	e7f8      	b.n	10005d1e <reset_rpi_read_register.isra.0+0x16>
		*value = sys_read32(base_address + offset);
10005d2c:	18c9      	adds	r1, r1, r3
	*(volatile uint16_t *)addr = data;
}

static ALWAYS_INLINE uint32_t sys_read32(mem_addr_t addr)
{
	return *(volatile uint32_t *)addr;
10005d2e:	680b      	ldr	r3, [r1, #0]
		break;
10005d30:	e7f5      	b.n	10005d1e <reset_rpi_read_register.isra.0+0x16>
	switch (config->reg_width) {
10005d32:	2016      	movs	r0, #22
10005d34:	4240      	negs	r0, r0
10005d36:	e7f4      	b.n	10005d22 <reset_rpi_read_register.isra.0+0x1a>

10005d38 <reset_rpi_update>:
{
10005d38:	0003      	movs	r3, r0
10005d3a:	b5f0      	push	{r4, r5, r6, r7, lr}
10005d3c:	b085      	sub	sp, #20
	const struct reset_rpi_config *config = dev->config;
10005d3e:	685f      	ldr	r7, [r3, #4]
{
10005d40:	9201      	str	r2, [sp, #4]
	offset = id / (config->reg_width * CHAR_BIT);
10005d42:	793e      	ldrb	r6, [r7, #4]
{
10005d44:	0008      	movs	r0, r1
	offset = id / (config->reg_width * CHAR_BIT);
10005d46:	00f1      	lsls	r1, r6, #3
10005d48:	f7fa fa7e 	bl	10000248 <__aeabi_uidivmod>
	ret = reset_rpi_read_register(dev, offset, &value);
10005d4c:	aa03      	add	r2, sp, #12
10005d4e:	0004      	movs	r4, r0
10005d50:	000d      	movs	r5, r1
10005d52:	b281      	uxth	r1, r0
10005d54:	0038      	movs	r0, r7
10005d56:	f7ff ffd7 	bl	10005d08 <reset_rpi_read_register.isra.0>
	if (ret) {
10005d5a:	2800      	cmp	r0, #0
10005d5c:	d117      	bne.n	10005d8e <reset_rpi_update+0x56>
		value |= BIT(regbit);
10005d5e:	2201      	movs	r2, #1
10005d60:	9903      	ldr	r1, [sp, #12]
10005d62:	b2ed      	uxtb	r5, r5
10005d64:	40aa      	lsls	r2, r5
		value &= ~BIT(regbit);
10005d66:	000b      	movs	r3, r1
		value |= BIT(regbit);
10005d68:	4694      	mov	ip, r2
		value &= ~BIT(regbit);
10005d6a:	4393      	bics	r3, r2
	if (assert ^ config->active_low) {
10005d6c:	797d      	ldrb	r5, [r7, #5]
10005d6e:	9a01      	ldr	r2, [sp, #4]
10005d70:	4295      	cmp	r5, r2
10005d72:	d001      	beq.n	10005d78 <reset_rpi_update+0x40>
		value |= BIT(regbit);
10005d74:	4663      	mov	r3, ip
10005d76:	430b      	orrs	r3, r1
	uint32_t base_address = config->base_address;
10005d78:	68ba      	ldr	r2, [r7, #8]
	switch (config->reg_width) {
10005d7a:	2e02      	cmp	r6, #2
10005d7c:	d009      	beq.n	10005d92 <reset_rpi_update+0x5a>
10005d7e:	2e04      	cmp	r6, #4
10005d80:	d00c      	beq.n	10005d9c <reset_rpi_update+0x64>
10005d82:	2e01      	cmp	r6, #1
10005d84:	d10e      	bne.n	10005da4 <reset_rpi_update+0x6c>
		sys_write8(value, base_address + offset);
10005d86:	b2a4      	uxth	r4, r4
10005d88:	b2db      	uxtb	r3, r3
10005d8a:	18a4      	adds	r4, r4, r2
	*(volatile uint8_t *)addr = data;
10005d8c:	7023      	strb	r3, [r4, #0]
}
10005d8e:	b005      	add	sp, #20
10005d90:	bdf0      	pop	{r4, r5, r6, r7, pc}
		sys_write16(value, base_address + offset);
10005d92:	b2a4      	uxth	r4, r4
10005d94:	b29b      	uxth	r3, r3
10005d96:	18a4      	adds	r4, r4, r2
	*(volatile uint16_t *)addr = data;
10005d98:	8023      	strh	r3, [r4, #0]
}
10005d9a:	e7f8      	b.n	10005d8e <reset_rpi_update+0x56>
		sys_write32(value, base_address + offset);
10005d9c:	b2a4      	uxth	r4, r4
10005d9e:	18a4      	adds	r4, r4, r2
}

static ALWAYS_INLINE void sys_write32(uint32_t data, mem_addr_t addr)
{
	*(volatile uint32_t *)addr = data;
10005da0:	6023      	str	r3, [r4, #0]
}
10005da2:	e7f4      	b.n	10005d8e <reset_rpi_update+0x56>
	switch (config->reg_width) {
10005da4:	2016      	movs	r0, #22
10005da6:	4240      	negs	r0, r0
10005da8:	e7f1      	b.n	10005d8e <reset_rpi_update+0x56>

10005daa <reset_rpi_line_assert>:
{
10005daa:	b510      	push	{r4, lr}
	return reset_rpi_update(dev, id, 1);
10005dac:	2201      	movs	r2, #1
10005dae:	f7ff ffc3 	bl	10005d38 <reset_rpi_update>
}
10005db2:	bd10      	pop	{r4, pc}

10005db4 <reset_rpi_line_deassert>:
{
10005db4:	b510      	push	{r4, lr}
	return reset_rpi_update(dev, id, 0);
10005db6:	2200      	movs	r2, #0
10005db8:	f7ff ffbe 	bl	10005d38 <reset_rpi_update>
}
10005dbc:	bd10      	pop	{r4, pc}

10005dbe <reset_rpi_line_toggle>:
{
10005dbe:	b570      	push	{r4, r5, r6, lr}
10005dc0:	0004      	movs	r4, r0
10005dc2:	000d      	movs	r5, r1
	ret = reset_rpi_line_assert(dev, id);
10005dc4:	f7ff fff1 	bl	10005daa <reset_rpi_line_assert>
	if (ret) {
10005dc8:	2800      	cmp	r0, #0
10005dca:	d103      	bne.n	10005dd4 <reset_rpi_line_toggle+0x16>
	return reset_rpi_line_deassert(dev, id);
10005dcc:	0029      	movs	r1, r5
10005dce:	0020      	movs	r0, r4
10005dd0:	f7ff fff0 	bl	10005db4 <reset_rpi_line_deassert>
}
10005dd4:	bd70      	pop	{r4, r5, r6, pc}

10005dd6 <reset_rpi_status>:
{
10005dd6:	0003      	movs	r3, r0
10005dd8:	b573      	push	{r0, r1, r4, r5, r6, lr}
	const struct reset_rpi_config *config = dev->config;
10005dda:	685e      	ldr	r6, [r3, #4]
{
10005ddc:	0008      	movs	r0, r1
	offset = id / (config->reg_width * CHAR_BIT);
10005dde:	7931      	ldrb	r1, [r6, #4]
{
10005de0:	0014      	movs	r4, r2
	offset = id / (config->reg_width * CHAR_BIT);
10005de2:	00c9      	lsls	r1, r1, #3
10005de4:	f7fa fa30 	bl	10000248 <__aeabi_uidivmod>
	ret = reset_rpi_read_register(dev, offset, &value);
10005de8:	aa01      	add	r2, sp, #4
10005dea:	000d      	movs	r5, r1
10005dec:	b281      	uxth	r1, r0
10005dee:	0030      	movs	r0, r6
10005df0:	f7ff ff8a 	bl	10005d08 <reset_rpi_read_register.isra.0>
	if (ret) {
10005df4:	2800      	cmp	r0, #0
10005df6:	d109      	bne.n	10005e0c <reset_rpi_status+0x36>
	*status = !(value & BIT(regbit)) ^ !config->active_low;
10005df8:	9b01      	ldr	r3, [sp, #4]
10005dfa:	b2ed      	uxtb	r5, r5
10005dfc:	40eb      	lsrs	r3, r5
10005dfe:	2201      	movs	r2, #1
10005e00:	439a      	bics	r2, r3
10005e02:	7973      	ldrb	r3, [r6, #5]
10005e04:	4259      	negs	r1, r3
10005e06:	414b      	adcs	r3, r1
10005e08:	4053      	eors	r3, r2
10005e0a:	7023      	strb	r3, [r4, #0]
}
10005e0c:	bd76      	pop	{r1, r2, r4, r5, r6, pc}

10005e0e <uart_rpi_poll_in>:
{
10005e0e:	b510      	push	{r4, lr}
	uart_hw_t * const uart_hw = config->uart_regs;
10005e10:	6843      	ldr	r3, [r0, #4]
	if (uart_hw->fr & UART_UARTFR_RXFE_BITS) {
10005e12:	2210      	movs	r2, #16
	uart_hw_t * const uart_hw = config->uart_regs;
10005e14:	685b      	ldr	r3, [r3, #4]
	if (uart_hw->fr & UART_UARTFR_RXFE_BITS) {
10005e16:	699c      	ldr	r4, [r3, #24]
10005e18:	0020      	movs	r0, r4
10005e1a:	4010      	ands	r0, r2
10005e1c:	4214      	tst	r4, r2
10005e1e:	d102      	bne.n	10005e26 <uart_rpi_poll_in+0x18>
	*c = (unsigned char)uart_hw->dr;
10005e20:	681b      	ldr	r3, [r3, #0]
10005e22:	700b      	strb	r3, [r1, #0]
}
10005e24:	bd10      	pop	{r4, pc}
		return -1;
10005e26:	2001      	movs	r0, #1
10005e28:	4240      	negs	r0, r0
10005e2a:	e7fb      	b.n	10005e24 <uart_rpi_poll_in+0x16>

10005e2c <uart_rpi_poll_out>:
	while (uart_hw->fr & UART_UARTFR_TXFF_BITS) {
10005e2c:	2220      	movs	r2, #32
	uart_hw_t * const uart_hw = config->uart_regs;
10005e2e:	6843      	ldr	r3, [r0, #4]
10005e30:	685b      	ldr	r3, [r3, #4]
	while (uart_hw->fr & UART_UARTFR_TXFF_BITS) {
10005e32:	6998      	ldr	r0, [r3, #24]
10005e34:	4210      	tst	r0, r2
10005e36:	d1fc      	bne.n	10005e32 <uart_rpi_poll_out+0x6>
	uart_hw->dr = c;
10005e38:	6019      	str	r1, [r3, #0]
}
10005e3a:	4770      	bx	lr

10005e3c <uart_rpi_err_check>:
	uart_hw_t * const uart_hw = config->uart_regs;
10005e3c:	6843      	ldr	r3, [r0, #4]
10005e3e:	685b      	ldr	r3, [r3, #4]
	uint32_t data_reg = uart_hw->dr;
10005e40:	681b      	ldr	r3, [r3, #0]
	if (data_reg & UART_UARTDR_OE_BITS) {
10005e42:	0518      	lsls	r0, r3, #20
10005e44:	0fc0      	lsrs	r0, r0, #31
	if (data_reg & UART_UARTDR_BE_BITS) {
10005e46:	055a      	lsls	r2, r3, #21
10005e48:	d501      	bpl.n	10005e4e <uart_rpi_err_check+0x12>
		errors |= UART_BREAK;
10005e4a:	2208      	movs	r2, #8
10005e4c:	4310      	orrs	r0, r2
	if (data_reg & UART_UARTDR_PE_BITS) {
10005e4e:	059a      	lsls	r2, r3, #22
10005e50:	d501      	bpl.n	10005e56 <uart_rpi_err_check+0x1a>
		errors |= UART_ERROR_PARITY;
10005e52:	2202      	movs	r2, #2
10005e54:	4310      	orrs	r0, r2
	if (data_reg & UART_UARTDR_FE_BITS) {
10005e56:	05db      	lsls	r3, r3, #23
10005e58:	d501      	bpl.n	10005e5e <uart_rpi_err_check+0x22>
		errors |= UART_ERROR_FRAMING;
10005e5a:	2304      	movs	r3, #4
10005e5c:	4318      	orrs	r0, r3
}
10005e5e:	4770      	bx	lr

10005e60 <uart_rpi_fifo_fill>:
{
10005e60:	b530      	push	{r4, r5, lr}
	while (!(uart_hw->fr & UART_UARTFR_TXFF_BITS) && (len - tx_len) > 0) {
10005e62:	2520      	movs	r5, #32
	uart_hw_t * const uart_hw = config->uart_regs;
10005e64:	6843      	ldr	r3, [r0, #4]
	while (!(uart_hw->fr & UART_UARTFR_TXFF_BITS) && (len - tx_len) > 0) {
10005e66:	2000      	movs	r0, #0
	uart_hw_t * const uart_hw = config->uart_regs;
10005e68:	685b      	ldr	r3, [r3, #4]
	while (!(uart_hw->fr & UART_UARTFR_TXFF_BITS) && (len - tx_len) > 0) {
10005e6a:	699c      	ldr	r4, [r3, #24]
10005e6c:	422c      	tst	r4, r5
10005e6e:	d102      	bne.n	10005e76 <uart_rpi_fifo_fill+0x16>
10005e70:	1a14      	subs	r4, r2, r0
10005e72:	2c00      	cmp	r4, #0
10005e74:	dc00      	bgt.n	10005e78 <uart_rpi_fifo_fill+0x18>
}
10005e76:	bd30      	pop	{r4, r5, pc}
		uart_hw->dr = tx_data[tx_len++];
10005e78:	5c0c      	ldrb	r4, [r1, r0]
10005e7a:	3001      	adds	r0, #1
10005e7c:	601c      	str	r4, [r3, #0]
10005e7e:	e7f4      	b.n	10005e6a <uart_rpi_fifo_fill+0xa>

10005e80 <uart_rpi_fifo_read>:
{
10005e80:	b530      	push	{r4, r5, lr}
	while (!(uart_hw->fr & UART_UARTFR_RXFE_BITS) && (len - rx_len) > 0) {
10005e82:	2510      	movs	r5, #16
	uart_hw_t * const uart_hw = config->uart_regs;
10005e84:	6843      	ldr	r3, [r0, #4]
	while (!(uart_hw->fr & UART_UARTFR_RXFE_BITS) && (len - rx_len) > 0) {
10005e86:	2000      	movs	r0, #0
	uart_hw_t * const uart_hw = config->uart_regs;
10005e88:	685b      	ldr	r3, [r3, #4]
	while (!(uart_hw->fr & UART_UARTFR_RXFE_BITS) && (len - rx_len) > 0) {
10005e8a:	699c      	ldr	r4, [r3, #24]
10005e8c:	422c      	tst	r4, r5
10005e8e:	d102      	bne.n	10005e96 <uart_rpi_fifo_read+0x16>
10005e90:	1a14      	subs	r4, r2, r0
10005e92:	2c00      	cmp	r4, #0
10005e94:	dc00      	bgt.n	10005e98 <uart_rpi_fifo_read+0x18>
}
10005e96:	bd30      	pop	{r4, r5, pc}
		rx_data[rx_len++] = (uint8_t)uart_hw->dr;
10005e98:	681c      	ldr	r4, [r3, #0]
10005e9a:	540c      	strb	r4, [r1, r0]
10005e9c:	3001      	adds	r0, #1
10005e9e:	e7f4      	b.n	10005e8a <uart_rpi_fifo_read+0xa>

10005ea0 <uart_rpi_irq_tx_enable>:
	uart_hw->imsc |= UART_UARTIMSC_TXIM_BITS;
10005ea0:	2220      	movs	r2, #32
	uart_hw_t * const uart_hw = config->uart_regs;
10005ea2:	6843      	ldr	r3, [r0, #4]
10005ea4:	685b      	ldr	r3, [r3, #4]
	uart_hw->imsc |= UART_UARTIMSC_TXIM_BITS;
10005ea6:	6b99      	ldr	r1, [r3, #56]	; 0x38
10005ea8:	430a      	orrs	r2, r1
	uart_hw->ifls &= ~UART_UARTIFLS_TXIFLSEL_BITS;
10005eaa:	2107      	movs	r1, #7
	uart_hw->imsc |= UART_UARTIMSC_TXIM_BITS;
10005eac:	639a      	str	r2, [r3, #56]	; 0x38
	uart_hw->ifls &= ~UART_UARTIFLS_TXIFLSEL_BITS;
10005eae:	6b5a      	ldr	r2, [r3, #52]	; 0x34
10005eb0:	438a      	bics	r2, r1
10005eb2:	635a      	str	r2, [r3, #52]	; 0x34
}
10005eb4:	4770      	bx	lr

10005eb6 <uart_rpi_irq_tx_disable>:
	uart_hw->imsc &= ~UART_UARTIMSC_TXIM_BITS;
10005eb6:	2120      	movs	r1, #32
	uart_hw_t * const uart_hw = config->uart_regs;
10005eb8:	6843      	ldr	r3, [r0, #4]
10005eba:	685a      	ldr	r2, [r3, #4]
	uart_hw->imsc &= ~UART_UARTIMSC_TXIM_BITS;
10005ebc:	6b93      	ldr	r3, [r2, #56]	; 0x38
10005ebe:	438b      	bics	r3, r1
10005ec0:	6393      	str	r3, [r2, #56]	; 0x38
}
10005ec2:	4770      	bx	lr

10005ec4 <uart_rpi_irq_tx_ready>:
	uart_hw_t * const uart_hw = config->uart_regs;
10005ec4:	6843      	ldr	r3, [r0, #4]
10005ec6:	685b      	ldr	r3, [r3, #4]
	return (uart_hw->mis & UART_UARTMIS_TXMIS_BITS) == UART_UARTMIS_TXMIS_BITS;
10005ec8:	6c18      	ldr	r0, [r3, #64]	; 0x40
10005eca:	0680      	lsls	r0, r0, #26
10005ecc:	0fc0      	lsrs	r0, r0, #31
}
10005ece:	4770      	bx	lr

10005ed0 <uart_rpi_irq_rx_enable>:
	uart_hw->imsc |= UART_UARTIMSC_RXIM_BITS;
10005ed0:	2210      	movs	r2, #16
	uart_hw_t * const uart_hw = config->uart_regs;
10005ed2:	6843      	ldr	r3, [r0, #4]
10005ed4:	685b      	ldr	r3, [r3, #4]
	uart_hw->imsc |= UART_UARTIMSC_RXIM_BITS;
10005ed6:	6b99      	ldr	r1, [r3, #56]	; 0x38
10005ed8:	430a      	orrs	r2, r1
	uart_hw->ifls &= ~UART_UARTIFLS_RXIFLSEL_BITS;
10005eda:	2138      	movs	r1, #56	; 0x38
	uart_hw->imsc |= UART_UARTIMSC_RXIM_BITS;
10005edc:	639a      	str	r2, [r3, #56]	; 0x38
	uart_hw->ifls &= ~UART_UARTIFLS_RXIFLSEL_BITS;
10005ede:	6b5a      	ldr	r2, [r3, #52]	; 0x34
10005ee0:	438a      	bics	r2, r1
10005ee2:	635a      	str	r2, [r3, #52]	; 0x34
}
10005ee4:	4770      	bx	lr

10005ee6 <uart_rpi_irq_rx_disable>:
	uart_hw->imsc &= ~UART_UARTIMSC_RXIM_BITS;
10005ee6:	2110      	movs	r1, #16
	uart_hw_t * const uart_hw = config->uart_regs;
10005ee8:	6843      	ldr	r3, [r0, #4]
10005eea:	685a      	ldr	r2, [r3, #4]
	uart_hw->imsc &= ~UART_UARTIMSC_RXIM_BITS;
10005eec:	6b93      	ldr	r3, [r2, #56]	; 0x38
10005eee:	438b      	bics	r3, r1
10005ef0:	6393      	str	r3, [r2, #56]	; 0x38
}
10005ef2:	4770      	bx	lr

10005ef4 <uart_rpi_irq_tx_complete>:
	uart_hw_t * const uart_hw = config->uart_regs;
10005ef4:	6843      	ldr	r3, [r0, #4]
10005ef6:	685b      	ldr	r3, [r3, #4]
	return !!(uart_hw->fr & UART_UARTFR_TXFE_BITS);
10005ef8:	6998      	ldr	r0, [r3, #24]
10005efa:	0600      	lsls	r0, r0, #24
10005efc:	0fc0      	lsrs	r0, r0, #31
}
10005efe:	4770      	bx	lr

10005f00 <uart_rpi_irq_rx_ready>:
	uart_hw_t * const uart_hw = config->uart_regs;
10005f00:	6843      	ldr	r3, [r0, #4]
10005f02:	685b      	ldr	r3, [r3, #4]
	return (uart_hw->mis & UART_UARTMIS_RXMIS_BITS) == UART_UARTMIS_RXMIS_BITS;
10005f04:	6c18      	ldr	r0, [r3, #64]	; 0x40
10005f06:	06c0      	lsls	r0, r0, #27
10005f08:	0fc0      	lsrs	r0, r0, #31
}
10005f0a:	4770      	bx	lr

10005f0c <uart_rpi_irq_err_enable>:
	uart_hw_t * const uart_hw = config->uart_regs;
10005f0c:	6843      	ldr	r3, [r0, #4]
10005f0e:	685a      	ldr	r2, [r3, #4]
	uart_hw->imsc |= (UART_UARTIMSC_OEIM_BITS |
10005f10:	23f8      	movs	r3, #248	; 0xf8
10005f12:	6b91      	ldr	r1, [r2, #56]	; 0x38
10005f14:	00db      	lsls	r3, r3, #3
10005f16:	430b      	orrs	r3, r1
10005f18:	6393      	str	r3, [r2, #56]	; 0x38
}
10005f1a:	4770      	bx	lr

10005f1c <uart_rpi_irq_is_pending>:

static int uart_rpi_irq_is_pending(const struct device *dev)
{
10005f1c:	b510      	push	{r4, lr}
10005f1e:	0004      	movs	r4, r0
	return !!(uart_rpi_irq_rx_ready(dev) || uart_rpi_irq_tx_ready(dev));
10005f20:	f7ff ffee 	bl	10005f00 <uart_rpi_irq_rx_ready>
10005f24:	0003      	movs	r3, r0
10005f26:	2001      	movs	r0, #1
10005f28:	2b00      	cmp	r3, #0
10005f2a:	d104      	bne.n	10005f36 <uart_rpi_irq_is_pending+0x1a>
10005f2c:	0020      	movs	r0, r4
10005f2e:	f7ff ffc9 	bl	10005ec4 <uart_rpi_irq_tx_ready>
10005f32:	1e43      	subs	r3, r0, #1
10005f34:	4198      	sbcs	r0, r3
}
10005f36:	bd10      	pop	{r4, pc}

10005f38 <uart_rpi_irq_update>:

static int uart_rpi_irq_update(const struct device *dev)
{
	return 1;
}
10005f38:	2001      	movs	r0, #1
10005f3a:	4770      	bx	lr

10005f3c <uart_rpi_irq_callback_set>:

static void uart_rpi_irq_callback_set(const struct device *dev,
				      uart_irq_callback_user_data_t cb,
				      void *cb_data)
{
	struct uart_rpi_data * const data = dev->data;
10005f3c:	6903      	ldr	r3, [r0, #16]

	data->irq_cb = cb;
10005f3e:	6099      	str	r1, [r3, #8]
	data->irq_cb_data = cb_data;
10005f40:	60da      	str	r2, [r3, #12]
}
10005f42:	4770      	bx	lr

10005f44 <uart_rpi_isr>:

static void uart_rpi_isr(const struct device *dev)
{
10005f44:	b510      	push	{r4, lr}
	struct uart_rpi_data * const data = dev->data;
10005f46:	6902      	ldr	r2, [r0, #16]

	if (data->irq_cb) {
10005f48:	6893      	ldr	r3, [r2, #8]
10005f4a:	2b00      	cmp	r3, #0
10005f4c:	d001      	beq.n	10005f52 <uart_rpi_isr+0xe>
		data->irq_cb(dev, data->irq_cb_data);
10005f4e:	68d1      	ldr	r1, [r2, #12]
10005f50:	4798      	blx	r3
	}
}
10005f52:	bd10      	pop	{r4, pc}

10005f54 <uart_rpi_config_get>:
{
10005f54:	0003      	movs	r3, r0
10005f56:	b510      	push	{r4, lr}
10005f58:	0008      	movs	r0, r1
	memcpy(cfg, &data->uart_config, sizeof(struct uart_config));
10005f5a:	2208      	movs	r2, #8
10005f5c:	6919      	ldr	r1, [r3, #16]
10005f5e:	f7ff fd36 	bl	100059ce <memcpy>
}
10005f62:	2000      	movs	r0, #0
10005f64:	bd10      	pop	{r4, pc}

10005f66 <uart0_rpi_irq_config_func>:
			    NULL, &uart##idx##_rpi_data,			\
			    &uart##idx##_rpi_config, PRE_KERNEL_1,		\
			    CONFIG_SERIAL_INIT_PRIORITY,			\
			    &uart_rpi_driver_api);				\

DT_INST_FOREACH_STATUS_OKAY(RPI_UART_INIT)
10005f66:	b510      	push	{r4, lr}
10005f68:	2200      	movs	r2, #0
10005f6a:	2103      	movs	r1, #3
10005f6c:	2014      	movs	r0, #20
10005f6e:	f7fd fbd9 	bl	10003724 <z_arm_irq_priority_set>
10005f72:	2014      	movs	r0, #20
10005f74:	f7fd fbca 	bl	1000370c <arch_irq_enable>
10005f78:	bd10      	pop	{r4, pc}

10005f7a <uart_rpi_configure>:
{
10005f7a:	b570      	push	{r4, r5, r6, lr}
	uart_inst_t * const uart_inst = config->uart_dev;
10005f7c:	6843      	ldr	r3, [r0, #4]
{
10005f7e:	0006      	movs	r6, r0
10005f80:	000c      	movs	r4, r1
	struct uart_rpi_data *data = dev->data;
10005f82:	6905      	ldr	r5, [r0, #16]
	baudrate = uart_set_baudrate(uart_inst, cfg->baudrate);
10005f84:	6809      	ldr	r1, [r1, #0]
10005f86:	6818      	ldr	r0, [r3, #0]
10005f88:	f7fe fc2c 	bl	100047e4 <uart_set_baudrate>
	if (baudrate == 0) {
10005f8c:	2800      	cmp	r0, #0
10005f8e:	d102      	bne.n	10005f96 <uart_rpi_configure+0x1c>
		return -EINVAL;
10005f90:	2016      	movs	r0, #22
10005f92:	4240      	negs	r0, r0
}
10005f94:	bd70      	pop	{r4, r5, r6, pc}
	if (uart_rpi_set_format(dev, cfg) != 0) {
10005f96:	79a3      	ldrb	r3, [r4, #6]
10005f98:	7962      	ldrb	r2, [r4, #5]
10005f9a:	7921      	ldrb	r1, [r4, #4]
10005f9c:	6870      	ldr	r0, [r6, #4]
10005f9e:	f7fe f8d5 	bl	1000414c <uart_rpi_set_format.isra.0>
10005fa2:	2800      	cmp	r0, #0
10005fa4:	d1f4      	bne.n	10005f90 <uart_rpi_configure+0x16>
	data->uart_config = *cfg;
10005fa6:	cc06      	ldmia	r4!, {r1, r2}
10005fa8:	c506      	stmia	r5!, {r1, r2}
	return 0;
10005faa:	e7f3      	b.n	10005f94 <uart_rpi_configure+0x1a>

10005fac <gpio_init>:

void gpio_init(uint gpio) {
    sio_hw->gpio_oe_clr = 1ul << gpio;
10005fac:	2301      	movs	r3, #1
10005fae:	22d0      	movs	r2, #208	; 0xd0
10005fb0:	4083      	lsls	r3, r0
void gpio_init(uint gpio) {
10005fb2:	b510      	push	{r4, lr}
    sio_hw->gpio_oe_clr = 1ul << gpio;
10005fb4:	0612      	lsls	r2, r2, #24
10005fb6:	6293      	str	r3, [r2, #40]	; 0x28
    sio_hw->gpio_clr = 1ul << gpio;
    gpio_set_function(gpio, GPIO_FUNC_SIO);
10005fb8:	2105      	movs	r1, #5
    sio_hw->gpio_clr = 1ul << gpio;
10005fba:	6193      	str	r3, [r2, #24]
    gpio_set_function(gpio, GPIO_FUNC_SIO);
10005fbc:	f7fe fb82 	bl	100046c4 <gpio_set_function>
}
10005fc0:	bd10      	pop	{r4, pc}

10005fc2 <z_device_state_init>:

	while (dev < __device_end) {
		z_object_init(dev);
		++dev;
	}
}
10005fc2:	4770      	bx	lr

10005fc4 <z_device_is_ready>:
{
	/*
	 * if an invalid device pointer is passed as argument, this call
	 * reports the `device` as not ready for usage.
	 */
	if (dev == NULL) {
10005fc4:	2800      	cmp	r0, #0
10005fc6:	d009      	beq.n	10005fdc <z_device_is_ready+0x18>
		return false;
	}

	return dev->state->initialized && (dev->state->init_res == 0U);
10005fc8:	2301      	movs	r3, #1
10005fca:	68c2      	ldr	r2, [r0, #12]
10005fcc:	2000      	movs	r0, #0
10005fce:	7851      	ldrb	r1, [r2, #1]
10005fd0:	4219      	tst	r1, r3
10005fd2:	d002      	beq.n	10005fda <z_device_is_ready+0x16>
10005fd4:	7810      	ldrb	r0, [r2, #0]
10005fd6:	4242      	negs	r2, r0
10005fd8:	4150      	adcs	r0, r2
10005fda:	4018      	ands	r0, r3
}
10005fdc:	4770      	bx	lr

10005fde <z_log_msg_runtime_create.constprop.0>:
static inline void z_log_msg_runtime_create(uint8_t domain_id,
10005fde:	b57f      	push	{r0, r1, r2, r3, r4, r5, r6, lr}
	va_start(ap, fmt);
10005fe0:	ab0b      	add	r3, sp, #44	; 0x2c
10005fe2:	9305      	str	r3, [sp, #20]
10005fe4:	2000      	movs	r0, #0
10005fe6:	9303      	str	r3, [sp, #12]
10005fe8:	9b0a      	ldr	r3, [sp, #40]	; 0x28
10005fea:	2201      	movs	r2, #1
10005fec:	9302      	str	r3, [sp, #8]
10005fee:	9001      	str	r0, [sp, #4]
10005ff0:	0003      	movs	r3, r0
10005ff2:	9000      	str	r0, [sp, #0]
10005ff4:	f7fd f8f4 	bl	100031e0 <z_impl_z_log_msg_runtime_vcreate>
}
10005ff8:	b007      	add	sp, #28
10005ffa:	bd00      	pop	{pc}

10005ffc <arch_system_halt>:
	__asm__ volatile("mrs %0, PRIMASK;"
10005ffc:	f3ef 8310 	mrs	r3, PRIMASK
10006000:	b672      	cpsid	i
	for (;;) {
10006002:	e7fe      	b.n	10006002 <arch_system_halt+0x6>

10006004 <z_early_memset>:
{
10006004:	b510      	push	{r4, lr}
	(void) memset(dst, c, n);
10006006:	f7ff fceb 	bl	100059e0 <memset>
}
1000600a:	bd10      	pop	{r4, pc}

1000600c <z_early_memcpy>:
{
1000600c:	b510      	push	{r4, lr}
	(void) memcpy(dst, src, n);
1000600e:	f7ff fcde 	bl	100059ce <memcpy>
}
10006012:	bd10      	pop	{r4, pc}

10006014 <k_thread_name_get>:
}
10006014:	2000      	movs	r0, #0
10006016:	4770      	bx	lr

10006018 <idle>:
#endif	/* CONFIG_PM */
	sys_clock_idle_exit();
}

void idle(void *unused1, void *unused2, void *unused3)
{
10006018:	b510      	push	{r4, lr}
1000601a:	f3ef 8310 	mrs	r3, PRIMASK
1000601e:	b672      	cpsid	i
 * @note In some architectures, before returning, the function unmasks interrupts
 * unconditionally.
 */
static inline void k_cpu_idle(void)
{
	arch_cpu_idle();
10006020:	f7fd fb1c 	bl	1000365c <arch_cpu_idle>
10006024:	e7f9      	b.n	1000601a <idle+0x2>

10006026 <sys_dlist_remove>:
	sys_dnode_t *const next = node->next;
10006026:	6803      	ldr	r3, [r0, #0]
	sys_dnode_t *const prev = node->prev;
10006028:	6842      	ldr	r2, [r0, #4]
	prev->next = next;
1000602a:	6013      	str	r3, [r2, #0]
	next->prev = prev;
1000602c:	605a      	str	r2, [r3, #4]
	node->next = NULL;
1000602e:	2300      	movs	r3, #0
10006030:	6003      	str	r3, [r0, #0]
	node->prev = NULL;
10006032:	6043      	str	r3, [r0, #4]
	sys_dnode_init(node);
}
10006034:	4770      	bx	lr

10006036 <unpend_thread_no_timeout>:
{
10006036:	b510      	push	{r4, lr}
10006038:	0004      	movs	r4, r0
	sys_dlist_remove(&thread->base.qnode_dlist);
1000603a:	f7ff fff4 	bl	10006026 <sys_dlist_remove>
	thread->base.thread_state &= ~_THREAD_PENDING;
1000603e:	2202      	movs	r2, #2
10006040:	7b63      	ldrb	r3, [r4, #13]
10006042:	4393      	bics	r3, r2
10006044:	7363      	strb	r3, [r4, #13]
	thread->base.pended_on = NULL;
10006046:	2300      	movs	r3, #0
10006048:	60a3      	str	r3, [r4, #8]
}
1000604a:	bd10      	pop	{r4, pc}

1000604c <add_to_waitq_locked>:
{
1000604c:	b570      	push	{r4, r5, r6, lr}
1000604e:	0004      	movs	r4, r0
10006050:	000d      	movs	r5, r1
	unready_thread(thread);
10006052:	f7fe ff33 	bl	10004ebc <unready_thread>
	thread->base.thread_state |= _THREAD_PENDING;
10006056:	2302      	movs	r3, #2
10006058:	7b62      	ldrb	r2, [r4, #13]
1000605a:	4313      	orrs	r3, r2
1000605c:	7363      	strb	r3, [r4, #13]
	if (wait_q != NULL) {
1000605e:	2d00      	cmp	r5, #0
10006060:	d01c      	beq.n	1000609c <add_to_waitq_locked+0x50>
		thread->base.pended_on = wait_q;
10006062:	60a5      	str	r5, [r4, #8]
	return list->head == list;
10006064:	682b      	ldr	r3, [r5, #0]
	return sys_dlist_is_empty(list) ? NULL : list->head;
10006066:	429d      	cmp	r5, r3
10006068:	d109      	bne.n	1000607e <add_to_waitq_locked+0x32>
	sys_dnode_t *const tail = list->tail;
1000606a:	686b      	ldr	r3, [r5, #4]
	node->next = list;
1000606c:	6025      	str	r5, [r4, #0]
	node->prev = tail;
1000606e:	6063      	str	r3, [r4, #4]
	tail->next = node;
10006070:	601c      	str	r4, [r3, #0]
	list->tail = node;
10006072:	606c      	str	r4, [r5, #4]
}
10006074:	e012      	b.n	1000609c <add_to_waitq_locked+0x50>
	return (node == list->tail) ? NULL : node->next;
10006076:	686a      	ldr	r2, [r5, #4]
10006078:	4293      	cmp	r3, r2
1000607a:	d0f6      	beq.n	1000606a <add_to_waitq_locked+0x1e>
1000607c:	681b      	ldr	r3, [r3, #0]
	SYS_DLIST_FOR_EACH_CONTAINER(pq, t, base.qnode_dlist) {
1000607e:	2b00      	cmp	r3, #0
10006080:	d0f3      	beq.n	1000606a <add_to_waitq_locked+0x1e>
	int32_t b1 = thread_1->base.prio;
10006082:	220e      	movs	r2, #14
	int32_t b2 = thread_2->base.prio;
10006084:	210e      	movs	r1, #14
	int32_t b1 = thread_1->base.prio;
10006086:	56a2      	ldrsb	r2, [r4, r2]
	int32_t b2 = thread_2->base.prio;
10006088:	5659      	ldrsb	r1, [r3, r1]
	if (b1 != b2) {
1000608a:	428a      	cmp	r2, r1
1000608c:	d0f3      	beq.n	10006076 <add_to_waitq_locked+0x2a>
		if (z_sched_prio_cmp(thread, t) > 0) {
1000608e:	4291      	cmp	r1, r2
10006090:	ddf1      	ble.n	10006076 <add_to_waitq_locked+0x2a>
	sys_dnode_t *const prev = successor->prev;
10006092:	685a      	ldr	r2, [r3, #4]
	node->next = successor;
10006094:	6023      	str	r3, [r4, #0]
	node->prev = prev;
10006096:	6062      	str	r2, [r4, #4]
	prev->next = node;
10006098:	6014      	str	r4, [r2, #0]
	successor->prev = node;
1000609a:	605c      	str	r4, [r3, #4]
}
1000609c:	bd70      	pop	{r4, r5, r6, pc}

1000609e <z_ready_thread>:
{
1000609e:	b510      	push	{r4, lr}
100060a0:	f3ef 8410 	mrs	r4, PRIMASK
100060a4:	b672      	cpsid	i
			ready_thread(thread);
100060a6:	f7fe fed3 	bl	10004e50 <ready_thread>
	if (key != 0U) {
100060aa:	2c00      	cmp	r4, #0
100060ac:	d102      	bne.n	100060b4 <z_ready_thread+0x16>
	__asm__ volatile(
100060ae:	b662      	cpsie	i
100060b0:	f3bf 8f6f 	isb	sy
}
100060b4:	bd10      	pop	{r4, pc}

100060b6 <z_unpend_thread_no_timeout>:
{
100060b6:	b510      	push	{r4, lr}
	__asm__ volatile("mrs %0, PRIMASK;"
100060b8:	f3ef 8410 	mrs	r4, PRIMASK
100060bc:	b672      	cpsid	i
		if (thread->base.pended_on != NULL) {
100060be:	6883      	ldr	r3, [r0, #8]
100060c0:	2b00      	cmp	r3, #0
100060c2:	d001      	beq.n	100060c8 <z_unpend_thread_no_timeout+0x12>
			unpend_thread_no_timeout(thread);
100060c4:	f7ff ffb7 	bl	10006036 <unpend_thread_no_timeout>
	if (key != 0U) {
100060c8:	2c00      	cmp	r4, #0
100060ca:	d102      	bne.n	100060d2 <z_unpend_thread_no_timeout+0x1c>
	__asm__ volatile(
100060cc:	b662      	cpsie	i
100060ce:	f3bf 8f6f 	isb	sy
}
100060d2:	bd10      	pop	{r4, pc}

100060d4 <z_sched_wake_thread>:
{
100060d4:	b570      	push	{r4, r5, r6, lr}
100060d6:	0004      	movs	r4, r0
100060d8:	000e      	movs	r6, r1
	__asm__ volatile("mrs %0, PRIMASK;"
100060da:	f3ef 8510 	mrs	r5, PRIMASK
100060de:	b672      	cpsid	i
		if (!killed) {
100060e0:	2328      	movs	r3, #40	; 0x28
100060e2:	7b42      	ldrb	r2, [r0, #13]
100060e4:	421a      	tst	r2, r3
100060e6:	d10e      	bne.n	10006106 <z_sched_wake_thread+0x32>
			if (thread->base.pended_on != NULL) {
100060e8:	6883      	ldr	r3, [r0, #8]
100060ea:	2b00      	cmp	r3, #0
100060ec:	d001      	beq.n	100060f2 <z_sched_wake_thread+0x1e>
				unpend_thread_no_timeout(thread);
100060ee:	f7ff ffa2 	bl	10006036 <unpend_thread_no_timeout>
	thread->base.thread_state &= ~_THREAD_PRESTART;
100060f2:	2204      	movs	r2, #4
100060f4:	7b63      	ldrb	r3, [r4, #13]
			if (is_timeout) {
100060f6:	2e00      	cmp	r6, #0
100060f8:	d000      	beq.n	100060fc <z_sched_wake_thread+0x28>
	thread->base.thread_state &= ~_THREAD_SUSPENDED;
100060fa:	2214      	movs	r2, #20
100060fc:	4393      	bics	r3, r2
			ready_thread(thread);
100060fe:	0020      	movs	r0, r4
	thread->base.thread_state &= ~_THREAD_PRESTART;
10006100:	7363      	strb	r3, [r4, #13]
10006102:	f7fe fea5 	bl	10004e50 <ready_thread>
	if (key != 0U) {
10006106:	2d00      	cmp	r5, #0
10006108:	d102      	bne.n	10006110 <z_sched_wake_thread+0x3c>
	__asm__ volatile(
1000610a:	b662      	cpsie	i
1000610c:	f3bf 8f6f 	isb	sy
}
10006110:	bd70      	pop	{r4, r5, r6, pc}

10006112 <z_thread_timeout>:
{
10006112:	b510      	push	{r4, lr}
	z_sched_wake_thread(thread, true);
10006114:	2101      	movs	r1, #1
	struct k_thread *thread = CONTAINER_OF(timeout,
10006116:	3818      	subs	r0, #24
	z_sched_wake_thread(thread, true);
10006118:	f7ff ffdc 	bl	100060d4 <z_sched_wake_thread>
}
1000611c:	bd10      	pop	{r4, pc}

1000611e <z_unpend1_no_timeout>:
{
1000611e:	b570      	push	{r4, r5, r6, lr}
	__asm__ volatile("mrs %0, PRIMASK;"
10006120:	f3ef 8510 	mrs	r5, PRIMASK
10006124:	b672      	cpsid	i
	return list->head == list;
10006126:	6804      	ldr	r4, [r0, #0]
	return sys_dlist_is_empty(list) ? NULL : list->head;
10006128:	42a0      	cmp	r0, r4
1000612a:	d00b      	beq.n	10006144 <z_unpend1_no_timeout+0x26>
		if (thread != NULL) {
1000612c:	2c00      	cmp	r4, #0
1000612e:	d002      	beq.n	10006136 <z_unpend1_no_timeout+0x18>
			unpend_thread_no_timeout(thread);
10006130:	0020      	movs	r0, r4
10006132:	f7ff ff80 	bl	10006036 <unpend_thread_no_timeout>
	if (key != 0U) {
10006136:	2d00      	cmp	r5, #0
10006138:	d102      	bne.n	10006140 <z_unpend1_no_timeout+0x22>
	__asm__ volatile(
1000613a:	b662      	cpsie	i
1000613c:	f3bf 8f6f 	isb	sy
}
10006140:	0020      	movs	r0, r4
10006142:	bd70      	pop	{r4, r5, r6, pc}
10006144:	2400      	movs	r4, #0
10006146:	e7f6      	b.n	10006136 <z_unpend1_no_timeout+0x18>

10006148 <z_unpend_first_thread>:
{
10006148:	b570      	push	{r4, r5, r6, lr}
	__asm__ volatile("mrs %0, PRIMASK;"
1000614a:	f3ef 8510 	mrs	r5, PRIMASK
1000614e:	b672      	cpsid	i
	return list->head == list;
10006150:	6804      	ldr	r4, [r0, #0]
	return sys_dlist_is_empty(list) ? NULL : list->head;
10006152:	42a0      	cmp	r0, r4
10006154:	d00f      	beq.n	10006176 <z_unpend_first_thread+0x2e>
		if (thread != NULL) {
10006156:	2c00      	cmp	r4, #0
10006158:	d006      	beq.n	10006168 <z_unpend_first_thread+0x20>
			unpend_thread_no_timeout(thread);
1000615a:	0020      	movs	r0, r4
1000615c:	f7ff ff6b 	bl	10006036 <unpend_thread_no_timeout>
10006160:	0020      	movs	r0, r4
10006162:	3018      	adds	r0, #24
10006164:	f000 f81e 	bl	100061a4 <z_abort_timeout>
	if (key != 0U) {
10006168:	2d00      	cmp	r5, #0
1000616a:	d102      	bne.n	10006172 <z_unpend_first_thread+0x2a>
	__asm__ volatile(
1000616c:	b662      	cpsie	i
1000616e:	f3bf 8f6f 	isb	sy
}
10006172:	0020      	movs	r0, r4
10006174:	bd70      	pop	{r4, r5, r6, pc}
10006176:	2400      	movs	r4, #0
10006178:	e7f6      	b.n	10006168 <z_unpend_first_thread+0x20>

1000617a <z_reschedule_irqlock>:
{
1000617a:	b510      	push	{r4, lr}
	return arch_irq_unlocked(key) && !arch_is_in_isr();
1000617c:	2800      	cmp	r0, #0
1000617e:	d105      	bne.n	1000618c <z_reschedule_irqlock+0x12>
10006180:	f3ef 8005 	mrs	r0, IPSR
10006184:	2800      	cmp	r0, #0
10006186:	d102      	bne.n	1000618e <z_reschedule_irqlock+0x14>
	ret = arch_swap(key);
10006188:	f7fd fb0e 	bl	100037a8 <arch_swap>
}
1000618c:	bd10      	pop	{r4, pc}
1000618e:	b662      	cpsie	i
10006190:	f3bf 8f6f 	isb	sy
10006194:	e7fa      	b.n	1000618c <z_reschedule_irqlock+0x12>

10006196 <z_reschedule_unlocked>:
{
10006196:	b510      	push	{r4, lr}
	__asm__ volatile("mrs %0, PRIMASK;"
10006198:	f3ef 8010 	mrs	r0, PRIMASK
1000619c:	b672      	cpsid	i
	(void) z_reschedule_irqlock(arch_irq_lock());
1000619e:	f7ff ffec 	bl	1000617a <z_reschedule_irqlock>
}
100061a2:	bd10      	pop	{r4, pc}

100061a4 <z_abort_timeout>:
{
100061a4:	b510      	push	{r4, lr}
100061a6:	f3ef 8410 	mrs	r4, PRIMASK
100061aa:	b672      	cpsid	i
		if (sys_dnode_is_linked(&to->node)) {
100061ac:	6803      	ldr	r3, [r0, #0]
100061ae:	2b00      	cmp	r3, #0
100061b0:	d008      	beq.n	100061c4 <z_abort_timeout+0x20>
			remove_timeout(to);
100061b2:	f7ff f8e7 	bl	10005384 <remove_timeout>
			ret = 0;
100061b6:	2000      	movs	r0, #0
	if (key != 0U) {
100061b8:	2c00      	cmp	r4, #0
100061ba:	d102      	bne.n	100061c2 <z_abort_timeout+0x1e>
	__asm__ volatile(
100061bc:	b662      	cpsie	i
100061be:	f3bf 8f6f 	isb	sy
}
100061c2:	bd10      	pop	{r4, pc}
	int ret = -EINVAL;
100061c4:	2016      	movs	r0, #22
100061c6:	4240      	negs	r0, r0
100061c8:	e7f6      	b.n	100061b8 <z_abort_timeout+0x14>

100061ca <sys_clock_tick_get_32>:

uint32_t sys_clock_tick_get_32(void)
{
100061ca:	b510      	push	{r4, lr}
#ifdef CONFIG_TICKLESS_KERNEL
	return (uint32_t)sys_clock_tick_get();
100061cc:	f7ff f9d2 	bl	10005574 <sys_clock_tick_get>
#else
	return (uint32_t)curr_tick;
#endif
}
100061d0:	bd10      	pop	{r4, pc}

100061d2 <z_impl_k_uptime_ticks>:

int64_t z_impl_k_uptime_ticks(void)
{
100061d2:	b510      	push	{r4, lr}
	return sys_clock_tick_get();
100061d4:	f7ff f9ce 	bl	10005574 <sys_clock_tick_get>
}
100061d8:	bd10      	pop	{r4, pc}

100061da <z_impl_k_timer_stop>:
}
#include <syscalls/k_timer_start_mrsh.c>
#endif

void z_impl_k_timer_stop(struct k_timer *timer)
{
100061da:	b510      	push	{r4, lr}
100061dc:	0004      	movs	r4, r0
	SYS_PORT_TRACING_OBJ_FUNC(k_timer, stop, timer);

	bool inactive = (z_abort_timeout(&timer->timeout) != 0);
100061de:	f7ff ffe1 	bl	100061a4 <z_abort_timeout>

	if (inactive) {
100061e2:	2800      	cmp	r0, #0
100061e4:	d111      	bne.n	1000620a <z_impl_k_timer_stop+0x30>
		return;
	}

	if (timer->stop_fn != NULL) {
100061e6:	6a63      	ldr	r3, [r4, #36]	; 0x24
100061e8:	2b00      	cmp	r3, #0
100061ea:	d001      	beq.n	100061f0 <z_impl_k_timer_stop+0x16>
		timer->stop_fn(timer);
100061ec:	0020      	movs	r0, r4
100061ee:	4798      	blx	r3
	}

	if (IS_ENABLED(CONFIG_MULTITHREADING)) {
		struct k_thread *pending_thread = z_unpend1_no_timeout(&timer->wait_q);
100061f0:	0020      	movs	r0, r4
100061f2:	3018      	adds	r0, #24
100061f4:	f7ff ff93 	bl	1000611e <z_unpend1_no_timeout>

		if (pending_thread != NULL) {
100061f8:	2800      	cmp	r0, #0
100061fa:	d006      	beq.n	1000620a <z_impl_k_timer_stop+0x30>
			z_ready_thread(pending_thread);
100061fc:	f7ff ff4f 	bl	1000609e <z_ready_thread>
	__asm__ volatile("mrs %0, PRIMASK;"
10006200:	f3ef 8010 	mrs	r0, PRIMASK
10006204:	b672      	cpsid	i
	(void) z_reschedule_irqlock(arch_irq_lock());
10006206:	f7ff ffb8 	bl	1000617a <z_reschedule_irqlock>
			z_reschedule_unlocked();
		}
	}
}
1000620a:	bd10      	pop	{r4, pc}

1000620c <z_impl_atomic_add>:
 * @param value the value to add
 *
 * @return The previous value from <target>
 */
atomic_val_t z_impl_atomic_add(atomic_t *target, atomic_val_t value)
{
1000620c:	0003      	movs	r3, r0
1000620e:	f3ef 8210 	mrs	r2, PRIMASK
10006212:	b672      	cpsid	i
	k_spinlock_key_t key;
	atomic_val_t ret;

	key = k_spin_lock(&lock);

	ret = *target;
10006214:	6800      	ldr	r0, [r0, #0]
	*target += value;
10006216:	1841      	adds	r1, r0, r1
10006218:	6019      	str	r1, [r3, #0]
	if (key != 0U) {
1000621a:	2a00      	cmp	r2, #0
1000621c:	d102      	bne.n	10006224 <z_impl_atomic_add+0x18>
	__asm__ volatile(
1000621e:	b662      	cpsie	i
10006220:	f3bf 8f6f 	isb	sy

	k_spin_unlock(&lock, key);

	return ret;
}
10006224:	4770      	bx	lr

10006226 <z_impl_atomic_sub>:
 * @param value the value to subtract
 *
 * @return The previous value from <target>
 */
atomic_val_t z_impl_atomic_sub(atomic_t *target, atomic_val_t value)
{
10006226:	0003      	movs	r3, r0
	__asm__ volatile("mrs %0, PRIMASK;"
10006228:	f3ef 8210 	mrs	r2, PRIMASK
1000622c:	b672      	cpsid	i
	k_spinlock_key_t key;
	atomic_val_t ret;

	key = k_spin_lock(&lock);

	ret = *target;
1000622e:	6800      	ldr	r0, [r0, #0]
	*target -= value;
10006230:	1a41      	subs	r1, r0, r1
10006232:	6019      	str	r1, [r3, #0]
	if (key != 0U) {
10006234:	2a00      	cmp	r2, #0
10006236:	d102      	bne.n	1000623e <z_impl_atomic_sub+0x18>
	__asm__ volatile(
10006238:	b662      	cpsie	i
1000623a:	f3bf 8f6f 	isb	sy

	k_spin_unlock(&lock, key);

	return ret;
}
1000623e:	4770      	bx	lr

10006240 <z_impl_atomic_set>:
 * @param value the value to write
 *
 * @return The previous value from <target>
 */
atomic_val_t z_impl_atomic_set(atomic_t *target, atomic_val_t value)
{
10006240:	0003      	movs	r3, r0
	__asm__ volatile("mrs %0, PRIMASK;"
10006242:	f3ef 8210 	mrs	r2, PRIMASK
10006246:	b672      	cpsid	i
	k_spinlock_key_t key;
	atomic_val_t ret;

	key = k_spin_lock(&lock);

	ret = *target;
10006248:	6800      	ldr	r0, [r0, #0]
	*target = value;
1000624a:	6019      	str	r1, [r3, #0]
	if (key != 0U) {
1000624c:	2a00      	cmp	r2, #0
1000624e:	d102      	bne.n	10006256 <z_impl_atomic_set+0x16>
	__asm__ volatile(
10006250:	b662      	cpsie	i
10006252:	f3bf 8f6f 	isb	sy

	k_spin_unlock(&lock, key);

	return ret;
}
10006256:	4770      	bx	lr
